Archive member included to satisfy reference by file (symbol)

d:/gcc-arm-none-eabi-10.3-2021.10/bin/../lib/gcc/arm-none-eabi/10.3.1/../../../../arm-none-eabi/lib/thumb/v7e-m+fp/hard\libc_nano.a(lib_a-exit.o)
                              d:/gcc-arm-none-eabi-10.3-2021.10/bin/../lib/gcc/arm-none-eabi/10.3.1/../../../../arm-none-eabi/lib/thumb/v7e-m+fp/hard/crt0.o (exit)
d:/gcc-arm-none-eabi-10.3-2021.10/bin/../lib/gcc/arm-none-eabi/10.3.1/../../../../arm-none-eabi/lib/thumb/v7e-m+fp/hard\libc_nano.a(lib_a-impure.o)
                              d:/gcc-arm-none-eabi-10.3-2021.10/bin/../lib/gcc/arm-none-eabi/10.3.1/../../../../arm-none-eabi/lib/thumb/v7e-m+fp/hard\libc_nano.a(lib_a-exit.o) (_global_impure_ptr)
d:/gcc-arm-none-eabi-10.3-2021.10/bin/../lib/gcc/arm-none-eabi/10.3.1/../../../../arm-none-eabi/lib/thumb/v7e-m+fp/hard\libc_nano.a(lib_a-init.o)
                              d:/gcc-arm-none-eabi-10.3-2021.10/bin/../lib/gcc/arm-none-eabi/10.3.1/../../../../arm-none-eabi/lib/thumb/v7e-m+fp/hard/crt0.o (__libc_init_array)
d:/gcc-arm-none-eabi-10.3-2021.10/bin/../lib/gcc/arm-none-eabi/10.3.1/../../../../arm-none-eabi/lib/thumb/v7e-m+fp/hard\libc_nano.a(lib_a-memcpy-stub.o)
                              build/queue.o (memcpy)
d:/gcc-arm-none-eabi-10.3-2021.10/bin/../lib/gcc/arm-none-eabi/10.3.1/../../../../arm-none-eabi/lib/thumb/v7e-m+fp/hard\libc_nano.a(lib_a-memset.o)
                              d:/gcc-arm-none-eabi-10.3-2021.10/bin/../lib/gcc/arm-none-eabi/10.3.1/../../../../arm-none-eabi/lib/thumb/v7e-m+fp/hard/crt0.o (memset)
d:/gcc-arm-none-eabi-10.3-2021.10/bin/../lib/gcc/arm-none-eabi/10.3.1/../../../../arm-none-eabi/lib/thumb/v7e-m+fp/hard\libc_nano.a(lib_a-sprintf.o)
                              build/spi.o (sprintf)
d:/gcc-arm-none-eabi-10.3-2021.10/bin/../lib/gcc/arm-none-eabi/10.3.1/../../../../arm-none-eabi/lib/thumb/v7e-m+fp/hard\libc_nano.a(lib_a-strcpy.o)
                              build/spi.o (strcpy)
d:/gcc-arm-none-eabi-10.3-2021.10/bin/../lib/gcc/arm-none-eabi/10.3.1/../../../../arm-none-eabi/lib/thumb/v7e-m+fp/hard\libc_nano.a(lib_a-strlen.o)
                              build/spi.o (strlen)
d:/gcc-arm-none-eabi-10.3-2021.10/bin/../lib/gcc/arm-none-eabi/10.3.1/../../../../arm-none-eabi/lib/thumb/v7e-m+fp/hard\libc_nano.a(lib_a-vsnprintf.o)
                              build/usart.o (vsnprintf)
d:/gcc-arm-none-eabi-10.3-2021.10/bin/../lib/gcc/arm-none-eabi/10.3.1/../../../../arm-none-eabi/lib/thumb/v7e-m+fp/hard\libc_nano.a(lib_a-nano-svfprintf.o)
                              d:/gcc-arm-none-eabi-10.3-2021.10/bin/../lib/gcc/arm-none-eabi/10.3.1/../../../../arm-none-eabi/lib/thumb/v7e-m+fp/hard\libc_nano.a(lib_a-sprintf.o) (_svfprintf_r)
d:/gcc-arm-none-eabi-10.3-2021.10/bin/../lib/gcc/arm-none-eabi/10.3.1/../../../../arm-none-eabi/lib/thumb/v7e-m+fp/hard\libc_nano.a(lib_a-nano-vfprintf_i.o)
                              d:/gcc-arm-none-eabi-10.3-2021.10/bin/../lib/gcc/arm-none-eabi/10.3.1/../../../../arm-none-eabi/lib/thumb/v7e-m+fp/hard\libc_nano.a(lib_a-nano-svfprintf.o) (_printf_i)
d:/gcc-arm-none-eabi-10.3-2021.10/bin/../lib/gcc/arm-none-eabi/10.3.1/../../../../arm-none-eabi/lib/thumb/v7e-m+fp/hard\libc_nano.a(lib_a-memchr.o)
                              d:/gcc-arm-none-eabi-10.3-2021.10/bin/../lib/gcc/arm-none-eabi/10.3.1/../../../../arm-none-eabi/lib/thumb/v7e-m+fp/hard\libc_nano.a(lib_a-nano-svfprintf.o) (memchr)
d:/gcc-arm-none-eabi-10.3-2021.10/bin/../lib/gcc/arm-none-eabi/10.3.1/../../../../arm-none-eabi/lib/thumb/v7e-m+fp/hard\libc_nano.a(lib_a-memmove.o)
                              d:/gcc-arm-none-eabi-10.3-2021.10/bin/../lib/gcc/arm-none-eabi/10.3.1/../../../../arm-none-eabi/lib/thumb/v7e-m+fp/hard\libc_nano.a(lib_a-nano-svfprintf.o) (memmove)
d:/gcc-arm-none-eabi-10.3-2021.10/bin/../lib/gcc/arm-none-eabi/10.3.1/../../../../arm-none-eabi/lib/thumb/v7e-m+fp/hard\libc_nano.a(lib_a-nano-freer.o)
                              d:/gcc-arm-none-eabi-10.3-2021.10/bin/../lib/gcc/arm-none-eabi/10.3.1/../../../../arm-none-eabi/lib/thumb/v7e-m+fp/hard\libc_nano.a(lib_a-nano-svfprintf.o) (_free_r)
d:/gcc-arm-none-eabi-10.3-2021.10/bin/../lib/gcc/arm-none-eabi/10.3.1/../../../../arm-none-eabi/lib/thumb/v7e-m+fp/hard\libc_nano.a(lib_a-nano-mallocr.o)
                              d:/gcc-arm-none-eabi-10.3-2021.10/bin/../lib/gcc/arm-none-eabi/10.3.1/../../../../arm-none-eabi/lib/thumb/v7e-m+fp/hard\libc_nano.a(lib_a-nano-svfprintf.o) (_malloc_r)
d:/gcc-arm-none-eabi-10.3-2021.10/bin/../lib/gcc/arm-none-eabi/10.3.1/../../../../arm-none-eabi/lib/thumb/v7e-m+fp/hard\libc_nano.a(lib_a-nano-reallocr.o)
                              d:/gcc-arm-none-eabi-10.3-2021.10/bin/../lib/gcc/arm-none-eabi/10.3.1/../../../../arm-none-eabi/lib/thumb/v7e-m+fp/hard\libc_nano.a(lib_a-nano-svfprintf.o) (_realloc_r)
d:/gcc-arm-none-eabi-10.3-2021.10/bin/../lib/gcc/arm-none-eabi/10.3.1/../../../../arm-none-eabi/lib/thumb/v7e-m+fp/hard\libc_nano.a(lib_a-sbrkr.o)
                              d:/gcc-arm-none-eabi-10.3-2021.10/bin/../lib/gcc/arm-none-eabi/10.3.1/../../../../arm-none-eabi/lib/thumb/v7e-m+fp/hard\libc_nano.a(lib_a-nano-mallocr.o) (_sbrk_r)
d:/gcc-arm-none-eabi-10.3-2021.10/bin/../lib/gcc/arm-none-eabi/10.3.1/../../../../arm-none-eabi/lib/thumb/v7e-m+fp/hard\libc_nano.a(lib_a-mlock.o)
                              d:/gcc-arm-none-eabi-10.3-2021.10/bin/../lib/gcc/arm-none-eabi/10.3.1/../../../../arm-none-eabi/lib/thumb/v7e-m+fp/hard\libc_nano.a(lib_a-nano-freer.o) (__malloc_lock)
d:/gcc-arm-none-eabi-10.3-2021.10/bin/../lib/gcc/arm-none-eabi/10.3.1/../../../../arm-none-eabi/lib/thumb/v7e-m+fp/hard\libc_nano.a(lib_a-nano-msizer.o)
                              d:/gcc-arm-none-eabi-10.3-2021.10/bin/../lib/gcc/arm-none-eabi/10.3.1/../../../../arm-none-eabi/lib/thumb/v7e-m+fp/hard\libc_nano.a(lib_a-nano-reallocr.o) (_malloc_usable_size_r)
d:/gcc-arm-none-eabi-10.3-2021.10/bin/../lib/gcc/arm-none-eabi/10.3.1/../../../../arm-none-eabi/lib/thumb/v7e-m+fp/hard\libc_nano.a(lib_a-reent.o)
                              d:/gcc-arm-none-eabi-10.3-2021.10/bin/../lib/gcc/arm-none-eabi/10.3.1/../../../../arm-none-eabi/lib/thumb/v7e-m+fp/hard\libc_nano.a(lib_a-sbrkr.o) (errno)
d:/gcc-arm-none-eabi-10.3-2021.10/bin/../lib/gcc/arm-none-eabi/10.3.1/../../../../arm-none-eabi/lib/thumb/v7e-m+fp/hard\libc_nano.a(lib_a-lock.o)
                              d:/gcc-arm-none-eabi-10.3-2021.10/bin/../lib/gcc/arm-none-eabi/10.3.1/../../../../arm-none-eabi/lib/thumb/v7e-m+fp/hard\libc_nano.a(lib_a-mlock.o) (__retarget_lock_acquire_recursive)
d:/gcc-arm-none-eabi-10.3-2021.10/bin/../lib/gcc/arm-none-eabi/10.3.1/../../../../arm-none-eabi/lib/thumb/v7e-m+fp/hard\libm.a(lib_a-s_cos.o)
                              build/motor.o (cos)
d:/gcc-arm-none-eabi-10.3-2021.10/bin/../lib/gcc/arm-none-eabi/10.3.1/../../../../arm-none-eabi/lib/thumb/v7e-m+fp/hard\libm.a(lib_a-s_round.o)
                              build/spi.o (round)
d:/gcc-arm-none-eabi-10.3-2021.10/bin/../lib/gcc/arm-none-eabi/10.3.1/../../../../arm-none-eabi/lib/thumb/v7e-m+fp/hard\libm.a(lib_a-s_sin.o)
                              build/motor.o (sin)
d:/gcc-arm-none-eabi-10.3-2021.10/bin/../lib/gcc/arm-none-eabi/10.3.1/../../../../arm-none-eabi/lib/thumb/v7e-m+fp/hard\libm.a(lib_a-w_fmod.o)
                              build/motor.o (fmod)
d:/gcc-arm-none-eabi-10.3-2021.10/bin/../lib/gcc/arm-none-eabi/10.3.1/../../../../arm-none-eabi/lib/thumb/v7e-m+fp/hard\libm.a(lib_a-e_fmod.o)
                              d:/gcc-arm-none-eabi-10.3-2021.10/bin/../lib/gcc/arm-none-eabi/10.3.1/../../../../arm-none-eabi/lib/thumb/v7e-m+fp/hard\libm.a(lib_a-w_fmod.o) (__ieee754_fmod)
d:/gcc-arm-none-eabi-10.3-2021.10/bin/../lib/gcc/arm-none-eabi/10.3.1/../../../../arm-none-eabi/lib/thumb/v7e-m+fp/hard\libm.a(lib_a-e_rem_pio2.o)
                              d:/gcc-arm-none-eabi-10.3-2021.10/bin/../lib/gcc/arm-none-eabi/10.3.1/../../../../arm-none-eabi/lib/thumb/v7e-m+fp/hard\libm.a(lib_a-s_cos.o) (__ieee754_rem_pio2)
d:/gcc-arm-none-eabi-10.3-2021.10/bin/../lib/gcc/arm-none-eabi/10.3.1/../../../../arm-none-eabi/lib/thumb/v7e-m+fp/hard\libm.a(lib_a-k_cos.o)
                              d:/gcc-arm-none-eabi-10.3-2021.10/bin/../lib/gcc/arm-none-eabi/10.3.1/../../../../arm-none-eabi/lib/thumb/v7e-m+fp/hard\libm.a(lib_a-s_cos.o) (__kernel_cos)
d:/gcc-arm-none-eabi-10.3-2021.10/bin/../lib/gcc/arm-none-eabi/10.3.1/../../../../arm-none-eabi/lib/thumb/v7e-m+fp/hard\libm.a(lib_a-k_rem_pio2.o)
                              d:/gcc-arm-none-eabi-10.3-2021.10/bin/../lib/gcc/arm-none-eabi/10.3.1/../../../../arm-none-eabi/lib/thumb/v7e-m+fp/hard\libm.a(lib_a-e_rem_pio2.o) (__kernel_rem_pio2)
d:/gcc-arm-none-eabi-10.3-2021.10/bin/../lib/gcc/arm-none-eabi/10.3.1/../../../../arm-none-eabi/lib/thumb/v7e-m+fp/hard\libm.a(lib_a-k_sin.o)
                              d:/gcc-arm-none-eabi-10.3-2021.10/bin/../lib/gcc/arm-none-eabi/10.3.1/../../../../arm-none-eabi/lib/thumb/v7e-m+fp/hard\libm.a(lib_a-s_cos.o) (__kernel_sin)
d:/gcc-arm-none-eabi-10.3-2021.10/bin/../lib/gcc/arm-none-eabi/10.3.1/../../../../arm-none-eabi/lib/thumb/v7e-m+fp/hard\libm.a(lib_a-s_fabs.o)
                              d:/gcc-arm-none-eabi-10.3-2021.10/bin/../lib/gcc/arm-none-eabi/10.3.1/../../../../arm-none-eabi/lib/thumb/v7e-m+fp/hard\libm.a(lib_a-e_rem_pio2.o) (fabs)
d:/gcc-arm-none-eabi-10.3-2021.10/bin/../lib/gcc/arm-none-eabi/10.3.1/../../../../arm-none-eabi/lib/thumb/v7e-m+fp/hard\libm.a(lib_a-s_floor.o)
                              d:/gcc-arm-none-eabi-10.3-2021.10/bin/../lib/gcc/arm-none-eabi/10.3.1/../../../../arm-none-eabi/lib/thumb/v7e-m+fp/hard\libm.a(lib_a-k_rem_pio2.o) (floor)
d:/gcc-arm-none-eabi-10.3-2021.10/bin/../lib/gcc/arm-none-eabi/10.3.1/../../../../arm-none-eabi/lib/thumb/v7e-m+fp/hard\libm.a(lib_a-s_scalbn.o)
                              d:/gcc-arm-none-eabi-10.3-2021.10/bin/../lib/gcc/arm-none-eabi/10.3.1/../../../../arm-none-eabi/lib/thumb/v7e-m+fp/hard\libm.a(lib_a-k_rem_pio2.o) (scalbn)
d:/gcc-arm-none-eabi-10.3-2021.10/bin/../lib/gcc/arm-none-eabi/10.3.1/../../../../arm-none-eabi/lib/thumb/v7e-m+fp/hard\libnosys.a(sbrk.o)
                              d:/gcc-arm-none-eabi-10.3-2021.10/bin/../lib/gcc/arm-none-eabi/10.3.1/../../../../arm-none-eabi/lib/thumb/v7e-m+fp/hard\libc_nano.a(lib_a-sbrkr.o) (_sbrk)
d:/gcc-arm-none-eabi-10.3-2021.10/bin/../lib/gcc/arm-none-eabi/10.3.1/../../../../arm-none-eabi/lib/thumb/v7e-m+fp/hard\libnosys.a(_exit.o)
                              d:/gcc-arm-none-eabi-10.3-2021.10/bin/../lib/gcc/arm-none-eabi/10.3.1/../../../../arm-none-eabi/lib/thumb/v7e-m+fp/hard\libc_nano.a(lib_a-exit.o) (_exit)
d:/gcc-arm-none-eabi-10.3-2021.10/bin/../lib/gcc/arm-none-eabi/10.3.1/thumb/v7e-m+fp/hard\libgcc.a(_arm_muldf3.o)
                              build/motor.o (__aeabi_dmul)
d:/gcc-arm-none-eabi-10.3-2021.10/bin/../lib/gcc/arm-none-eabi/10.3.1/thumb/v7e-m+fp/hard\libgcc.a(_arm_addsubdf3.o)
                              build/motor.o (__aeabi_dsub)
d:/gcc-arm-none-eabi-10.3-2021.10/bin/../lib/gcc/arm-none-eabi/10.3.1/thumb/v7e-m+fp/hard\libgcc.a(_arm_muldivdf3.o)
                              build/freertos.o (__aeabi_ddiv)
d:/gcc-arm-none-eabi-10.3-2021.10/bin/../lib/gcc/arm-none-eabi/10.3.1/thumb/v7e-m+fp/hard\libgcc.a(_arm_cmpdf2.o)
                              d:/gcc-arm-none-eabi-10.3-2021.10/bin/../lib/gcc/arm-none-eabi/10.3.1/../../../../arm-none-eabi/lib/thumb/v7e-m+fp/hard\libm.a(lib_a-w_fmod.o) (__aeabi_dcmpeq)
d:/gcc-arm-none-eabi-10.3-2021.10/bin/../lib/gcc/arm-none-eabi/10.3.1/thumb/v7e-m+fp/hard\libgcc.a(_arm_unorddf2.o)
                              d:/gcc-arm-none-eabi-10.3-2021.10/bin/../lib/gcc/arm-none-eabi/10.3.1/../../../../arm-none-eabi/lib/thumb/v7e-m+fp/hard\libm.a(lib_a-w_fmod.o) (__aeabi_dcmpun)
d:/gcc-arm-none-eabi-10.3-2021.10/bin/../lib/gcc/arm-none-eabi/10.3.1/thumb/v7e-m+fp/hard\libgcc.a(_arm_fixdfsi.o)
                              build/spi.o (__aeabi_d2iz)
d:/gcc-arm-none-eabi-10.3-2021.10/bin/../lib/gcc/arm-none-eabi/10.3.1/thumb/v7e-m+fp/hard\libgcc.a(_arm_truncdfsf2.o)
                              build/motor.o (__aeabi_d2f)
d:/gcc-arm-none-eabi-10.3-2021.10/bin/../lib/gcc/arm-none-eabi/10.3.1/thumb/v7e-m+fp/hard\libgcc.a(_aeabi_uldivmod.o)
                              build/stm32f4xx_hal_rcc.o (__aeabi_uldivmod)
d:/gcc-arm-none-eabi-10.3-2021.10/bin/../lib/gcc/arm-none-eabi/10.3.1/thumb/v7e-m+fp/hard\libgcc.a(_udivmoddi4.o)
                              d:/gcc-arm-none-eabi-10.3-2021.10/bin/../lib/gcc/arm-none-eabi/10.3.1/thumb/v7e-m+fp/hard\libgcc.a(_aeabi_uldivmod.o) (__udivmoddi4)
d:/gcc-arm-none-eabi-10.3-2021.10/bin/../lib/gcc/arm-none-eabi/10.3.1/thumb/v7e-m+fp/hard\libgcc.a(_dvmd_tls.o)
                              d:/gcc-arm-none-eabi-10.3-2021.10/bin/../lib/gcc/arm-none-eabi/10.3.1/thumb/v7e-m+fp/hard\libgcc.a(_aeabi_uldivmod.o) (__aeabi_ldiv0)
d:/gcc-arm-none-eabi-10.3-2021.10/bin/../lib/gcc/arm-none-eabi/10.3.1/../../../../arm-none-eabi/lib/thumb/v7e-m+fp/hard\libc_nano.a(lib_a-errno.o)
                              d:/gcc-arm-none-eabi-10.3-2021.10/bin/../lib/gcc/arm-none-eabi/10.3.1/../../../../arm-none-eabi/lib/thumb/v7e-m+fp/hard\libm.a(lib_a-w_fmod.o) (__errno)

Discarded input sections

 .text          0x00000000        0x0 d:/gcc-arm-none-eabi-10.3-2021.10/bin/../lib/gcc/arm-none-eabi/10.3.1/thumb/v7e-m+fp/hard/crti.o
 .data          0x00000000        0x0 d:/gcc-arm-none-eabi-10.3-2021.10/bin/../lib/gcc/arm-none-eabi/10.3.1/thumb/v7e-m+fp/hard/crti.o
 .bss           0x00000000        0x0 d:/gcc-arm-none-eabi-10.3-2021.10/bin/../lib/gcc/arm-none-eabi/10.3.1/thumb/v7e-m+fp/hard/crti.o
 .data          0x00000000        0x4 d:/gcc-arm-none-eabi-10.3-2021.10/bin/../lib/gcc/arm-none-eabi/10.3.1/thumb/v7e-m+fp/hard/crtbegin.o
 .rodata        0x00000000       0x24 d:/gcc-arm-none-eabi-10.3-2021.10/bin/../lib/gcc/arm-none-eabi/10.3.1/thumb/v7e-m+fp/hard/crtbegin.o
 .text          0x00000000       0x7c d:/gcc-arm-none-eabi-10.3-2021.10/bin/../lib/gcc/arm-none-eabi/10.3.1/../../../../arm-none-eabi/lib/thumb/v7e-m+fp/hard/crt0.o
 .data          0x00000000        0x0 d:/gcc-arm-none-eabi-10.3-2021.10/bin/../lib/gcc/arm-none-eabi/10.3.1/../../../../arm-none-eabi/lib/thumb/v7e-m+fp/hard/crt0.o
 .bss           0x00000000        0x0 d:/gcc-arm-none-eabi-10.3-2021.10/bin/../lib/gcc/arm-none-eabi/10.3.1/../../../../arm-none-eabi/lib/thumb/v7e-m+fp/hard/crt0.o
 .ARM.extab     0x00000000        0x0 d:/gcc-arm-none-eabi-10.3-2021.10/bin/../lib/gcc/arm-none-eabi/10.3.1/../../../../arm-none-eabi/lib/thumb/v7e-m+fp/hard/crt0.o
 .ARM.exidx     0x00000000       0x10 d:/gcc-arm-none-eabi-10.3-2021.10/bin/../lib/gcc/arm-none-eabi/10.3.1/../../../../arm-none-eabi/lib/thumb/v7e-m+fp/hard/crt0.o
 .ARM.attributes
                0x00000000       0x1c d:/gcc-arm-none-eabi-10.3-2021.10/bin/../lib/gcc/arm-none-eabi/10.3.1/../../../../arm-none-eabi/lib/thumb/v7e-m+fp/hard/crt0.o
 .text          0x00000000        0x0 build/main.o
 .data          0x00000000        0x0 build/main.o
 .bss           0x00000000        0x0 build/main.o
 .text          0x00000000        0x0 build/gpio.o
 .data          0x00000000        0x0 build/gpio.o
 .bss           0x00000000        0x0 build/gpio.o
 .text          0x00000000        0x0 build/dma.o
 .data          0x00000000        0x0 build/dma.o
 .bss           0x00000000        0x0 build/dma.o
 .text          0x00000000        0x0 build/tim.o
 .data          0x00000000        0x0 build/tim.o
 .bss           0x00000000        0x0 build/tim.o
 .text.HAL_TIM_Base_MspDeInit
                0x00000000       0x44 build/tim.o
 .text          0x00000000        0x0 build/motor.o
 .data          0x00000000        0x0 build/motor.o
 .bss           0x00000000        0x0 build/motor.o
 .text          0x00000000        0x0 build/bsp_as5600.o
 .data          0x00000000        0x0 build/bsp_as5600.o
 .bss           0x00000000        0x0 build/bsp_as5600.o
 .text          0x00000000        0x0 build/usart.o
 .data          0x00000000        0x0 build/usart.o
 .bss           0x00000000        0x0 build/usart.o
 .text.HAL_UART_MspDeInit
                0x00000000       0x44 build/usart.o
 .text          0x00000000        0x0 build/stm32f4xx_it.o
 .data          0x00000000        0x0 build/stm32f4xx_it.o
 .bss           0x00000000        0x0 build/stm32f4xx_it.o
 .text          0x00000000        0x0 build/stm32f4xx_hal_msp.o
 .data          0x00000000        0x0 build/stm32f4xx_hal_msp.o
 .bss           0x00000000        0x0 build/stm32f4xx_hal_msp.o
 .text          0x00000000        0x0 build/stm32f4xx_hal_tim.o
 .data          0x00000000        0x0 build/stm32f4xx_hal_tim.o
 .bss           0x00000000        0x0 build/stm32f4xx_hal_tim.o
 .text.TIM_TI2_SetConfig
                0x00000000       0x36 build/stm32f4xx_hal_tim.o
 .text.TIM_TI3_SetConfig
                0x00000000       0x36 build/stm32f4xx_hal_tim.o
 .text.TIM_TI4_SetConfig
                0x00000000       0x36 build/stm32f4xx_hal_tim.o
 .text.HAL_TIM_Base_MspInit
                0x00000000        0x2 build/stm32f4xx_hal_tim.o
 .text.HAL_TIM_Base_MspDeInit
                0x00000000        0x2 build/stm32f4xx_hal_tim.o
 .text.HAL_TIM_Base_DeInit
                0x00000000       0x5e build/stm32f4xx_hal_tim.o
 .text.HAL_TIM_Base_Start
                0x00000000       0x7c build/stm32f4xx_hal_tim.o
 .text.HAL_TIM_Base_Stop
                0x00000000       0x28 build/stm32f4xx_hal_tim.o
 .text.HAL_TIM_Base_Stop_IT
                0x00000000       0x32 build/stm32f4xx_hal_tim.o
 .text.HAL_TIM_Base_Start_DMA
                0x00000000       0xd0 build/stm32f4xx_hal_tim.o
 .text.HAL_TIM_Base_Stop_DMA
                0x00000000       0x3c build/stm32f4xx_hal_tim.o
 .text.HAL_TIM_OC_MspInit
                0x00000000        0x2 build/stm32f4xx_hal_tim.o
 .text.HAL_TIM_OC_MspDeInit
                0x00000000        0x2 build/stm32f4xx_hal_tim.o
 .text.HAL_TIM_OC_DeInit
                0x00000000       0x5e build/stm32f4xx_hal_tim.o
 .text.HAL_TIM_PWM_MspDeInit
                0x00000000        0x2 build/stm32f4xx_hal_tim.o
 .text.HAL_TIM_PWM_DeInit
                0x00000000       0x5e build/stm32f4xx_hal_tim.o
 .text.HAL_TIM_IC_MspInit
                0x00000000        0x2 build/stm32f4xx_hal_tim.o
 .text.HAL_TIM_IC_MspDeInit
                0x00000000        0x2 build/stm32f4xx_hal_tim.o
 .text.HAL_TIM_IC_DeInit
                0x00000000       0x5e build/stm32f4xx_hal_tim.o
 .text.HAL_TIM_OnePulse_MspInit
                0x00000000        0x2 build/stm32f4xx_hal_tim.o
 .text.HAL_TIM_OnePulse_MspDeInit
                0x00000000        0x2 build/stm32f4xx_hal_tim.o
 .text.HAL_TIM_OnePulse_DeInit
                0x00000000       0x4e build/stm32f4xx_hal_tim.o
 .text.HAL_TIM_Encoder_MspInit
                0x00000000        0x2 build/stm32f4xx_hal_tim.o
 .text.HAL_TIM_Encoder_MspDeInit
                0x00000000        0x2 build/stm32f4xx_hal_tim.o
 .text.HAL_TIM_Encoder_DeInit
                0x00000000       0x4e build/stm32f4xx_hal_tim.o
 .text.HAL_TIM_DMABurst_MultiWriteStart
                0x00000000      0x1a8 build/stm32f4xx_hal_tim.o
 .text.HAL_TIM_DMABurst_WriteStart
                0x00000000       0x16 build/stm32f4xx_hal_tim.o
 .text.HAL_TIM_DMABurst_WriteStop
                0x00000000       0x84 build/stm32f4xx_hal_tim.o
 .text.HAL_TIM_DMABurst_MultiReadStart
                0x00000000      0x1a8 build/stm32f4xx_hal_tim.o
 .text.HAL_TIM_DMABurst_ReadStart
                0x00000000       0x16 build/stm32f4xx_hal_tim.o
 .text.HAL_TIM_DMABurst_ReadStop
                0x00000000       0x84 build/stm32f4xx_hal_tim.o
 .text.HAL_TIM_GenerateEvent
                0x00000000       0x2a build/stm32f4xx_hal_tim.o
 .text.HAL_TIM_ConfigTI1Input
                0x00000000       0x10 build/stm32f4xx_hal_tim.o
 .text.HAL_TIM_ReadCapturedValue
                0x00000000       0x32 build/stm32f4xx_hal_tim.o
 .text.HAL_TIM_PeriodElapsedCallback
                0x00000000        0x2 build/stm32f4xx_hal_tim.o
 .text.TIM_DMAPeriodElapsedCplt
                0x00000000       0x16 build/stm32f4xx_hal_tim.o
 .text.HAL_TIM_PeriodElapsedHalfCpltCallback
                0x00000000        0x2 build/stm32f4xx_hal_tim.o
 .text.TIM_DMAPeriodElapsedHalfCplt
                0x00000000        0xa build/stm32f4xx_hal_tim.o
 .text.TIM_DMACaptureCplt
                0x00000000       0x80 build/stm32f4xx_hal_tim.o
 .text.HAL_TIM_IC_CaptureHalfCpltCallback
                0x00000000        0x2 build/stm32f4xx_hal_tim.o
 .text.TIM_DMACaptureHalfCplt
                0x00000000       0x3e build/stm32f4xx_hal_tim.o
 .text.TIM_DMADelayPulseCplt
                0x00000000       0x70 build/stm32f4xx_hal_tim.o
 .text.HAL_TIM_PWM_PulseFinishedHalfCpltCallback
                0x00000000        0x2 build/stm32f4xx_hal_tim.o
 .text.TIM_DMADelayPulseHalfCplt
                0x00000000       0x3e build/stm32f4xx_hal_tim.o
 .text.TIM_DMATriggerCplt
                0x00000000       0x16 build/stm32f4xx_hal_tim.o
 .text.HAL_TIM_TriggerHalfCpltCallback
                0x00000000        0x2 build/stm32f4xx_hal_tim.o
 .text.TIM_DMATriggerHalfCplt
                0x00000000        0xa build/stm32f4xx_hal_tim.o
 .text.HAL_TIM_ErrorCallback
                0x00000000        0x2 build/stm32f4xx_hal_tim.o
 .text.TIM_DMAError
                0x00000000       0x5c build/stm32f4xx_hal_tim.o
 .text.HAL_TIM_Base_GetState
                0x00000000        0x6 build/stm32f4xx_hal_tim.o
 .text.HAL_TIM_OC_GetState
                0x00000000        0x6 build/stm32f4xx_hal_tim.o
 .text.HAL_TIM_PWM_GetState
                0x00000000        0x6 build/stm32f4xx_hal_tim.o
 .text.HAL_TIM_IC_GetState
                0x00000000        0x6 build/stm32f4xx_hal_tim.o
 .text.HAL_TIM_OnePulse_GetState
                0x00000000        0x6 build/stm32f4xx_hal_tim.o
 .text.HAL_TIM_Encoder_GetState
                0x00000000        0x6 build/stm32f4xx_hal_tim.o
 .text.HAL_TIM_GetActiveChannel
                0x00000000        0x4 build/stm32f4xx_hal_tim.o
 .text.HAL_TIM_GetChannelState
                0x00000000       0x2a build/stm32f4xx_hal_tim.o
 .text.HAL_TIM_DMABurstState
                0x00000000        0x6 build/stm32f4xx_hal_tim.o
 .text.HAL_TIM_OC_Init
                0x00000000       0x58 build/stm32f4xx_hal_tim.o
 .text.HAL_TIM_IC_Init
                0x00000000       0x58 build/stm32f4xx_hal_tim.o
 .text.HAL_TIM_OnePulse_Init
                0x00000000       0x5c build/stm32f4xx_hal_tim.o
 .text.HAL_TIM_Encoder_Init
                0x00000000       0xb6 build/stm32f4xx_hal_tim.o
 .text.HAL_TIM_OC_ConfigChannel
                0x00000000       0x5e build/stm32f4xx_hal_tim.o
 .text.TIM_TI1_SetConfig
                0x00000000       0x7c build/stm32f4xx_hal_tim.o
 .text.HAL_TIM_IC_ConfigChannel
                0x00000000       0xc4 build/stm32f4xx_hal_tim.o
 .text.HAL_TIM_OnePulse_ConfigChannel
                0x00000000       0xfa build/stm32f4xx_hal_tim.o
 .text.HAL_TIM_ConfigOCrefClear
                0x00000000       0xfa build/stm32f4xx_hal_tim.o
 .text.TIM_SlaveTimer_SetConfig
                0x00000000       0xb8 build/stm32f4xx_hal_tim.o
 .text.HAL_TIM_SlaveConfigSynchro
                0x00000000       0x52 build/stm32f4xx_hal_tim.o
 .text.HAL_TIM_SlaveConfigSynchro_IT
                0x00000000       0x52 build/stm32f4xx_hal_tim.o
 .text.HAL_TIM_OC_Start
                0x00000000      0x104 build/stm32f4xx_hal_tim.o
 .text.HAL_TIM_OC_Stop
                0x00000000       0x8c build/stm32f4xx_hal_tim.o
 .text.HAL_TIM_OC_Start_IT
                0x00000000      0x14c build/stm32f4xx_hal_tim.o
 .text.HAL_TIM_OC_Stop_IT
                0x00000000       0xdc build/stm32f4xx_hal_tim.o
 .text.HAL_TIM_OC_Start_DMA
                0x00000000      0x274 build/stm32f4xx_hal_tim.o
 .text.HAL_TIM_OC_Stop_DMA
                0x00000000       0xf4 build/stm32f4xx_hal_tim.o
 .text.HAL_TIM_PWM_Stop
                0x00000000       0x8c build/stm32f4xx_hal_tim.o
 .text.HAL_TIM_PWM_Start_IT
                0x00000000      0x14c build/stm32f4xx_hal_tim.o
 .text.HAL_TIM_PWM_Stop_IT
                0x00000000       0xdc build/stm32f4xx_hal_tim.o
 .text.HAL_TIM_PWM_Start_DMA
                0x00000000      0x274 build/stm32f4xx_hal_tim.o
 .text.HAL_TIM_PWM_Stop_DMA
                0x00000000       0xf4 build/stm32f4xx_hal_tim.o
 .text.HAL_TIM_IC_Start
                0x00000000      0x130 build/stm32f4xx_hal_tim.o
 .text.HAL_TIM_IC_Stop
                0x00000000       0x80 build/stm32f4xx_hal_tim.o
 .text.HAL_TIM_IC_Start_IT
                0x00000000      0x174 build/stm32f4xx_hal_tim.o
 .text.HAL_TIM_IC_Stop_IT
                0x00000000       0xd0 build/stm32f4xx_hal_tim.o
 .text.HAL_TIM_IC_Start_DMA
                0x00000000      0x260 build/stm32f4xx_hal_tim.o
 .text.HAL_TIM_IC_Stop_DMA
                0x00000000       0xe6 build/stm32f4xx_hal_tim.o
 .text.HAL_TIM_OnePulse_Start
                0x00000000       0x80 build/stm32f4xx_hal_tim.o
 .text.HAL_TIM_OnePulse_Stop
                0x00000000       0x80 build/stm32f4xx_hal_tim.o
 .text.HAL_TIM_OnePulse_Start_IT
                0x00000000       0x98 build/stm32f4xx_hal_tim.o
 .text.HAL_TIM_OnePulse_Stop_IT
                0x00000000       0x94 build/stm32f4xx_hal_tim.o
 .text.HAL_TIM_Encoder_Start
                0x00000000       0xcc build/stm32f4xx_hal_tim.o
 .text.HAL_TIM_Encoder_Stop
                0x00000000       0xc4 build/stm32f4xx_hal_tim.o
 .text.HAL_TIM_Encoder_Start_IT
                0x00000000       0xf6 build/stm32f4xx_hal_tim.o
 .text.HAL_TIM_Encoder_Stop_IT
                0x00000000       0xee build/stm32f4xx_hal_tim.o
 .text.HAL_TIM_Encoder_Start_DMA
                0x00000000      0x264 build/stm32f4xx_hal_tim.o
 .text.HAL_TIM_Encoder_Stop_DMA
                0x00000000      0x106 build/stm32f4xx_hal_tim.o
 .text          0x00000000        0x0 build/stm32f4xx_hal_tim_ex.o
 .data          0x00000000        0x0 build/stm32f4xx_hal_tim_ex.o
 .bss           0x00000000        0x0 build/stm32f4xx_hal_tim_ex.o
 .text.TIM_CCxNChannelCmd
                0x00000000       0x1e build/stm32f4xx_hal_tim_ex.o
 .text.TIM_DMAErrorCCxN
                0x00000000       0x44 build/stm32f4xx_hal_tim_ex.o
 .text.TIM_DMADelayPulseNCplt
                0x00000000       0x58 build/stm32f4xx_hal_tim_ex.o
 .text.HAL_TIMEx_HallSensor_MspInit
                0x00000000        0x2 build/stm32f4xx_hal_tim_ex.o
 .text.HAL_TIMEx_HallSensor_Init
                0x00000000       0xd4 build/stm32f4xx_hal_tim_ex.o
 .text.HAL_TIMEx_HallSensor_MspDeInit
                0x00000000        0x2 build/stm32f4xx_hal_tim_ex.o
 .text.HAL_TIMEx_HallSensor_DeInit
                0x00000000       0x4e build/stm32f4xx_hal_tim_ex.o
 .text.HAL_TIMEx_HallSensor_Start
                0x00000000       0xbc build/stm32f4xx_hal_tim_ex.o
 .text.HAL_TIMEx_HallSensor_Stop
                0x00000000       0x42 build/stm32f4xx_hal_tim_ex.o
 .text.HAL_TIMEx_HallSensor_Start_IT
                0x00000000       0xc8 build/stm32f4xx_hal_tim_ex.o
 .text.HAL_TIMEx_HallSensor_Stop_IT
                0x00000000       0x4c build/stm32f4xx_hal_tim_ex.o
 .text.HAL_TIMEx_HallSensor_Start_DMA
                0x00000000       0xf0 build/stm32f4xx_hal_tim_ex.o
 .text.HAL_TIMEx_HallSensor_Stop_DMA
                0x00000000       0x4a build/stm32f4xx_hal_tim_ex.o
 .text.HAL_TIMEx_OCN_Start
                0x00000000       0xf8 build/stm32f4xx_hal_tim_ex.o
 .text.HAL_TIMEx_OCN_Stop
                0x00000000       0x76 build/stm32f4xx_hal_tim_ex.o
 .text.HAL_TIMEx_OCN_Start_IT
                0x00000000      0x130 build/stm32f4xx_hal_tim_ex.o
 .text.HAL_TIMEx_OCN_Stop_IT
                0x00000000       0xc2 build/stm32f4xx_hal_tim_ex.o
 .text.HAL_TIMEx_OCN_Start_DMA
                0x00000000      0x21c build/stm32f4xx_hal_tim_ex.o
 .text.HAL_TIMEx_OCN_Stop_DMA
                0x00000000       0xc0 build/stm32f4xx_hal_tim_ex.o
 .text.HAL_TIMEx_PWMN_Start
                0x00000000       0xf8 build/stm32f4xx_hal_tim_ex.o
 .text.HAL_TIMEx_PWMN_Stop
                0x00000000       0x76 build/stm32f4xx_hal_tim_ex.o
 .text.HAL_TIMEx_PWMN_Start_IT
                0x00000000      0x130 build/stm32f4xx_hal_tim_ex.o
 .text.HAL_TIMEx_PWMN_Stop_IT
                0x00000000       0xc2 build/stm32f4xx_hal_tim_ex.o
 .text.HAL_TIMEx_PWMN_Start_DMA
                0x00000000      0x21c build/stm32f4xx_hal_tim_ex.o
 .text.HAL_TIMEx_PWMN_Stop_DMA
                0x00000000       0xc0 build/stm32f4xx_hal_tim_ex.o
 .text.HAL_TIMEx_OnePulseN_Start
                0x00000000       0x7a build/stm32f4xx_hal_tim_ex.o
 .text.HAL_TIMEx_OnePulseN_Stop
                0x00000000       0x72 build/stm32f4xx_hal_tim_ex.o
 .text.HAL_TIMEx_OnePulseN_Start_IT
                0x00000000       0x8e build/stm32f4xx_hal_tim_ex.o
 .text.HAL_TIMEx_OnePulseN_Stop_IT
                0x00000000       0x86 build/stm32f4xx_hal_tim_ex.o
 .text.HAL_TIMEx_ConfigCommutEvent
                0x00000000       0x72 build/stm32f4xx_hal_tim_ex.o
 .text.HAL_TIMEx_ConfigCommutEvent_IT
                0x00000000       0x72 build/stm32f4xx_hal_tim_ex.o
 .text.HAL_TIMEx_ConfigCommutEvent_DMA
                0x00000000       0x90 build/stm32f4xx_hal_tim_ex.o
 .text.HAL_TIMEx_ConfigBreakDeadTime
                0x00000000       0x52 build/stm32f4xx_hal_tim_ex.o
 .text.HAL_TIMEx_RemapConfig
                0x00000000       0x20 build/stm32f4xx_hal_tim_ex.o
 .text.TIMEx_DMACommutationCplt
                0x00000000       0x10 build/stm32f4xx_hal_tim_ex.o
 .text.HAL_TIMEx_CommutHalfCpltCallback
                0x00000000        0x2 build/stm32f4xx_hal_tim_ex.o
 .text.TIMEx_DMACommutationHalfCplt
                0x00000000       0x10 build/stm32f4xx_hal_tim_ex.o
 .text.HAL_TIMEx_HallSensor_GetState
                0x00000000        0x6 build/stm32f4xx_hal_tim_ex.o
 .text.HAL_TIMEx_GetChannelNState
                0x00000000       0x2a build/stm32f4xx_hal_tim_ex.o
 .text          0x00000000        0x0 build/stm32f4xx_hal_rcc.o
 .data          0x00000000        0x0 build/stm32f4xx_hal_rcc.o
 .bss           0x00000000        0x0 build/stm32f4xx_hal_rcc.o
 .text.HAL_RCC_DeInit
                0x00000000        0x4 build/stm32f4xx_hal_rcc.o
 .text.HAL_RCC_MCOConfig
                0x00000000       0x9c build/stm32f4xx_hal_rcc.o
 .text.HAL_RCC_EnableCSS
                0x00000000        0xc build/stm32f4xx_hal_rcc.o
 .text.HAL_RCC_DisableCSS
                0x00000000        0xc build/stm32f4xx_hal_rcc.o
 .text.HAL_RCC_GetOscConfig
                0x00000000       0xcc build/stm32f4xx_hal_rcc.o
 .text.HAL_RCC_CSSCallback
                0x00000000        0x2 build/stm32f4xx_hal_rcc.o
 .text.HAL_RCC_NMI_IRQHandler
                0x00000000       0x20 build/stm32f4xx_hal_rcc.o
 .text          0x00000000        0x0 build/stm32f4xx_hal_rcc_ex.o
 .data          0x00000000        0x0 build/stm32f4xx_hal_rcc_ex.o
 .bss           0x00000000        0x0 build/stm32f4xx_hal_rcc_ex.o
 .text.HAL_RCCEx_PeriphCLKConfig
                0x00000000      0x284 build/stm32f4xx_hal_rcc_ex.o
 .text.HAL_RCCEx_GetPeriphCLKConfig
                0x00000000       0x90 build/stm32f4xx_hal_rcc_ex.o
 .text.HAL_RCCEx_GetPeriphCLKFreq
                0x00000000       0x70 build/stm32f4xx_hal_rcc_ex.o
 .text.HAL_RCCEx_EnablePLLI2S
                0x00000000       0x70 build/stm32f4xx_hal_rcc_ex.o
 .text.HAL_RCCEx_DisablePLLI2S
                0x00000000       0x34 build/stm32f4xx_hal_rcc_ex.o
 .text.HAL_RCCEx_EnablePLLSAI
                0x00000000       0x70 build/stm32f4xx_hal_rcc_ex.o
 .text.HAL_RCCEx_DisablePLLSAI
                0x00000000       0x34 build/stm32f4xx_hal_rcc_ex.o
 .text.HAL_RCC_DeInit
                0x00000000      0x17c build/stm32f4xx_hal_rcc_ex.o
 .debug_info    0x00000000      0x8b5 build/stm32f4xx_hal_rcc_ex.o
 .debug_abbrev  0x00000000      0x1a1 build/stm32f4xx_hal_rcc_ex.o
 .debug_loc     0x00000000      0x5ba build/stm32f4xx_hal_rcc_ex.o
 .debug_aranges
                0x00000000       0x58 build/stm32f4xx_hal_rcc_ex.o
 .debug_ranges  0x00000000       0x48 build/stm32f4xx_hal_rcc_ex.o
 .debug_line    0x00000000      0x809 build/stm32f4xx_hal_rcc_ex.o
 .debug_str     0x00000000      0x583 build/stm32f4xx_hal_rcc_ex.o
 .comment       0x00000000       0x4a build/stm32f4xx_hal_rcc_ex.o
 .debug_frame   0x00000000       0xd8 build/stm32f4xx_hal_rcc_ex.o
 .ARM.attributes
                0x00000000       0x34 build/stm32f4xx_hal_rcc_ex.o
 .text          0x00000000        0x0 build/stm32f4xx_hal_flash.o
 .data          0x00000000        0x0 build/stm32f4xx_hal_flash.o
 .bss           0x00000000        0x0 build/stm32f4xx_hal_flash.o
 .text.FLASH_Program_DoubleWord
                0x00000000       0x30 build/stm32f4xx_hal_flash.o
 .text.FLASH_Program_Word
                0x00000000       0x24 build/stm32f4xx_hal_flash.o
 .text.FLASH_Program_HalfWord
                0x00000000       0x24 build/stm32f4xx_hal_flash.o
 .text.FLASH_Program_Byte
                0x00000000       0x20 build/stm32f4xx_hal_flash.o
 .text.FLASH_SetErrorCode
                0x00000000       0xa8 build/stm32f4xx_hal_flash.o
 .text.HAL_FLASH_Program_IT
                0x00000000       0x68 build/stm32f4xx_hal_flash.o
 .text.HAL_FLASH_EndOfOperationCallback
                0x00000000        0x2 build/stm32f4xx_hal_flash.o
 .text.HAL_FLASH_OperationErrorCallback
                0x00000000        0x2 build/stm32f4xx_hal_flash.o
 .text.HAL_FLASH_IRQHandler
                0x00000000       0xf8 build/stm32f4xx_hal_flash.o
 .text.HAL_FLASH_Unlock
                0x00000000       0x30 build/stm32f4xx_hal_flash.o
 .text.HAL_FLASH_Lock
                0x00000000       0x14 build/stm32f4xx_hal_flash.o
 .text.HAL_FLASH_OB_Unlock
                0x00000000       0x28 build/stm32f4xx_hal_flash.o
 .text.HAL_FLASH_OB_Lock
                0x00000000       0x14 build/stm32f4xx_hal_flash.o
 .text.HAL_FLASH_GetError
                0x00000000        0xc build/stm32f4xx_hal_flash.o
 .text.FLASH_WaitForLastOperation
                0x00000000       0x60 build/stm32f4xx_hal_flash.o
 .text.HAL_FLASH_Program
                0x00000000       0x7c build/stm32f4xx_hal_flash.o
 .text.HAL_FLASH_OB_Launch
                0x00000000       0x1c build/stm32f4xx_hal_flash.o
 .bss.pFlash    0x00000000       0x20 build/stm32f4xx_hal_flash.o
 .debug_info    0x00000000      0x7c9 build/stm32f4xx_hal_flash.o
 .debug_abbrev  0x00000000      0x2c4 build/stm32f4xx_hal_flash.o
 .debug_loc     0x00000000      0x498 build/stm32f4xx_hal_flash.o
 .debug_aranges
                0x00000000       0xa0 build/stm32f4xx_hal_flash.o
 .debug_ranges  0x00000000       0x90 build/stm32f4xx_hal_flash.o
 .debug_line    0x00000000      0x733 build/stm32f4xx_hal_flash.o
 .debug_str     0x00000000      0x54a build/stm32f4xx_hal_flash.o
 .comment       0x00000000       0x4a build/stm32f4xx_hal_flash.o
 .debug_frame   0x00000000      0x168 build/stm32f4xx_hal_flash.o
 .ARM.attributes
                0x00000000       0x34 build/stm32f4xx_hal_flash.o
 .text          0x00000000        0x0 build/stm32f4xx_hal_flash_ex.o
 .data          0x00000000        0x0 build/stm32f4xx_hal_flash_ex.o
 .bss           0x00000000        0x0 build/stm32f4xx_hal_flash_ex.o
 .text.FLASH_MassErase
                0x00000000       0x4c build/stm32f4xx_hal_flash_ex.o
 .text.FLASH_OB_BOR_LevelConfig
                0x00000000       0x18 build/stm32f4xx_hal_flash_ex.o
 .text.FLASH_OB_GetUser
                0x00000000       0x10 build/stm32f4xx_hal_flash_ex.o
 .text.FLASH_OB_GetWRP
                0x00000000        0xc build/stm32f4xx_hal_flash_ex.o
 .text.FLASH_OB_GetRDP
                0x00000000       0x1c build/stm32f4xx_hal_flash_ex.o
 .text.FLASH_OB_GetBOR
                0x00000000       0x10 build/stm32f4xx_hal_flash_ex.o
 .text.FLASH_OB_EnableWRP
                0x00000000       0x84 build/stm32f4xx_hal_flash_ex.o
 .text.FLASH_OB_DisableWRP
                0x00000000       0x88 build/stm32f4xx_hal_flash_ex.o
 .text.FLASH_OB_RDP_LevelConfig
                0x00000000       0x18 build/stm32f4xx_hal_flash_ex.o
 .text.FLASH_OB_UserConfig
                0x00000000       0x2c build/stm32f4xx_hal_flash_ex.o
 .text.FLASH_OB_EnablePCROP
                0x00000000       0x58 build/stm32f4xx_hal_flash_ex.o
 .text.FLASH_OB_DisablePCROP
                0x00000000       0x58 build/stm32f4xx_hal_flash_ex.o
 .text.FLASH_OB_BootConfig
                0x00000000       0x24 build/stm32f4xx_hal_flash_ex.o
 .text.HAL_FLASHEx_OBProgram
                0x00000000       0x84 build/stm32f4xx_hal_flash_ex.o
 .text.HAL_FLASHEx_OBGetConfig
                0x00000000       0x22 build/stm32f4xx_hal_flash_ex.o
 .text.HAL_FLASHEx_AdvOBProgram
                0x00000000       0x3e build/stm32f4xx_hal_flash_ex.o
 .text.HAL_FLASHEx_AdvOBGetConfig
                0x00000000       0x14 build/stm32f4xx_hal_flash_ex.o
 .text.HAL_FLASHEx_OB_SelectPCROP
                0x00000000       0x14 build/stm32f4xx_hal_flash_ex.o
 .text.HAL_FLASHEx_OB_DeSelectPCROP
                0x00000000       0x14 build/stm32f4xx_hal_flash_ex.o
 .text.HAL_FLASHEx_OB_GetBank2WRP
                0x00000000        0xc build/stm32f4xx_hal_flash_ex.o
 .text.FLASH_Erase_Sector
                0x00000000       0x5c build/stm32f4xx_hal_flash_ex.o
 .text.HAL_FLASHEx_Erase_IT
                0x00000000       0x6c build/stm32f4xx_hal_flash_ex.o
 .text.FLASH_FlushCaches
                0x00000000       0x60 build/stm32f4xx_hal_flash_ex.o
 .text.HAL_FLASHEx_Erase
                0x00000000       0x98 build/stm32f4xx_hal_flash_ex.o
 .debug_info    0x00000000      0xc0f build/stm32f4xx_hal_flash_ex.o
 .debug_abbrev  0x00000000      0x2cc build/stm32f4xx_hal_flash_ex.o
 .debug_loc     0x00000000      0xa0d build/stm32f4xx_hal_flash_ex.o
 .debug_aranges
                0x00000000       0xd8 build/stm32f4xx_hal_flash_ex.o
 .debug_ranges  0x00000000       0xc8 build/stm32f4xx_hal_flash_ex.o
 .debug_line    0x00000000      0xa24 build/stm32f4xx_hal_flash_ex.o
 .debug_str     0x00000000      0x6d1 build/stm32f4xx_hal_flash_ex.o
 .comment       0x00000000       0x4a build/stm32f4xx_hal_flash_ex.o
 .debug_frame   0x00000000      0x214 build/stm32f4xx_hal_flash_ex.o
 .ARM.attributes
                0x00000000       0x34 build/stm32f4xx_hal_flash_ex.o
 .text          0x00000000        0x0 build/stm32f4xx_hal_flash_ramfunc.o
 .data          0x00000000        0x0 build/stm32f4xx_hal_flash_ramfunc.o
 .bss           0x00000000        0x0 build/stm32f4xx_hal_flash_ramfunc.o
 .debug_info    0x00000000       0x6b build/stm32f4xx_hal_flash_ramfunc.o
 .debug_abbrev  0x00000000       0x26 build/stm32f4xx_hal_flash_ramfunc.o
 .debug_aranges
                0x00000000       0x18 build/stm32f4xx_hal_flash_ramfunc.o
 .debug_line    0x00000000       0x1d build/stm32f4xx_hal_flash_ramfunc.o
 .debug_str     0x00000000      0x1ba build/stm32f4xx_hal_flash_ramfunc.o
 .comment       0x00000000       0x4a build/stm32f4xx_hal_flash_ramfunc.o
 .ARM.attributes
                0x00000000       0x34 build/stm32f4xx_hal_flash_ramfunc.o
 .text          0x00000000        0x0 build/stm32f4xx_hal_gpio.o
 .data          0x00000000        0x0 build/stm32f4xx_hal_gpio.o
 .bss           0x00000000        0x0 build/stm32f4xx_hal_gpio.o
 .text.HAL_GPIO_DeInit
                0x00000000      0x14c build/stm32f4xx_hal_gpio.o
 .text.HAL_GPIO_ReadPin
                0x00000000        0xe build/stm32f4xx_hal_gpio.o
 .text.HAL_GPIO_TogglePin
                0x00000000       0x12 build/stm32f4xx_hal_gpio.o
 .text.HAL_GPIO_LockPin
                0x00000000       0x2e build/stm32f4xx_hal_gpio.o
 .text.HAL_GPIO_EXTI_Callback
                0x00000000        0x2 build/stm32f4xx_hal_gpio.o
 .text.HAL_GPIO_EXTI_IRQHandler
                0x00000000       0x1c build/stm32f4xx_hal_gpio.o
 .text          0x00000000        0x0 build/stm32f4xx_hal_dma_ex.o
 .data          0x00000000        0x0 build/stm32f4xx_hal_dma_ex.o
 .bss           0x00000000        0x0 build/stm32f4xx_hal_dma_ex.o
 .text.DMA_MultiBufferSetConfig
                0x00000000       0x24 build/stm32f4xx_hal_dma_ex.o
 .text.HAL_DMAEx_MultiBufferStart
                0x00000000       0x5e build/stm32f4xx_hal_dma_ex.o
 .text.HAL_DMAEx_MultiBufferStart_IT
                0x00000000      0xf00 build/stm32f4xx_hal_dma_ex.o
 .text.HAL_DMAEx_ChangeMemory
                0x00000000       0x10 build/stm32f4xx_hal_dma_ex.o
 .debug_info    0x00000000      0x60b build/stm32f4xx_hal_dma_ex.o
 .debug_abbrev  0x00000000      0x1d6 build/stm32f4xx_hal_dma_ex.o
 .debug_loc     0x00000000      0x49a build/stm32f4xx_hal_dma_ex.o
 .debug_aranges
                0x00000000       0x38 build/stm32f4xx_hal_dma_ex.o
 .debug_ranges  0x00000000       0x28 build/stm32f4xx_hal_dma_ex.o
 .debug_line    0x00000000      0x9c0 build/stm32f4xx_hal_dma_ex.o
 .debug_str     0x00000000      0x549 build/stm32f4xx_hal_dma_ex.o
 .comment       0x00000000       0x4a build/stm32f4xx_hal_dma_ex.o
 .debug_frame   0x00000000       0x74 build/stm32f4xx_hal_dma_ex.o
 .ARM.attributes
                0x00000000       0x34 build/stm32f4xx_hal_dma_ex.o
 .text          0x00000000        0x0 build/stm32f4xx_hal_dma.o
 .data          0x00000000        0x0 build/stm32f4xx_hal_dma.o
 .bss           0x00000000        0x0 build/stm32f4xx_hal_dma.o
 .text.HAL_DMA_DeInit
                0x00000000       0x64 build/stm32f4xx_hal_dma.o
 .text.HAL_DMA_Start
                0x00000000       0x48 build/stm32f4xx_hal_dma.o
 .text.HAL_DMA_PollForTransfer
                0x00000000      0x128 build/stm32f4xx_hal_dma.o
 .text.HAL_DMA_RegisterCallback
                0x00000000       0x5a build/stm32f4xx_hal_dma.o
 .text.HAL_DMA_UnRegisterCallback
                0x00000000       0x6e build/stm32f4xx_hal_dma.o
 .text.HAL_DMA_GetState
                0x00000000        0x6 build/stm32f4xx_hal_dma.o
 .text.HAL_DMA_GetError
                0x00000000        0x4 build/stm32f4xx_hal_dma.o
 .text          0x00000000        0x0 build/stm32f4xx_hal_pwr.o
 .data          0x00000000        0x0 build/stm32f4xx_hal_pwr.o
 .bss           0x00000000        0x0 build/stm32f4xx_hal_pwr.o
 .text.HAL_PWR_DeInit
                0x00000000       0x18 build/stm32f4xx_hal_pwr.o
 .text.HAL_PWR_EnableBkUpAccess
                0x00000000       0x1c build/stm32f4xx_hal_pwr.o
 .text.HAL_PWR_DisableBkUpAccess
                0x00000000       0x1c build/stm32f4xx_hal_pwr.o
 .text.HAL_PWR_ConfigPVD
                0x00000000       0x84 build/stm32f4xx_hal_pwr.o
 .text.HAL_PWR_EnablePVD
                0x00000000        0xc build/stm32f4xx_hal_pwr.o
 .text.HAL_PWR_DisablePVD
                0x00000000        0xc build/stm32f4xx_hal_pwr.o
 .text.HAL_PWR_EnableWakeUpPin
                0x00000000       0x10 build/stm32f4xx_hal_pwr.o
 .text.HAL_PWR_DisableWakeUpPin
                0x00000000       0x10 build/stm32f4xx_hal_pwr.o
 .text.HAL_PWR_EnterSLEEPMode
                0x00000000       0x24 build/stm32f4xx_hal_pwr.o
 .text.HAL_PWR_EnterSTOPMode
                0x00000000       0x3c build/stm32f4xx_hal_pwr.o
 .text.HAL_PWR_EnterSTANDBYMode
                0x00000000       0x20 build/stm32f4xx_hal_pwr.o
 .text.HAL_PWR_PVDCallback
                0x00000000        0x2 build/stm32f4xx_hal_pwr.o
 .text.HAL_PWR_PVD_IRQHandler
                0x00000000       0x20 build/stm32f4xx_hal_pwr.o
 .text.HAL_PWR_EnableSleepOnExit
                0x00000000       0x10 build/stm32f4xx_hal_pwr.o
 .text.HAL_PWR_DisableSleepOnExit
                0x00000000       0x10 build/stm32f4xx_hal_pwr.o
 .text.HAL_PWR_EnableSEVOnPend
                0x00000000       0x10 build/stm32f4xx_hal_pwr.o
 .text.HAL_PWR_DisableSEVOnPend
                0x00000000       0x10 build/stm32f4xx_hal_pwr.o
 .debug_info    0x00000000      0x81a build/stm32f4xx_hal_pwr.o
 .debug_abbrev  0x00000000      0x19e build/stm32f4xx_hal_pwr.o
 .debug_loc     0x00000000       0x78 build/stm32f4xx_hal_pwr.o
 .debug_aranges
                0x00000000       0xa0 build/stm32f4xx_hal_pwr.o
 .debug_ranges  0x00000000       0x90 build/stm32f4xx_hal_pwr.o
 .debug_line    0x00000000      0x3e8 build/stm32f4xx_hal_pwr.o
 .debug_str     0x00000000      0x554 build/stm32f4xx_hal_pwr.o
 .comment       0x00000000       0x4a build/stm32f4xx_hal_pwr.o
 .debug_frame   0x00000000      0x138 build/stm32f4xx_hal_pwr.o
 .ARM.attributes
                0x00000000       0x34 build/stm32f4xx_hal_pwr.o
 .text          0x00000000        0x0 build/stm32f4xx_hal_pwr_ex.o
 .data          0x00000000        0x0 build/stm32f4xx_hal_pwr_ex.o
 .bss           0x00000000        0x0 build/stm32f4xx_hal_pwr_ex.o
 .text.HAL_PWREx_EnableBkUpReg
                0x00000000       0x38 build/stm32f4xx_hal_pwr_ex.o
 .text.HAL_PWREx_DisableBkUpReg
                0x00000000       0x38 build/stm32f4xx_hal_pwr_ex.o
 .text.HAL_PWREx_EnableFlashPowerDown
                0x00000000        0xc build/stm32f4xx_hal_pwr_ex.o
 .text.HAL_PWREx_DisableFlashPowerDown
                0x00000000        0xc build/stm32f4xx_hal_pwr_ex.o
 .text.HAL_PWREx_GetVoltageRange
                0x00000000       0x10 build/stm32f4xx_hal_pwr_ex.o
 .text.HAL_PWREx_ControlVoltageScaling
                0x00000000       0xc0 build/stm32f4xx_hal_pwr_ex.o
 .text.HAL_PWREx_DisableOverDrive
                0x00000000       0x78 build/stm32f4xx_hal_pwr_ex.o
 .text.HAL_PWREx_EnterUnderDriveSTOPMode
                0x00000000       0x70 build/stm32f4xx_hal_pwr_ex.o
 .text          0x00000000        0x0 build/stm32f4xx_hal_cortex.o
 .data          0x00000000        0x0 build/stm32f4xx_hal_cortex.o
 .bss           0x00000000        0x0 build/stm32f4xx_hal_cortex.o
 .text.HAL_NVIC_DisableIRQ
                0x00000000       0x24 build/stm32f4xx_hal_cortex.o
 .text.HAL_NVIC_SystemReset
                0x00000000       0x24 build/stm32f4xx_hal_cortex.o
 .text.HAL_SYSTICK_Config
                0x00000000       0x28 build/stm32f4xx_hal_cortex.o
 .text.HAL_MPU_Disable
                0x00000000       0x1c build/stm32f4xx_hal_cortex.o
 .text.HAL_MPU_Enable
                0x00000000       0x20 build/stm32f4xx_hal_cortex.o
 .text.HAL_MPU_ConfigRegion
                0x00000000       0x60 build/stm32f4xx_hal_cortex.o
 .text.HAL_CORTEX_ClearEvent
                0x00000000        0x6 build/stm32f4xx_hal_cortex.o
 .text.HAL_NVIC_GetPriorityGrouping
                0x00000000       0x10 build/stm32f4xx_hal_cortex.o
 .text.HAL_NVIC_GetPriority
                0x00000000       0x60 build/stm32f4xx_hal_cortex.o
 .text.HAL_NVIC_SetPendingIRQ
                0x00000000       0x1c build/stm32f4xx_hal_cortex.o
 .text.HAL_NVIC_GetPendingIRQ
                0x00000000       0x24 build/stm32f4xx_hal_cortex.o
 .text.HAL_NVIC_ClearPendingIRQ
                0x00000000       0x1c build/stm32f4xx_hal_cortex.o
 .text.HAL_NVIC_GetActive
                0x00000000       0x24 build/stm32f4xx_hal_cortex.o
 .text.HAL_SYSTICK_CLKSourceConfig
                0x00000000       0x20 build/stm32f4xx_hal_cortex.o
 .text.HAL_SYSTICK_Callback
                0x00000000        0x2 build/stm32f4xx_hal_cortex.o
 .text.HAL_SYSTICK_IRQHandler
                0x00000000        0x8 build/stm32f4xx_hal_cortex.o
 .text          0x00000000        0x0 build/stm32f4xx_hal.o
 .data          0x00000000        0x0 build/stm32f4xx_hal.o
 .bss           0x00000000        0x0 build/stm32f4xx_hal.o
 .text.HAL_MspInit
                0x00000000        0x2 build/stm32f4xx_hal.o
 .text.HAL_MspDeInit
                0x00000000        0x2 build/stm32f4xx_hal.o
 .text.HAL_DeInit
                0x00000000       0x3c build/stm32f4xx_hal.o
 .text.HAL_InitTick
                0x00000000       0x4c build/stm32f4xx_hal.o
 .text.HAL_GetTickPrio
                0x00000000        0xc build/stm32f4xx_hal.o
 .text.HAL_SetTickFreq
                0x00000000       0x2c build/stm32f4xx_hal.o
 .text.HAL_GetTickFreq
                0x00000000        0xc build/stm32f4xx_hal.o
 .text.HAL_SuspendTick
                0x00000000        0xe build/stm32f4xx_hal.o
 .text.HAL_ResumeTick
                0x00000000        0xe build/stm32f4xx_hal.o
 .text.HAL_GetHalVersion
                0x00000000        0x8 build/stm32f4xx_hal.o
 .text.HAL_GetREVID
                0x00000000        0xc build/stm32f4xx_hal.o
 .text.HAL_GetDEVID
                0x00000000       0x10 build/stm32f4xx_hal.o
 .text.HAL_DBGMCU_EnableDBGSleepMode
                0x00000000       0x10 build/stm32f4xx_hal.o
 .text.HAL_DBGMCU_DisableDBGSleepMode
                0x00000000       0x10 build/stm32f4xx_hal.o
 .text.HAL_DBGMCU_EnableDBGStopMode
                0x00000000       0x10 build/stm32f4xx_hal.o
 .text.HAL_DBGMCU_DisableDBGStopMode
                0x00000000       0x10 build/stm32f4xx_hal.o
 .text.HAL_DBGMCU_EnableDBGStandbyMode
                0x00000000       0x10 build/stm32f4xx_hal.o
 .text.HAL_DBGMCU_DisableDBGStandbyMode
                0x00000000       0x10 build/stm32f4xx_hal.o
 .text.HAL_EnableCompensationCell
                0x00000000       0x10 build/stm32f4xx_hal.o
 .text.HAL_DisableCompensationCell
                0x00000000       0x10 build/stm32f4xx_hal.o
 .text.HAL_GetUIDw0
                0x00000000        0xc build/stm32f4xx_hal.o
 .text.HAL_GetUIDw1
                0x00000000        0xc build/stm32f4xx_hal.o
 .text.HAL_GetUIDw2
                0x00000000        0xc build/stm32f4xx_hal.o
 .text.HAL_EnableMemorySwappingBank
                0x00000000        0xc build/stm32f4xx_hal.o
 .text.HAL_DisableMemorySwappingBank
                0x00000000        0xc build/stm32f4xx_hal.o
 .text          0x00000000        0x0 build/stm32f4xx_hal_exti.o
 .data          0x00000000        0x0 build/stm32f4xx_hal_exti.o
 .bss           0x00000000        0x0 build/stm32f4xx_hal_exti.o
 .text.HAL_EXTI_SetConfigLine
                0x00000000       0xd8 build/stm32f4xx_hal_exti.o
 .text.HAL_EXTI_GetConfigLine
                0x00000000       0xa8 build/stm32f4xx_hal_exti.o
 .text.HAL_EXTI_ClearConfigLine
                0x00000000       0x88 build/stm32f4xx_hal_exti.o
 .text.HAL_EXTI_RegisterCallback
                0x00000000        0xe build/stm32f4xx_hal_exti.o
 .text.HAL_EXTI_GetHandle
                0x00000000        0xc build/stm32f4xx_hal_exti.o
 .text.HAL_EXTI_IRQHandler
                0x00000000       0x24 build/stm32f4xx_hal_exti.o
 .text.HAL_EXTI_GetPending
                0x00000000       0x1c build/stm32f4xx_hal_exti.o
 .text.HAL_EXTI_ClearPending
                0x00000000       0x14 build/stm32f4xx_hal_exti.o
 .text.HAL_EXTI_GenerateSWI
                0x00000000       0x14 build/stm32f4xx_hal_exti.o
 .debug_info    0x00000000      0x613 build/stm32f4xx_hal_exti.o
 .debug_abbrev  0x00000000      0x200 build/stm32f4xx_hal_exti.o
 .debug_loc     0x00000000      0x550 build/stm32f4xx_hal_exti.o
 .debug_aranges
                0x00000000       0x60 build/stm32f4xx_hal_exti.o
 .debug_ranges  0x00000000       0x50 build/stm32f4xx_hal_exti.o
 .debug_line    0x00000000      0x5b5 build/stm32f4xx_hal_exti.o
 .debug_str     0x00000000      0x3e1 build/stm32f4xx_hal_exti.o
 .comment       0x00000000       0x4a build/stm32f4xx_hal_exti.o
 .debug_frame   0x00000000       0xe8 build/stm32f4xx_hal_exti.o
 .ARM.attributes
                0x00000000       0x34 build/stm32f4xx_hal_exti.o
 .text          0x00000000        0x0 build/stm32f4xx_hal_uart.o
 .data          0x00000000        0x0 build/stm32f4xx_hal_uart.o
 .bss           0x00000000        0x0 build/stm32f4xx_hal_uart.o
 .text.UART_WaitOnFlagUntilTimeout
                0x00000000       0x8a build/stm32f4xx_hal_uart.o
 .text.HAL_UART_MspInit
                0x00000000        0x2 build/stm32f4xx_hal_uart.o
 .text.HAL_HalfDuplex_Init
                0x00000000       0x6c build/stm32f4xx_hal_uart.o
 .text.HAL_LIN_Init
                0x00000000       0x82 build/stm32f4xx_hal_uart.o
 .text.HAL_MultiProcessor_Init
                0x00000000       0x8c build/stm32f4xx_hal_uart.o
 .text.HAL_UART_MspDeInit
                0x00000000        0x2 build/stm32f4xx_hal_uart.o
 .text.HAL_UART_DeInit
                0x00000000       0x34 build/stm32f4xx_hal_uart.o
 .text.HAL_UART_Transmit
                0x00000000       0xcc build/stm32f4xx_hal_uart.o
 .text.HAL_UART_Receive
                0x00000000       0xd2 build/stm32f4xx_hal_uart.o
 .text.HAL_UART_Transmit_IT
                0x00000000       0x38 build/stm32f4xx_hal_uart.o
 .text.HAL_UART_DMAPause
                0x00000000       0x94 build/stm32f4xx_hal_uart.o
 .text.HAL_UART_DMAResume
                0x00000000       0x96 build/stm32f4xx_hal_uart.o
 .text.HAL_UART_DMAStop
                0x00000000       0x84 build/stm32f4xx_hal_uart.o
 .text.HAL_UARTEx_ReceiveToIdle
                0x00000000      0x120 build/stm32f4xx_hal_uart.o
 .text.HAL_UARTEx_GetRxEventType
                0x00000000        0x4 build/stm32f4xx_hal_uart.o
 .text.HAL_UART_Abort
                0x00000000       0xf2 build/stm32f4xx_hal_uart.o
 .text.HAL_UART_AbortTransmit
                0x00000000       0x6c build/stm32f4xx_hal_uart.o
 .text.HAL_UART_AbortReceive
                0x00000000       0xa6 build/stm32f4xx_hal_uart.o
 .text.HAL_UART_RxHalfCpltCallback
                0x00000000        0x2 build/stm32f4xx_hal_uart.o
 .text.HAL_UART_AbortCpltCallback
                0x00000000        0x2 build/stm32f4xx_hal_uart.o
 .text.HAL_UART_Abort_IT
                0x00000000      0x124 build/stm32f4xx_hal_uart.o
 .text.UART_DMARxAbortCallback
                0x00000000       0x2c build/stm32f4xx_hal_uart.o
 .text.UART_DMATxAbortCallback
                0x00000000       0x2c build/stm32f4xx_hal_uart.o
 .text.HAL_UART_AbortTransmitCpltCallback
                0x00000000        0x2 build/stm32f4xx_hal_uart.o
 .text.HAL_UART_AbortTransmit_IT
                0x00000000       0x80 build/stm32f4xx_hal_uart.o
 .text.UART_DMATxOnlyAbortCallback
                0x00000000       0x14 build/stm32f4xx_hal_uart.o
 .text.HAL_UART_AbortReceiveCpltCallback
                0x00000000        0x2 build/stm32f4xx_hal_uart.o
 .text.HAL_UART_AbortReceive_IT
                0x00000000       0xbc build/stm32f4xx_hal_uart.o
 .text.UART_DMARxOnlyAbortCallback
                0x00000000       0x16 build/stm32f4xx_hal_uart.o
 .text.UART_DMARxHalfCplt
                0x00000000       0x1e build/stm32f4xx_hal_uart.o
 .text.UART_DMAReceiveCplt
                0x00000000       0x9a build/stm32f4xx_hal_uart.o
 .text.HAL_LIN_SendBreak
                0x00000000       0x40 build/stm32f4xx_hal_uart.o
 .text.HAL_MultiProcessor_EnterMuteMode
                0x00000000       0x42 build/stm32f4xx_hal_uart.o
 .text.HAL_MultiProcessor_ExitMuteMode
                0x00000000       0x42 build/stm32f4xx_hal_uart.o
 .text.HAL_HalfDuplex_EnableTransmitter
                0x00000000       0x36 build/stm32f4xx_hal_uart.o
 .text.HAL_HalfDuplex_EnableReceiver
                0x00000000       0x36 build/stm32f4xx_hal_uart.o
 .text.HAL_UART_GetState
                0x00000000        0xc build/stm32f4xx_hal_uart.o
 .text.HAL_UART_GetError
                0x00000000        0x4 build/stm32f4xx_hal_uart.o
 .text.UART_Start_Receive_IT
                0x00000000       0x36 build/stm32f4xx_hal_uart.o
 .text.HAL_UART_Receive_IT
                0x00000000       0x26 build/stm32f4xx_hal_uart.o
 .text.HAL_UARTEx_ReceiveToIdle_IT
                0x00000000       0x66 build/stm32f4xx_hal_uart.o
 .text.UART_Start_Receive_DMA
                0x00000000       0xa4 build/stm32f4xx_hal_uart.o
 .text.HAL_UART_Receive_DMA
                0x00000000       0x26 build/stm32f4xx_hal_uart.o
 .text.HAL_UARTEx_ReceiveToIdle_DMA
                0x00000000       0x66 build/stm32f4xx_hal_uart.o
 .text          0x00000000        0x0 build/arm_sin_f32.o
 .data          0x00000000        0x0 build/arm_sin_f32.o
 .bss           0x00000000        0x0 build/arm_sin_f32.o
 .text.arm_sin_f32
                0x00000000       0x90 build/arm_sin_f32.o
 .debug_info    0x00000000      0x1b9 build/arm_sin_f32.o
 .debug_abbrev  0x00000000       0xce build/arm_sin_f32.o
 .debug_loc     0x00000000      0x12f build/arm_sin_f32.o
 .debug_aranges
                0x00000000       0x20 build/arm_sin_f32.o
 .debug_ranges  0x00000000       0x10 build/arm_sin_f32.o
 .debug_line    0x00000000      0x1d8 build/arm_sin_f32.o
 .debug_str     0x00000000      0x229 build/arm_sin_f32.o
 .comment       0x00000000       0x4a build/arm_sin_f32.o
 .debug_frame   0x00000000       0x20 build/arm_sin_f32.o
 .ARM.attributes
                0x00000000       0x34 build/arm_sin_f32.o
 .text          0x00000000        0x0 build/arm_common_tables.o
 .data          0x00000000        0x0 build/arm_common_tables.o
 .bss           0x00000000        0x0 build/arm_common_tables.o
 .rodata.WeightsQ15_128
                0x00000000      0x200 build/arm_common_tables.o
 .rodata.WeightsQ15_2048
                0x00000000     0x2000 build/arm_common_tables.o
 .rodata.WeightsQ15_512
                0x00000000      0x800 build/arm_common_tables.o
 .rodata.WeightsQ15_8192
                0x00000000     0x8000 build/arm_common_tables.o
 .rodata.WeightsQ31_128
                0x00000000      0x400 build/arm_common_tables.o
 .rodata.WeightsQ31_2048
                0x00000000     0x4000 build/arm_common_tables.o
 .rodata.WeightsQ31_512
                0x00000000     0x1000 build/arm_common_tables.o
 .rodata.WeightsQ31_8192
                0x00000000    0x10000 build/arm_common_tables.o
 .rodata.Weights_128
                0x00000000      0x400 build/arm_common_tables.o
 .rodata.Weights_2048
                0x00000000     0x4000 build/arm_common_tables.o
 .rodata.Weights_512
                0x00000000     0x1000 build/arm_common_tables.o
 .rodata.Weights_8192
                0x00000000    0x10000 build/arm_common_tables.o
 .rodata.armBitRevIndexTable1024
                0x00000000      0xe10 build/arm_common_tables.o
 .rodata.armBitRevIndexTable128
                0x00000000      0x1a0 build/arm_common_tables.o
 .rodata.armBitRevIndexTable16
                0x00000000       0x28 build/arm_common_tables.o
 .rodata.armBitRevIndexTable2048
                0x00000000     0x1dc0 build/arm_common_tables.o
 .rodata.armBitRevIndexTable256
                0x00000000      0x370 build/arm_common_tables.o
 .rodata.armBitRevIndexTable32
                0x00000000       0x60 build/arm_common_tables.o
 .rodata.armBitRevIndexTable4096
                0x00000000     0x1f80 build/arm_common_tables.o
 .rodata.armBitRevIndexTable512
                0x00000000      0x380 build/arm_common_tables.o
 .rodata.armBitRevIndexTable64
                0x00000000       0x70 build/arm_common_tables.o
 .rodata.armBitRevIndexTableF64_1024
                0x00000000      0x7c0 build/arm_common_tables.o
 .rodata.armBitRevIndexTableF64_128
                0x00000000       0xe0 build/arm_common_tables.o
 .rodata.armBitRevIndexTableF64_16
                0x00000000       0x18 build/arm_common_tables.o
 .rodata.armBitRevIndexTableF64_2048
                0x00000000      0xf80 build/arm_common_tables.o
 .rodata.armBitRevIndexTableF64_256
                0x00000000      0x1e0 build/arm_common_tables.o
 .rodata.armBitRevIndexTableF64_32
                0x00000000       0x30 build/arm_common_tables.o
 .rodata.armBitRevIndexTableF64_4096
                0x00000000     0x1f80 build/arm_common_tables.o
 .rodata.armBitRevIndexTableF64_512
                0x00000000      0x3c0 build/arm_common_tables.o
 .rodata.armBitRevIndexTableF64_64
                0x00000000       0x70 build/arm_common_tables.o
 .rodata.armBitRevIndexTable_fixed_1024
                0x00000000      0x7c0 build/arm_common_tables.o
 .rodata.armBitRevIndexTable_fixed_128
                0x00000000       0xe0 build/arm_common_tables.o
 .rodata.armBitRevIndexTable_fixed_16
                0x00000000       0x18 build/arm_common_tables.o
 .rodata.armBitRevIndexTable_fixed_2048
                0x00000000      0xf80 build/arm_common_tables.o
 .rodata.armBitRevIndexTable_fixed_256
                0x00000000      0x1e0 build/arm_common_tables.o
 .rodata.armBitRevIndexTable_fixed_32
                0x00000000       0x30 build/arm_common_tables.o
 .rodata.armBitRevIndexTable_fixed_4096
                0x00000000     0x1f80 build/arm_common_tables.o
 .rodata.armBitRevIndexTable_fixed_512
                0x00000000      0x3c0 build/arm_common_tables.o
 .rodata.armBitRevIndexTable_fixed_64
                0x00000000       0x70 build/arm_common_tables.o
 .rodata.armBitRevTable
                0x00000000      0x800 build/arm_common_tables.o
 .rodata.armRecipTableQ15
                0x00000000       0x80 build/arm_common_tables.o
 .rodata.armRecipTableQ31
                0x00000000      0x100 build/arm_common_tables.o
 .rodata.cos_factorsQ15_128
                0x00000000      0x100 build/arm_common_tables.o
 .rodata.cos_factorsQ15_2048
                0x00000000     0x1000 build/arm_common_tables.o
 .rodata.cos_factorsQ15_512
                0x00000000      0x400 build/arm_common_tables.o
 .rodata.cos_factorsQ15_8192
                0x00000000     0x4000 build/arm_common_tables.o
 .rodata.cos_factorsQ31_128
                0x00000000      0x200 build/arm_common_tables.o
 .rodata.cos_factorsQ31_2048
                0x00000000     0x2000 build/arm_common_tables.o
 .rodata.cos_factorsQ31_512
                0x00000000      0x800 build/arm_common_tables.o
 .rodata.cos_factorsQ31_8192
                0x00000000     0x8000 build/arm_common_tables.o
 .rodata.cos_factors_128
                0x00000000      0x200 build/arm_common_tables.o
 .rodata.cos_factors_2048
                0x00000000     0x2000 build/arm_common_tables.o
 .rodata.cos_factors_512
                0x00000000      0x800 build/arm_common_tables.o
 .rodata.cos_factors_8192
                0x00000000     0x8000 build/arm_common_tables.o
 .rodata.realCoefA
                0x00000000     0x8000 build/arm_common_tables.o
 .rodata.realCoefAQ15
                0x00000000     0x4000 build/arm_common_tables.o
 .rodata.realCoefAQ31
                0x00000000     0x8000 build/arm_common_tables.o
 .rodata.realCoefB
                0x00000000     0x8000 build/arm_common_tables.o
 .rodata.realCoefBQ15
                0x00000000     0x4000 build/arm_common_tables.o
 .rodata.realCoefBQ31
                0x00000000     0x8000 build/arm_common_tables.o
 .rodata.sinTable_f32
                0x00000000      0x804 build/arm_common_tables.o
 .rodata.sinTable_q15
                0x00000000      0x402 build/arm_common_tables.o
 .rodata.sinTable_q31
                0x00000000      0x804 build/arm_common_tables.o
 .rodata.sqrt_initial_lut_q15
                0x00000000       0x20 build/arm_common_tables.o
 .rodata.sqrt_initial_lut_q31
                0x00000000       0x80 build/arm_common_tables.o
 .rodata.twiddleCoefF64_1024
                0x00000000     0x4000 build/arm_common_tables.o
 .rodata.twiddleCoefF64_128
                0x00000000      0x800 build/arm_common_tables.o
 .rodata.twiddleCoefF64_16
                0x00000000      0x100 build/arm_common_tables.o
 .rodata.twiddleCoefF64_2048
                0x00000000     0x8000 build/arm_common_tables.o
 .rodata.twiddleCoefF64_256
                0x00000000     0x1000 build/arm_common_tables.o
 .rodata.twiddleCoefF64_32
                0x00000000      0x200 build/arm_common_tables.o
 .rodata.twiddleCoefF64_4096
                0x00000000    0x10000 build/arm_common_tables.o
 .rodata.twiddleCoefF64_512
                0x00000000     0x2000 build/arm_common_tables.o
 .rodata.twiddleCoefF64_64
                0x00000000      0x400 build/arm_common_tables.o
 .rodata.twiddleCoefF64_rfft_1024
                0x00000000     0x2000 build/arm_common_tables.o
 .rodata.twiddleCoefF64_rfft_128
                0x00000000      0x400 build/arm_common_tables.o
 .rodata.twiddleCoefF64_rfft_2048
                0x00000000     0x4000 build/arm_common_tables.o
 .rodata.twiddleCoefF64_rfft_256
                0x00000000      0x800 build/arm_common_tables.o
 .rodata.twiddleCoefF64_rfft_32
                0x00000000      0x100 build/arm_common_tables.o
 .rodata.twiddleCoefF64_rfft_4096
                0x00000000     0x8000 build/arm_common_tables.o
 .rodata.twiddleCoefF64_rfft_512
                0x00000000     0x1000 build/arm_common_tables.o
 .rodata.twiddleCoefF64_rfft_64
                0x00000000      0x200 build/arm_common_tables.o
 .rodata.twiddleCoef_1024
                0x00000000     0x2000 build/arm_common_tables.o
 .rodata.twiddleCoef_1024_q15
                0x00000000      0xc00 build/arm_common_tables.o
 .rodata.twiddleCoef_1024_q31
                0x00000000     0x1800 build/arm_common_tables.o
 .rodata.twiddleCoef_128
                0x00000000      0x400 build/arm_common_tables.o
 .rodata.twiddleCoef_128_q15
                0x00000000      0x180 build/arm_common_tables.o
 .rodata.twiddleCoef_128_q31
                0x00000000      0x300 build/arm_common_tables.o
 .rodata.twiddleCoef_16
                0x00000000       0x80 build/arm_common_tables.o
 .rodata.twiddleCoef_16_q15
                0x00000000       0x30 build/arm_common_tables.o
 .rodata.twiddleCoef_16_q31
                0x00000000       0x60 build/arm_common_tables.o
 .rodata.twiddleCoef_2048
                0x00000000     0x4000 build/arm_common_tables.o
 .rodata.twiddleCoef_2048_q15
                0x00000000     0x1800 build/arm_common_tables.o
 .rodata.twiddleCoef_2048_q31
                0x00000000     0x3000 build/arm_common_tables.o
 .rodata.twiddleCoef_256
                0x00000000      0x800 build/arm_common_tables.o
 .rodata.twiddleCoef_256_q15
                0x00000000      0x300 build/arm_common_tables.o
 .rodata.twiddleCoef_256_q31
                0x00000000      0x600 build/arm_common_tables.o
 .rodata.twiddleCoef_32
                0x00000000      0x100 build/arm_common_tables.o
 .rodata.twiddleCoef_32_q15
                0x00000000       0x60 build/arm_common_tables.o
 .rodata.twiddleCoef_32_q31
                0x00000000       0xc0 build/arm_common_tables.o
 .rodata.twiddleCoef_4096
                0x00000000     0x8000 build/arm_common_tables.o
 .rodata.twiddleCoef_4096_q15
                0x00000000     0x3000 build/arm_common_tables.o
 .rodata.twiddleCoef_4096_q31
                0x00000000     0x6000 build/arm_common_tables.o
 .rodata.twiddleCoef_512
                0x00000000     0x1000 build/arm_common_tables.o
 .rodata.twiddleCoef_512_q15
                0x00000000      0x600 build/arm_common_tables.o
 .rodata.twiddleCoef_512_q31
                0x00000000      0xc00 build/arm_common_tables.o
 .rodata.twiddleCoef_64
                0x00000000      0x200 build/arm_common_tables.o
 .rodata.twiddleCoef_64_q15
                0x00000000       0xc0 build/arm_common_tables.o
 .rodata.twiddleCoef_64_q31
                0x00000000      0x180 build/arm_common_tables.o
 .rodata.twiddleCoef_rfft_1024
                0x00000000     0x1000 build/arm_common_tables.o
 .rodata.twiddleCoef_rfft_128
                0x00000000      0x200 build/arm_common_tables.o
 .rodata.twiddleCoef_rfft_2048
                0x00000000     0x2000 build/arm_common_tables.o
 .rodata.twiddleCoef_rfft_256
                0x00000000      0x400 build/arm_common_tables.o
 .rodata.twiddleCoef_rfft_32
                0x00000000       0x80 build/arm_common_tables.o
 .rodata.twiddleCoef_rfft_4096
                0x00000000     0x4000 build/arm_common_tables.o
 .rodata.twiddleCoef_rfft_512
                0x00000000      0x800 build/arm_common_tables.o
 .rodata.twiddleCoef_rfft_64
                0x00000000      0x100 build/arm_common_tables.o
 .debug_info    0x00000000     0x153b build/arm_common_tables.o
 .debug_abbrev  0x00000000       0xb9 build/arm_common_tables.o
 .debug_aranges
                0x00000000       0x18 build/arm_common_tables.o
 .debug_line    0x00000000      0x13c build/arm_common_tables.o
 .debug_str     0x00000000      0xb5c build/arm_common_tables.o
 .comment       0x00000000       0x4a build/arm_common_tables.o
 .ARM.attributes
                0x00000000       0x34 build/arm_common_tables.o
 .text          0x00000000        0x0 build/system_stm32f4xx.o
 .data          0x00000000        0x0 build/system_stm32f4xx.o
 .bss           0x00000000        0x0 build/system_stm32f4xx.o
 .text.SystemCoreClockUpdate
                0x00000000       0xa0 build/system_stm32f4xx.o
 .text          0x00000000        0x0 build/spi.o
 .data          0x00000000        0x0 build/spi.o
 .bss           0x00000000        0x0 build/spi.o
 .text.HAL_SPI_MspDeInit
                0x00000000       0x44 build/spi.o
 .text.LCD_ClearRect
                0x00000000       0x58 build/spi.o
 .text.LCD_DrawPoint
                0x00000000       0x14 build/spi.o
 .text          0x00000000        0x0 build/lcd_fonts.o
 .data          0x00000000        0x0 build/lcd_fonts.o
 .bss           0x00000000        0x0 build/lcd_fonts.o
 .data.ASCII_Font12
                0x00000000        0xc build/lcd_fonts.o
 .data.ASCII_Font16
                0x00000000        0xc build/lcd_fonts.o
 .data.ASCII_Font20
                0x00000000        0xc build/lcd_fonts.o
 .data.ASCII_Font32
                0x00000000        0xc build/lcd_fonts.o
 .rodata.ASCII_1206_Table
                0x00000000      0x474 build/lcd_fonts.o
 .rodata.ASCII_1608_Table
                0x00000000      0x5f0 build/lcd_fonts.o
 .rodata.ASCII_2010_Table
                0x00000000      0xed8 build/lcd_fonts.o
 .rodata.ASCII_3216_Table
                0x00000000     0x17c0 build/lcd_fonts.o
 .text          0x00000000        0x0 build/stm32f4xx_hal_spi.o
 .data          0x00000000        0x0 build/stm32f4xx_hal_spi.o
 .bss           0x00000000        0x0 build/stm32f4xx_hal_spi.o
 .text.SPI_AbortRx_ISR
                0x00000000       0x68 build/stm32f4xx_hal_spi.o
 .text.SPI_AbortTx_ISR
                0x00000000       0x1c build/stm32f4xx_hal_spi.o
 .text.SPI_EndRxTransaction
                0x00000000       0x8c build/stm32f4xx_hal_spi.o
 .text.HAL_SPI_MspInit
                0x00000000        0x2 build/stm32f4xx_hal_spi.o
 .text.HAL_SPI_MspDeInit
                0x00000000        0x2 build/stm32f4xx_hal_spi.o
 .text.HAL_SPI_DeInit
                0x00000000       0x2c build/stm32f4xx_hal_spi.o
 .text.HAL_SPI_TransmitReceive
                0x00000000      0x244 build/stm32f4xx_hal_spi.o
 .text.HAL_SPI_Receive
                0x00000000      0x17e build/stm32f4xx_hal_spi.o
 .text.HAL_SPI_Transmit_IT
                0x00000000       0xa8 build/stm32f4xx_hal_spi.o
 .text.HAL_SPI_TransmitReceive_IT
                0x00000000       0xcc build/stm32f4xx_hal_spi.o
 .text.HAL_SPI_Receive_IT
                0x00000000       0xd8 build/stm32f4xx_hal_spi.o
 .text.HAL_SPI_TransmitReceive_DMA
                0x00000000      0x148 build/stm32f4xx_hal_spi.o
 .text.HAL_SPI_Receive_DMA
                0x00000000       0xf4 build/stm32f4xx_hal_spi.o
 .text.HAL_SPI_Abort
                0x00000000      0x144 build/stm32f4xx_hal_spi.o
 .text.HAL_SPI_DMAPause
                0x00000000       0x26 build/stm32f4xx_hal_spi.o
 .text.HAL_SPI_DMAResume
                0x00000000       0x26 build/stm32f4xx_hal_spi.o
 .text.HAL_SPI_DMAStop
                0x00000000       0x46 build/stm32f4xx_hal_spi.o
 .text.HAL_SPI_TxCpltCallback
                0x00000000        0x2 build/stm32f4xx_hal_spi.o
 .text.HAL_SPI_RxCpltCallback
                0x00000000        0x2 build/stm32f4xx_hal_spi.o
 .text.HAL_SPI_TxRxCpltCallback
                0x00000000        0x2 build/stm32f4xx_hal_spi.o
 .text.HAL_SPI_RxHalfCpltCallback
                0x00000000        0x2 build/stm32f4xx_hal_spi.o
 .text.SPI_DMAHalfReceiveCplt
                0x00000000        0xa build/stm32f4xx_hal_spi.o
 .text.HAL_SPI_TxRxHalfCpltCallback
                0x00000000        0x2 build/stm32f4xx_hal_spi.o
 .text.SPI_DMAHalfTransmitReceiveCplt
                0x00000000        0xa build/stm32f4xx_hal_spi.o
 .text.SPI_CloseTx_ISR
                0x00000000       0x90 build/stm32f4xx_hal_spi.o
 .text.SPI_TxISR_8BIT
                0x00000000       0x28 build/stm32f4xx_hal_spi.o
 .text.SPI_TxISR_16BIT
                0x00000000       0x28 build/stm32f4xx_hal_spi.o
 .text.SPI_CloseRx_ISR
                0x00000000       0x56 build/stm32f4xx_hal_spi.o
 .text.SPI_RxISR_8BIT
                0x00000000       0x28 build/stm32f4xx_hal_spi.o
 .text.SPI_RxISR_16BIT
                0x00000000       0x28 build/stm32f4xx_hal_spi.o
 .text.SPI_CloseRxTx_ISR
                0x00000000       0xb0 build/stm32f4xx_hal_spi.o
 .text.SPI_2linesTxISR_8BIT
                0x00000000       0x38 build/stm32f4xx_hal_spi.o
 .text.SPI_2linesRxISR_8BIT
                0x00000000       0x38 build/stm32f4xx_hal_spi.o
 .text.SPI_2linesTxISR_16BIT
                0x00000000       0x38 build/stm32f4xx_hal_spi.o
 .text.SPI_2linesRxISR_16BIT
                0x00000000       0x38 build/stm32f4xx_hal_spi.o
 .text.SPI_DMAReceiveCplt
                0x00000000       0x6e build/stm32f4xx_hal_spi.o
 .text.SPI_DMATransmitReceiveCplt
                0x00000000       0x5c build/stm32f4xx_hal_spi.o
 .text.HAL_SPI_IRQHandler
                0x00000000      0x124 build/stm32f4xx_hal_spi.o
 .text.SPI_DMAAbortOnError
                0x00000000       0x10 build/stm32f4xx_hal_spi.o
 .text.HAL_SPI_AbortCpltCallback
                0x00000000        0x2 build/stm32f4xx_hal_spi.o
 .text.HAL_SPI_Abort_IT
                0x00000000      0x15c build/stm32f4xx_hal_spi.o
 .text.SPI_DMARxAbortCallback
                0x00000000       0x78 build/stm32f4xx_hal_spi.o
 .text.SPI_DMATxAbortCallback
                0x00000000       0x90 build/stm32f4xx_hal_spi.o
 .text.HAL_SPI_GetState
                0x00000000        0x6 build/stm32f4xx_hal_spi.o
 .text.HAL_SPI_GetError
                0x00000000        0x4 build/stm32f4xx_hal_spi.o
 .text          0x00000000        0x0 build/stm32f4xx_hal_timebase_tim.o
 .data          0x00000000        0x0 build/stm32f4xx_hal_timebase_tim.o
 .bss           0x00000000        0x0 build/stm32f4xx_hal_timebase_tim.o
 .text.HAL_SuspendTick
                0x00000000       0x14 build/stm32f4xx_hal_timebase_tim.o
 .text.HAL_ResumeTick
                0x00000000       0x14 build/stm32f4xx_hal_timebase_tim.o
 .text          0x00000000        0x0 build/freertos.o
 .data          0x00000000        0x0 build/freertos.o
 .bss           0x00000000        0x0 build/freertos.o
 .bss.angle_frac
                0x00000000        0x4 build/freertos.o
 .bss.angle_int
                0x00000000        0x4 build/freertos.o
 .text          0x00000000        0x0 build/croutine.o
 .data          0x00000000        0x0 build/croutine.o
 .bss           0x00000000        0x0 build/croutine.o
 .debug_info    0x00000000       0x72 build/croutine.o
 .debug_abbrev  0x00000000       0x26 build/croutine.o
 .debug_aranges
                0x00000000       0x18 build/croutine.o
 .debug_line    0x00000000       0x1d build/croutine.o
 .debug_str     0x00000000      0x1b3 build/croutine.o
 .comment       0x00000000       0x4a build/croutine.o
 .ARM.attributes
                0x00000000       0x34 build/croutine.o
 .text          0x00000000        0x0 build/event_groups.o
 .data          0x00000000        0x0 build/event_groups.o
 .bss           0x00000000        0x0 build/event_groups.o
 .text.prvTestWaitCondition
                0x00000000       0x1c build/event_groups.o
 .text.xEventGroupCreateStatic
                0x00000000       0x4a build/event_groups.o
 .text.xEventGroupCreate
                0x00000000       0x1c build/event_groups.o
 .text.xEventGroupWaitBits
                0x00000000      0x108 build/event_groups.o
 .text.xEventGroupClearBits
                0x00000000       0x46 build/event_groups.o
 .text.vEventGroupClearBitsCallback
                0x00000000        0x8 build/event_groups.o
 .text.xEventGroupClearBitsFromISR
                0x00000000       0x14 build/event_groups.o
 .text.xEventGroupGetBitsFromISR
                0x00000000       0x1c build/event_groups.o
 .text.xEventGroupSetBits
                0x00000000       0x8c build/event_groups.o
 .text.xEventGroupSync
                0x00000000       0xd8 build/event_groups.o
 .text.vEventGroupSetBitsCallback
                0x00000000        0x8 build/event_groups.o
 .text.vEventGroupDelete
                0x00000000       0x44 build/event_groups.o
 .text.xEventGroupSetBitsFromISR
                0x00000000       0x14 build/event_groups.o
 .text.uxEventGroupGetNumber
                0x00000000        0xa build/event_groups.o
 .text.vEventGroupSetNumber
                0x00000000        0x4 build/event_groups.o
 .debug_info    0x00000000     0x100e build/event_groups.o
 .debug_abbrev  0x00000000      0x2ff build/event_groups.o
 .debug_loc     0x00000000      0xd00 build/event_groups.o
 .debug_aranges
                0x00000000       0x90 build/event_groups.o
 .debug_ranges  0x00000000       0xb8 build/event_groups.o
 .debug_line    0x00000000      0xacf build/event_groups.o
 .debug_str     0x00000000      0x81a build/event_groups.o
 .comment       0x00000000       0x4a build/event_groups.o
 .debug_frame   0x00000000      0x1a8 build/event_groups.o
 .ARM.attributes
                0x00000000       0x34 build/event_groups.o
 .text          0x00000000        0x0 build/list.o
 .data          0x00000000        0x0 build/list.o
 .bss           0x00000000        0x0 build/list.o
 .text          0x00000000        0x0 build/queue.o
 .data          0x00000000        0x0 build/queue.o
 .bss           0x00000000        0x0 build/queue.o
 .text.prvGetDisinheritPriorityAfterTimeout
                0x00000000       0x10 build/queue.o
 .text.xQueueGenericCreate
                0x00000000       0x48 build/queue.o
 .text.xQueueGetMutexHolder
                0x00000000       0x1a build/queue.o
 .text.xQueueGetMutexHolderFromISR
                0x00000000       0x20 build/queue.o
 .text.xQueueCreateCountingSemaphoreStatic
                0x00000000       0x46 build/queue.o
 .text.xQueueCreateCountingSemaphore
                0x00000000       0x3c build/queue.o
 .text.prvInitialiseMutex
                0x00000000       0x18 build/queue.o
 .text.xQueueCreateMutex
                0x00000000       0x16 build/queue.o
 .text.xQueueCreateMutexStatic
                0x00000000       0x1e build/queue.o
 .text.xQueueGiveMutexRecursive
                0x00000000       0x40 build/queue.o
 .text.xQueueGiveFromISR
                0x00000000       0xb2 build/queue.o
 .text.xQueueSemaphoreTake
                0x00000000      0x1a6 build/queue.o
 .text.xQueueTakeMutexRecursive
                0x00000000       0x40 build/queue.o
 .text.xQueuePeek
                0x00000000      0x15e build/queue.o
 .text.xQueueReceiveFromISR
                0x00000000       0xa8 build/queue.o
 .text.xQueuePeekFromISR
                0x00000000       0x7e build/queue.o
 .text.uxQueueMessagesWaiting
                0x00000000       0x26 build/queue.o
 .text.uxQueueSpacesAvailable
                0x00000000       0x2a build/queue.o
 .text.uxQueueMessagesWaitingFromISR
                0x00000000       0x18 build/queue.o
 .text.uxQueueGetQueueNumber
                0x00000000        0x4 build/queue.o
 .text.vQueueSetQueueNumber
                0x00000000        0x4 build/queue.o
 .text.ucQueueGetQueueType
                0x00000000        0x6 build/queue.o
 .text.xQueueIsQueueEmptyFromISR
                0x00000000       0x20 build/queue.o
 .text.xQueueIsQueueFullFromISR
                0x00000000       0x24 build/queue.o
 .text.pcQueueGetName
                0x00000000       0x28 build/queue.o
 .text.vQueueUnregisterQueue
                0x00000000       0x2c build/queue.o
 .text.vQueueDelete
                0x00000000       0x2c build/queue.o
 .text          0x00000000        0x0 build/stream_buffer.o
 .data          0x00000000        0x0 build/stream_buffer.o
 .bss           0x00000000        0x0 build/stream_buffer.o
 .text.prvBytesInBuffer
                0x00000000       0x12 build/stream_buffer.o
 .text.prvInitialiseNewStreamBuffer
                0x00000000       0x40 build/stream_buffer.o
 .text.prvWriteBytesToBuffer
                0x00000000       0x8c build/stream_buffer.o
 .text.prvWriteMessageToBuffer
                0x00000000       0x44 build/stream_buffer.o
 .text.prvReadBytesFromBuffer
                0x00000000       0x9c build/stream_buffer.o
 .text.prvReadMessageFromBuffer
                0x00000000       0x4c build/stream_buffer.o
 .text.xStreamBufferGenericCreate
                0x00000000       0x74 build/stream_buffer.o
 .text.xStreamBufferGenericCreateStatic
                0x00000000       0xa6 build/stream_buffer.o
 .text.vStreamBufferDelete
                0x00000000       0x2e build/stream_buffer.o
 .text.xStreamBufferReset
                0x00000000       0x4e build/stream_buffer.o
 .text.xStreamBufferSetTriggerLevel
                0x00000000       0x2a build/stream_buffer.o
 .text.xStreamBufferSpacesAvailable
                0x00000000       0x2a build/stream_buffer.o
 .text.xStreamBufferBytesAvailable
                0x00000000       0x1c build/stream_buffer.o
 .text.xStreamBufferSend
                0x00000000      0x108 build/stream_buffer.o
 .text.xStreamBufferSendFromISR
                0x00000000       0xa4 build/stream_buffer.o
 .text.xStreamBufferReceive
                0x00000000       0xea build/stream_buffer.o
 .text.xStreamBufferNextMessageLengthBytes
                0x00000000       0x5c build/stream_buffer.o
 .text.xStreamBufferReceiveFromISR
                0x00000000       0xa2 build/stream_buffer.o
 .text.xStreamBufferIsEmpty
                0x00000000       0x24 build/stream_buffer.o
 .text.xStreamBufferIsFull
                0x00000000       0x38 build/stream_buffer.o
 .text.xStreamBufferSendCompletedFromISR
                0x00000000       0x52 build/stream_buffer.o
 .text.xStreamBufferReceiveCompletedFromISR
                0x00000000       0x52 build/stream_buffer.o
 .text.uxStreamBufferGetStreamBufferNumber
                0x00000000        0x4 build/stream_buffer.o
 .text.vStreamBufferSetStreamBufferNumber
                0x00000000        0x4 build/stream_buffer.o
 .text.ucStreamBufferGetStreamBufferType
                0x00000000        0x8 build/stream_buffer.o
 .debug_info    0x00000000     0x1cbb build/stream_buffer.o
 .debug_abbrev  0x00000000      0x36e build/stream_buffer.o
 .debug_loc     0x00000000     0x1d4a build/stream_buffer.o
 .debug_aranges
                0x00000000       0xe0 build/stream_buffer.o
 .debug_ranges  0x00000000       0xd0 build/stream_buffer.o
 .debug_line    0x00000000     0x15aa build/stream_buffer.o
 .debug_str     0x00000000      0x9cc build/stream_buffer.o
 .comment       0x00000000       0x4a build/stream_buffer.o
 .debug_frame   0x00000000      0x384 build/stream_buffer.o
 .ARM.attributes
                0x00000000       0x34 build/stream_buffer.o
 .text          0x00000000        0x0 build/tasks.o
 .data          0x00000000        0x0 build/tasks.o
 .bss           0x00000000        0x0 build/tasks.o
 .text.prvTaskIsTaskSuspended
                0x00000000       0x40 build/tasks.o
 .text.prvTaskCheckFreeStackSpace
                0x00000000       0x14 build/tasks.o
 .text.uxTaskPriorityGet
                0x00000000       0x20 build/tasks.o
 .text.uxTaskPriorityGetFromISR
                0x00000000       0x30 build/tasks.o
 .text.vTaskPrioritySet
                0x00000000       0xd4 build/tasks.o
 .text.vTaskResume
                0x00000000       0x88 build/tasks.o
 .text.xTaskResumeFromISR
                0x00000000       0xa4 build/tasks.o
 .text.vTaskEndScheduler
                0x00000000       0x24 build/tasks.o
 .text.xTaskGetTickCountFromISR
                0x00000000       0x10 build/tasks.o
 .text.uxTaskGetNumberOfTasks
                0x00000000        0xc build/tasks.o
 .text.pcTaskGetName
                0x00000000       0x28 build/tasks.o
 .text.vTaskDelayUntil
                0x00000000       0xa4 build/tasks.o
 .text.xTaskCatchUpTicks
                0x00000000       0x38 build/tasks.o
 .text.vTaskSuspend
                0x00000000       0xc4 build/tasks.o
 .text.vTaskPlaceOnUnorderedEventList
                0x00000000       0x58 build/tasks.o
 .text.vTaskRemoveFromUnorderedEventList
                0x00000000       0x88 build/tasks.o
 .text.vTaskSetTimeOutState
                0x00000000       0x38 build/tasks.o
 .text.uxTaskGetTaskNumber
                0x00000000        0xa build/tasks.o
 .text.vTaskSetTaskNumber
                0x00000000        0x6 build/tasks.o
 .text.vTaskGetInfo
                0x00000000       0x78 build/tasks.o
 .text.prvListTasksWithinSingleList
                0x00000000       0x5e build/tasks.o
 .text.uxTaskGetSystemState
                0x00000000       0xb0 build/tasks.o
 .text.uxTaskGetStackHighWaterMark
                0x00000000       0x18 build/tasks.o
 .text.xTaskGetCurrentTaskHandle
                0x00000000        0xc build/tasks.o
 .text.xTaskPriorityInherit
                0x00000000       0x98 build/tasks.o
 .text.vTaskPriorityDisinheritAfterTimeout
                0x00000000       0xa0 build/tasks.o
 .text.uxTaskResetEventItemValue
                0x00000000       0x18 build/tasks.o
 .text.pvTaskIncrementMutexHeldCount
                0x00000000       0x1c build/tasks.o
 .text.ulTaskNotifyTake
                0x00000000       0x78 build/tasks.o
 .text.xTaskNotifyWait
                0x00000000       0x98 build/tasks.o
 .text.xTaskGenericNotify
                0x00000000      0x100 build/tasks.o
 .text.xTaskGenericNotifyFromISR
                0x00000000      0x134 build/tasks.o
 .text.vTaskNotifyGiveFromISR
                0x00000000       0xd0 build/tasks.o
 .text.xTaskNotifyStateClear
                0x00000000       0x34 build/tasks.o
 .text.ulTaskNotifyValueClear
                0x00000000       0x2c build/tasks.o
 .text          0x00000000        0x0 build/timers.o
 .data          0x00000000        0x0 build/timers.o
 .bss           0x00000000        0x0 build/timers.o
 .text.prvInitialiseNewTimer
                0x00000000       0x4c build/timers.o
 .text.xTimerCreate
                0x00000000       0x38 build/timers.o
 .text.xTimerCreateStatic
                0x00000000       0x54 build/timers.o
 .text.xTimerGetTimerDaemonTaskHandle
                0x00000000       0x20 build/timers.o
 .text.xTimerGetPeriod
                0x00000000       0x18 build/timers.o
 .text.vTimerSetReloadMode
                0x00000000       0x40 build/timers.o
 .text.uxTimerGetReloadMode
                0x00000000       0x34 build/timers.o
 .text.xTimerGetExpiryTime
                0x00000000       0x18 build/timers.o
 .text.pcTimerGetName
                0x00000000       0x18 build/timers.o
 .text.xTimerIsTimerActive
                0x00000000       0x34 build/timers.o
 .text.pvTimerGetTimerID
                0x00000000       0x26 build/timers.o
 .text.vTimerSetTimerID
                0x00000000       0x26 build/timers.o
 .text.xTimerPendFunctionCallFromISR
                0x00000000       0x28 build/timers.o
 .text.xTimerPendFunctionCall
                0x00000000       0x40 build/timers.o
 .text.uxTimerGetTimerNumber
                0x00000000        0x4 build/timers.o
 .text.vTimerSetTimerNumber
                0x00000000        0x4 build/timers.o
 .text          0x00000000        0x0 build/heap_4.o
 .data          0x00000000        0x0 build/heap_4.o
 .bss           0x00000000        0x0 build/heap_4.o
 .text.xPortGetFreeHeapSize
                0x00000000        0xc build/heap_4.o
 .text.xPortGetMinimumEverFreeHeapSize
                0x00000000        0xc build/heap_4.o
 .text.vPortInitialiseBlocks
                0x00000000        0x2 build/heap_4.o
 .text.vPortGetHeapStats
                0x00000000       0x80 build/heap_4.o
 .text          0x00000000        0x0 build/port.o
 .data          0x00000000        0x0 build/port.o
 .bss           0x00000000        0x0 build/port.o
 .text.vPortEndScheduler
                0x00000000       0x24 build/port.o
 .text          0x00000000        0x0 build/cmsis_os2.o
 .data          0x00000000        0x0 build/cmsis_os2.o
 .bss           0x00000000        0x0 build/cmsis_os2.o
 .text.OS_Tick_GetCount
                0x00000000        0xc build/cmsis_os2.o
 .text.OS_Tick_GetOverflow
                0x00000000        0xc build/cmsis_os2.o
 .text.OS_Tick_GetInterval
                0x00000000        0xa build/cmsis_os2.o
 .text.CreateBlock
                0x00000000       0x1c build/cmsis_os2.o
 .text.AllocBlock
                0x00000000        0xc build/cmsis_os2.o
 .text.FreeBlock
                0x00000000        0x8 build/cmsis_os2.o
 .text.TimerCallback
                0x00000000       0x10 build/cmsis_os2.o
 .rodata.osKernelGetInfo.str1.4
                0x00000000       0x11 build/cmsis_os2.o
 .text.osKernelGetInfo
                0x00000000       0x2c build/cmsis_os2.o
 .text.osKernelGetState
                0x00000000       0x24 build/cmsis_os2.o
 .text.osKernelLock
                0x00000000       0x2a build/cmsis_os2.o
 .text.osKernelUnlock
                0x00000000       0x3a build/cmsis_os2.o
 .text.osKernelRestoreLock
                0x00000000       0x4c build/cmsis_os2.o
 .text.osKernelGetTickCount
                0x00000000       0x14 build/cmsis_os2.o
 .text.osKernelGetTickFreq
                0x00000000        0x6 build/cmsis_os2.o
 .text.osKernelGetSysTimerCount
                0x00000000       0x44 build/cmsis_os2.o
 .text.osKernelGetSysTimerFreq
                0x00000000        0xc build/cmsis_os2.o
 .text.osThreadGetName
                0x00000000       0x14 build/cmsis_os2.o
 .text.osThreadGetId
                0x00000000        0x8 build/cmsis_os2.o
 .text.osThreadGetState
                0x00000000       0x3e build/cmsis_os2.o
 .text.osThreadGetStackSpace
                0x00000000       0x1a build/cmsis_os2.o
 .text.osThreadSetPriority
                0x00000000       0x32 build/cmsis_os2.o
 .text.osThreadGetPriority
                0x00000000       0x1c build/cmsis_os2.o
 .text.osThreadYield
                0x00000000       0x24 build/cmsis_os2.o
 .text.osThreadSuspend
                0x00000000       0x1e build/cmsis_os2.o
 .text.osThreadResume
                0x00000000       0x1e build/cmsis_os2.o
 .text.osThreadExit
                0x00000000        0xa build/cmsis_os2.o
 .text.osThreadGetCount
                0x00000000       0x12 build/cmsis_os2.o
 .text.osThreadEnumerate
                0x00000000       0x66 build/cmsis_os2.o
 .text.osThreadFlagsSet
                0x00000000       0x72 build/cmsis_os2.o
 .text.osThreadFlagsClear
                0x00000000       0x56 build/cmsis_os2.o
 .text.osThreadFlagsGet
                0x00000000       0x32 build/cmsis_os2.o
 .text.osThreadFlagsWait
                0x00000000       0xaa build/cmsis_os2.o
 .text.osDelay  0x00000000       0x1c build/cmsis_os2.o
 .text.osDelayUntil
                0x00000000       0x30 build/cmsis_os2.o
 .text.osTimerNew
                0x00000000       0xa8 build/cmsis_os2.o
 .text.osTimerGetName
                0x00000000       0x14 build/cmsis_os2.o
 .text.osTimerStart
                0x00000000       0x34 build/cmsis_os2.o
 .text.osTimerStop
                0x00000000       0x44 build/cmsis_os2.o
 .text.osTimerIsRunning
                0x00000000       0x18 build/cmsis_os2.o
 .text.osTimerDelete
                0x00000000       0x44 build/cmsis_os2.o
 .text.osEventFlagsNew
                0x00000000       0x44 build/cmsis_os2.o
 .text.osEventFlagsSet
                0x00000000       0x5a build/cmsis_os2.o
 .text.osEventFlagsClear
                0x00000000       0x40 build/cmsis_os2.o
 .text.osEventFlagsGet
                0x00000000       0x1c build/cmsis_os2.o
 .text.osEventFlagsWait
                0x00000000       0x76 build/cmsis_os2.o
 .text.osEventFlagsDelete
                0x00000000       0x1e build/cmsis_os2.o
 .text.osMutexNew
                0x00000000       0x94 build/cmsis_os2.o
 .text.osMutexAcquire
                0x00000000       0x58 build/cmsis_os2.o
 .text.osMutexRelease
                0x00000000       0x4c build/cmsis_os2.o
 .text.osMutexGetOwner
                0x00000000       0x1c build/cmsis_os2.o
 .text.osMutexDelete
                0x00000000       0x2a build/cmsis_os2.o
 .text.osSemaphoreNew
                0x00000000       0xb4 build/cmsis_os2.o
 .text.osSemaphoreAcquire
                0x00000000       0x68 build/cmsis_os2.o
 .text.osSemaphoreRelease
                0x00000000       0x5e build/cmsis_os2.o
 .text.osSemaphoreGetCount
                0x00000000       0x1a build/cmsis_os2.o
 .text.osSemaphoreDelete
                0x00000000       0x26 build/cmsis_os2.o
 .text.osMessageQueueNew
                0x00000000       0x96 build/cmsis_os2.o
 .text.osMessageQueuePut
                0x00000000       0x84 build/cmsis_os2.o
 .text.osMessageQueueGet
                0x00000000       0x82 build/cmsis_os2.o
 .text.osMessageQueueGetCapacity
                0x00000000        0xa build/cmsis_os2.o
 .text.osMessageQueueGetMsgSize
                0x00000000        0xa build/cmsis_os2.o
 .text.osMessageQueueGetCount
                0x00000000       0x1a build/cmsis_os2.o
 .text.osMessageQueueGetSpace
                0x00000000       0x34 build/cmsis_os2.o
 .text.osMessageQueueReset
                0x00000000       0x20 build/cmsis_os2.o
 .text.osMessageQueueDelete
                0x00000000       0x26 build/cmsis_os2.o
 .text.osMemoryPoolNew
                0x00000000      0x134 build/cmsis_os2.o
 .text.osMemoryPoolGetName
                0x00000000       0x10 build/cmsis_os2.o
 .text.osMemoryPoolAlloc
                0x00000000       0xb0 build/cmsis_os2.o
 .text.osMemoryPoolFree
                0x00000000       0xe0 build/cmsis_os2.o
 .text.osMemoryPoolGetCapacity
                0x00000000       0x1c build/cmsis_os2.o
 .text.osMemoryPoolGetBlockSize
                0x00000000       0x1c build/cmsis_os2.o
 .text.osMemoryPoolGetCount
                0x00000000       0x34 build/cmsis_os2.o
 .text.osMemoryPoolGetSpace
                0x00000000       0x30 build/cmsis_os2.o
 .text.osMemoryPoolDelete
                0x00000000       0x64 build/cmsis_os2.o
 .text          0x00000000        0x0 build/i2c.o
 .data          0x00000000        0x0 build/i2c.o
 .bss           0x00000000        0x0 build/i2c.o
 .text.HAL_I2C_MspDeInit
                0x00000000       0x38 build/i2c.o
 .text          0x00000000        0x0 build/stm32f4xx_hal_i2c.o
 .data          0x00000000        0x0 build/stm32f4xx_hal_i2c.o
 .bss           0x00000000        0x0 build/stm32f4xx_hal_i2c.o
 .text.I2C_Flush_DR
                0x00000000       0x10 build/stm32f4xx_hal_i2c.o
 .text.I2C_Master_SB
                0x00000000       0xa8 build/stm32f4xx_hal_i2c.o
 .text.I2C_Master_ADD10
                0x00000000       0x2a build/stm32f4xx_hal_i2c.o
 .text.I2C_Master_ADDR
                0x00000000      0x206 build/stm32f4xx_hal_i2c.o
 .text.I2C_SlaveTransmit_BTF
                0x00000000       0x20 build/stm32f4xx_hal_i2c.o
 .text.I2C_SlaveReceive_BTF
                0x00000000       0x20 build/stm32f4xx_hal_i2c.o
 .text.I2C_WaitOnSTOPRequestThroughIT
                0x00000000       0x48 build/stm32f4xx_hal_i2c.o
 .text.I2C_ConvertOtherXferOptions
                0x00000000       0x1e build/stm32f4xx_hal_i2c.o
 .text.I2C_RequestMemoryWrite
                0x00000000       0xd8 build/stm32f4xx_hal_i2c.o
 .text.I2C_RequestMemoryRead
                0x00000000      0x154 build/stm32f4xx_hal_i2c.o
 .text.I2C_WaitOnSTOPFlagUntilTimeout
                0x00000000       0x5c build/stm32f4xx_hal_i2c.o
 .text.HAL_I2C_MspInit
                0x00000000        0x2 build/stm32f4xx_hal_i2c.o
 .text.HAL_I2C_MspDeInit
                0x00000000        0x2 build/stm32f4xx_hal_i2c.o
 .text.HAL_I2C_DeInit
                0x00000000       0x32 build/stm32f4xx_hal_i2c.o
 .text.HAL_I2C_Slave_Transmit
                0x00000000      0x1a4 build/stm32f4xx_hal_i2c.o
 .text.HAL_I2C_Slave_Receive
                0x00000000      0x180 build/stm32f4xx_hal_i2c.o
 .text.HAL_I2C_Master_Transmit_IT
                0x00000000       0xd4 build/stm32f4xx_hal_i2c.o
 .text.HAL_I2C_Master_Receive_IT
                0x00000000       0xdc build/stm32f4xx_hal_i2c.o
 .text.HAL_I2C_Slave_Transmit_IT
                0x00000000       0x90 build/stm32f4xx_hal_i2c.o
 .text.HAL_I2C_Slave_Receive_IT
                0x00000000       0x90 build/stm32f4xx_hal_i2c.o
 .text.HAL_I2C_Master_Transmit_DMA
                0x00000000      0x188 build/stm32f4xx_hal_i2c.o
 .text.HAL_I2C_Master_Receive_DMA
                0x00000000      0x188 build/stm32f4xx_hal_i2c.o
 .text.HAL_I2C_Slave_Transmit_DMA
                0x00000000      0x108 build/stm32f4xx_hal_i2c.o
 .text.HAL_I2C_Slave_Receive_DMA
                0x00000000      0x108 build/stm32f4xx_hal_i2c.o
 .text.HAL_I2C_Mem_Write
                0x00000000      0x164 build/stm32f4xx_hal_i2c.o
 .text.HAL_I2C_Mem_Read
                0x00000000      0x2f8 build/stm32f4xx_hal_i2c.o
 .text.HAL_I2C_Mem_Write_IT
                0x00000000       0xe0 build/stm32f4xx_hal_i2c.o
 .text.HAL_I2C_Mem_Read_IT
                0x00000000       0xec build/stm32f4xx_hal_i2c.o
 .text.HAL_I2C_Mem_Write_DMA
                0x00000000      0x1d4 build/stm32f4xx_hal_i2c.o
 .text.HAL_I2C_Mem_Read_DMA
                0x00000000      0x214 build/stm32f4xx_hal_i2c.o
 .text.HAL_I2C_IsDeviceReady
                0x00000000      0x194 build/stm32f4xx_hal_i2c.o
 .text.HAL_I2C_Master_Seq_Transmit_IT
                0x00000000       0xfc build/stm32f4xx_hal_i2c.o
 .text.HAL_I2C_Master_Seq_Transmit_DMA
                0x00000000      0x1c4 build/stm32f4xx_hal_i2c.o
 .text.HAL_I2C_Master_Seq_Receive_IT
                0x00000000      0x148 build/stm32f4xx_hal_i2c.o
 .text.HAL_I2C_Master_Seq_Receive_DMA
                0x00000000      0x238 build/stm32f4xx_hal_i2c.o
 .text.HAL_I2C_Slave_Seq_Transmit_IT
                0x00000000       0x90 build/stm32f4xx_hal_i2c.o
 .text.HAL_I2C_Slave_Seq_Transmit_DMA
                0x00000000      0x19c build/stm32f4xx_hal_i2c.o
 .text.HAL_I2C_Slave_Seq_Receive_IT
                0x00000000       0x90 build/stm32f4xx_hal_i2c.o
 .text.HAL_I2C_Slave_Seq_Receive_DMA
                0x00000000      0x19c build/stm32f4xx_hal_i2c.o
 .text.HAL_I2C_EnableListen_IT
                0x00000000       0x3e build/stm32f4xx_hal_i2c.o
 .text.HAL_I2C_DisableListen_IT
                0x00000000       0x42 build/stm32f4xx_hal_i2c.o
 .text.HAL_I2C_MasterTxCpltCallback
                0x00000000        0x2 build/stm32f4xx_hal_i2c.o
 .text.HAL_I2C_MasterRxCpltCallback
                0x00000000        0x2 build/stm32f4xx_hal_i2c.o
 .text.HAL_I2C_SlaveTxCpltCallback
                0x00000000        0x2 build/stm32f4xx_hal_i2c.o
 .text.I2C_SlaveTransmit_TXE
                0x00000000       0x4c build/stm32f4xx_hal_i2c.o
 .text.HAL_I2C_SlaveRxCpltCallback
                0x00000000        0x2 build/stm32f4xx_hal_i2c.o
 .text.I2C_SlaveReceive_RXNE
                0x00000000       0x4c build/stm32f4xx_hal_i2c.o
 .text.HAL_I2C_AddrCallback
                0x00000000        0x2 build/stm32f4xx_hal_i2c.o
 .text.I2C_Slave_ADDR
                0x00000000       0x5a build/stm32f4xx_hal_i2c.o
 .text.HAL_I2C_ListenCpltCallback
                0x00000000        0x2 build/stm32f4xx_hal_i2c.o
 .text.I2C_Slave_AF
                0x00000000       0xa0 build/stm32f4xx_hal_i2c.o
 .text.HAL_I2C_MemTxCpltCallback
                0x00000000        0x2 build/stm32f4xx_hal_i2c.o
 .text.I2C_MasterTransmit_BTF
                0x00000000       0x9e build/stm32f4xx_hal_i2c.o
 .text.I2C_MemoryTransmit_TXE_BTF
                0x00000000       0xc4 build/stm32f4xx_hal_i2c.o
 .text.I2C_MasterTransmit_TXE
                0x00000000       0xd0 build/stm32f4xx_hal_i2c.o
 .text.HAL_I2C_MemRxCpltCallback
                0x00000000        0x2 build/stm32f4xx_hal_i2c.o
 .text.I2C_MasterReceive_BTF
                0x00000000      0x136 build/stm32f4xx_hal_i2c.o
 .text.HAL_I2C_ErrorCallback
                0x00000000        0x2 build/stm32f4xx_hal_i2c.o
 .text.I2C_DMAError
                0x00000000       0x46 build/stm32f4xx_hal_i2c.o
 .text.I2C_DMAXferCplt
                0x00000000      0x130 build/stm32f4xx_hal_i2c.o
 .text.I2C_MasterReceive_RXNE
                0x00000000      0x106 build/stm32f4xx_hal_i2c.o
 .text.HAL_I2C_AbortCpltCallback
                0x00000000        0x2 build/stm32f4xx_hal_i2c.o
 .text.I2C_DMAAbort
                0x00000000       0xe4 build/stm32f4xx_hal_i2c.o
 .text.I2C_ITError
                0x00000000      0x178 build/stm32f4xx_hal_i2c.o
 .text.HAL_I2C_Master_Abort_IT
                0x00000000       0x68 build/stm32f4xx_hal_i2c.o
 .text.I2C_Slave_STOPF
                0x00000000      0x18c build/stm32f4xx_hal_i2c.o
 .text.HAL_I2C_EV_IRQHandler
                0x00000000      0x1a0 build/stm32f4xx_hal_i2c.o
 .text.HAL_I2C_ER_IRQHandler
                0x00000000       0xc4 build/stm32f4xx_hal_i2c.o
 .text.HAL_I2C_GetState
                0x00000000        0x6 build/stm32f4xx_hal_i2c.o
 .text.HAL_I2C_GetMode
                0x00000000        0x6 build/stm32f4xx_hal_i2c.o
 .text.HAL_I2C_GetError
                0x00000000        0x4 build/stm32f4xx_hal_i2c.o
 .text          0x00000000        0x0 build/stm32f4xx_hal_i2c_ex.o
 .data          0x00000000        0x0 build/stm32f4xx_hal_i2c_ex.o
 .bss           0x00000000        0x0 build/stm32f4xx_hal_i2c_ex.o
 .text          0x00000000       0x14 build/startup_stm32f429xx.o
 .data          0x00000000        0x0 build/startup_stm32f429xx.o
 .bss           0x00000000        0x0 build/startup_stm32f429xx.o
 .text          0x00000000        0x0 d:/gcc-arm-none-eabi-10.3-2021.10/bin/../lib/gcc/arm-none-eabi/10.3.1/../../../../arm-none-eabi/lib/thumb/v7e-m+fp/hard\libc_nano.a(lib_a-exit.o)
 .data          0x00000000        0x0 d:/gcc-arm-none-eabi-10.3-2021.10/bin/../lib/gcc/arm-none-eabi/10.3.1/../../../../arm-none-eabi/lib/thumb/v7e-m+fp/hard\libc_nano.a(lib_a-exit.o)
 .bss           0x00000000        0x0 d:/gcc-arm-none-eabi-10.3-2021.10/bin/../lib/gcc/arm-none-eabi/10.3.1/../../../../arm-none-eabi/lib/thumb/v7e-m+fp/hard\libc_nano.a(lib_a-exit.o)
 .text.exit     0x00000000       0x28 d:/gcc-arm-none-eabi-10.3-2021.10/bin/../lib/gcc/arm-none-eabi/10.3.1/../../../../arm-none-eabi/lib/thumb/v7e-m+fp/hard\libc_nano.a(lib_a-exit.o)
 .debug_frame   0x00000000       0x28 d:/gcc-arm-none-eabi-10.3-2021.10/bin/../lib/gcc/arm-none-eabi/10.3.1/../../../../arm-none-eabi/lib/thumb/v7e-m+fp/hard\libc_nano.a(lib_a-exit.o)
 .ARM.attributes
                0x00000000       0x34 d:/gcc-arm-none-eabi-10.3-2021.10/bin/../lib/gcc/arm-none-eabi/10.3.1/../../../../arm-none-eabi/lib/thumb/v7e-m+fp/hard\libc_nano.a(lib_a-exit.o)
 .text          0x00000000        0x0 d:/gcc-arm-none-eabi-10.3-2021.10/bin/../lib/gcc/arm-none-eabi/10.3.1/../../../../arm-none-eabi/lib/thumb/v7e-m+fp/hard\libc_nano.a(lib_a-impure.o)
 .data          0x00000000        0x0 d:/gcc-arm-none-eabi-10.3-2021.10/bin/../lib/gcc/arm-none-eabi/10.3.1/../../../../arm-none-eabi/lib/thumb/v7e-m+fp/hard\libc_nano.a(lib_a-impure.o)
 .bss           0x00000000        0x0 d:/gcc-arm-none-eabi-10.3-2021.10/bin/../lib/gcc/arm-none-eabi/10.3.1/../../../../arm-none-eabi/lib/thumb/v7e-m+fp/hard\libc_nano.a(lib_a-impure.o)
 .rodata._global_impure_ptr
                0x00000000        0x4 d:/gcc-arm-none-eabi-10.3-2021.10/bin/../lib/gcc/arm-none-eabi/10.3.1/../../../../arm-none-eabi/lib/thumb/v7e-m+fp/hard\libc_nano.a(lib_a-impure.o)
 .text          0x00000000        0x0 d:/gcc-arm-none-eabi-10.3-2021.10/bin/../lib/gcc/arm-none-eabi/10.3.1/../../../../arm-none-eabi/lib/thumb/v7e-m+fp/hard\libc_nano.a(lib_a-init.o)
 .data          0x00000000        0x0 d:/gcc-arm-none-eabi-10.3-2021.10/bin/../lib/gcc/arm-none-eabi/10.3.1/../../../../arm-none-eabi/lib/thumb/v7e-m+fp/hard\libc_nano.a(lib_a-init.o)
 .bss           0x00000000        0x0 d:/gcc-arm-none-eabi-10.3-2021.10/bin/../lib/gcc/arm-none-eabi/10.3.1/../../../../arm-none-eabi/lib/thumb/v7e-m+fp/hard\libc_nano.a(lib_a-init.o)
 .text          0x00000000        0x0 d:/gcc-arm-none-eabi-10.3-2021.10/bin/../lib/gcc/arm-none-eabi/10.3.1/../../../../arm-none-eabi/lib/thumb/v7e-m+fp/hard\libc_nano.a(lib_a-memcpy-stub.o)
 .data          0x00000000        0x0 d:/gcc-arm-none-eabi-10.3-2021.10/bin/../lib/gcc/arm-none-eabi/10.3.1/../../../../arm-none-eabi/lib/thumb/v7e-m+fp/hard\libc_nano.a(lib_a-memcpy-stub.o)
 .bss           0x00000000        0x0 d:/gcc-arm-none-eabi-10.3-2021.10/bin/../lib/gcc/arm-none-eabi/10.3.1/../../../../arm-none-eabi/lib/thumb/v7e-m+fp/hard\libc_nano.a(lib_a-memcpy-stub.o)
 .text          0x00000000        0x0 d:/gcc-arm-none-eabi-10.3-2021.10/bin/../lib/gcc/arm-none-eabi/10.3.1/../../../../arm-none-eabi/lib/thumb/v7e-m+fp/hard\libc_nano.a(lib_a-memset.o)
 .data          0x00000000        0x0 d:/gcc-arm-none-eabi-10.3-2021.10/bin/../lib/gcc/arm-none-eabi/10.3.1/../../../../arm-none-eabi/lib/thumb/v7e-m+fp/hard\libc_nano.a(lib_a-memset.o)
 .bss           0x00000000        0x0 d:/gcc-arm-none-eabi-10.3-2021.10/bin/../lib/gcc/arm-none-eabi/10.3.1/../../../../arm-none-eabi/lib/thumb/v7e-m+fp/hard\libc_nano.a(lib_a-memset.o)
 .text          0x00000000        0x0 d:/gcc-arm-none-eabi-10.3-2021.10/bin/../lib/gcc/arm-none-eabi/10.3.1/../../../../arm-none-eabi/lib/thumb/v7e-m+fp/hard\libc_nano.a(lib_a-sprintf.o)
 .data          0x00000000        0x0 d:/gcc-arm-none-eabi-10.3-2021.10/bin/../lib/gcc/arm-none-eabi/10.3.1/../../../../arm-none-eabi/lib/thumb/v7e-m+fp/hard\libc_nano.a(lib_a-sprintf.o)
 .bss           0x00000000        0x0 d:/gcc-arm-none-eabi-10.3-2021.10/bin/../lib/gcc/arm-none-eabi/10.3.1/../../../../arm-none-eabi/lib/thumb/v7e-m+fp/hard\libc_nano.a(lib_a-sprintf.o)
 .text._sprintf_r
                0x00000000       0x38 d:/gcc-arm-none-eabi-10.3-2021.10/bin/../lib/gcc/arm-none-eabi/10.3.1/../../../../arm-none-eabi/lib/thumb/v7e-m+fp/hard\libc_nano.a(lib_a-sprintf.o)
 .text          0x00000000        0x0 d:/gcc-arm-none-eabi-10.3-2021.10/bin/../lib/gcc/arm-none-eabi/10.3.1/../../../../arm-none-eabi/lib/thumb/v7e-m+fp/hard\libc_nano.a(lib_a-strcpy.o)
 .data          0x00000000        0x0 d:/gcc-arm-none-eabi-10.3-2021.10/bin/../lib/gcc/arm-none-eabi/10.3.1/../../../../arm-none-eabi/lib/thumb/v7e-m+fp/hard\libc_nano.a(lib_a-strcpy.o)
 .bss           0x00000000        0x0 d:/gcc-arm-none-eabi-10.3-2021.10/bin/../lib/gcc/arm-none-eabi/10.3.1/../../../../arm-none-eabi/lib/thumb/v7e-m+fp/hard\libc_nano.a(lib_a-strcpy.o)
 .data          0x00000000        0x0 d:/gcc-arm-none-eabi-10.3-2021.10/bin/../lib/gcc/arm-none-eabi/10.3.1/../../../../arm-none-eabi/lib/thumb/v7e-m+fp/hard\libc_nano.a(lib_a-strlen.o)
 .bss           0x00000000        0x0 d:/gcc-arm-none-eabi-10.3-2021.10/bin/../lib/gcc/arm-none-eabi/10.3.1/../../../../arm-none-eabi/lib/thumb/v7e-m+fp/hard\libc_nano.a(lib_a-strlen.o)
 .text          0x00000000        0x0 d:/gcc-arm-none-eabi-10.3-2021.10/bin/../lib/gcc/arm-none-eabi/10.3.1/../../../../arm-none-eabi/lib/thumb/v7e-m+fp/hard\libc_nano.a(lib_a-vsnprintf.o)
 .data          0x00000000        0x0 d:/gcc-arm-none-eabi-10.3-2021.10/bin/../lib/gcc/arm-none-eabi/10.3.1/../../../../arm-none-eabi/lib/thumb/v7e-m+fp/hard\libc_nano.a(lib_a-vsnprintf.o)
 .bss           0x00000000        0x0 d:/gcc-arm-none-eabi-10.3-2021.10/bin/../lib/gcc/arm-none-eabi/10.3.1/../../../../arm-none-eabi/lib/thumb/v7e-m+fp/hard\libc_nano.a(lib_a-vsnprintf.o)
 .text          0x00000000        0x0 d:/gcc-arm-none-eabi-10.3-2021.10/bin/../lib/gcc/arm-none-eabi/10.3.1/../../../../arm-none-eabi/lib/thumb/v7e-m+fp/hard\libc_nano.a(lib_a-nano-svfprintf.o)
 .data          0x00000000        0x0 d:/gcc-arm-none-eabi-10.3-2021.10/bin/../lib/gcc/arm-none-eabi/10.3.1/../../../../arm-none-eabi/lib/thumb/v7e-m+fp/hard\libc_nano.a(lib_a-nano-svfprintf.o)
 .bss           0x00000000        0x0 d:/gcc-arm-none-eabi-10.3-2021.10/bin/../lib/gcc/arm-none-eabi/10.3.1/../../../../arm-none-eabi/lib/thumb/v7e-m+fp/hard\libc_nano.a(lib_a-nano-svfprintf.o)
 .text.__ssprint_r
                0x00000000       0xf6 d:/gcc-arm-none-eabi-10.3-2021.10/bin/../lib/gcc/arm-none-eabi/10.3.1/../../../../arm-none-eabi/lib/thumb/v7e-m+fp/hard\libc_nano.a(lib_a-nano-svfprintf.o)
 .text          0x00000000        0x0 d:/gcc-arm-none-eabi-10.3-2021.10/bin/../lib/gcc/arm-none-eabi/10.3.1/../../../../arm-none-eabi/lib/thumb/v7e-m+fp/hard\libc_nano.a(lib_a-nano-vfprintf_i.o)
 .data          0x00000000        0x0 d:/gcc-arm-none-eabi-10.3-2021.10/bin/../lib/gcc/arm-none-eabi/10.3.1/../../../../arm-none-eabi/lib/thumb/v7e-m+fp/hard\libc_nano.a(lib_a-nano-vfprintf_i.o)
 .bss           0x00000000        0x0 d:/gcc-arm-none-eabi-10.3-2021.10/bin/../lib/gcc/arm-none-eabi/10.3.1/../../../../arm-none-eabi/lib/thumb/v7e-m+fp/hard\libc_nano.a(lib_a-nano-vfprintf_i.o)
 .data          0x00000000        0x0 d:/gcc-arm-none-eabi-10.3-2021.10/bin/../lib/gcc/arm-none-eabi/10.3.1/../../../../arm-none-eabi/lib/thumb/v7e-m+fp/hard\libc_nano.a(lib_a-memchr.o)
 .bss           0x00000000        0x0 d:/gcc-arm-none-eabi-10.3-2021.10/bin/../lib/gcc/arm-none-eabi/10.3.1/../../../../arm-none-eabi/lib/thumb/v7e-m+fp/hard\libc_nano.a(lib_a-memchr.o)
 .text          0x00000000        0x0 d:/gcc-arm-none-eabi-10.3-2021.10/bin/../lib/gcc/arm-none-eabi/10.3.1/../../../../arm-none-eabi/lib/thumb/v7e-m+fp/hard\libc_nano.a(lib_a-memmove.o)
 .data          0x00000000        0x0 d:/gcc-arm-none-eabi-10.3-2021.10/bin/../lib/gcc/arm-none-eabi/10.3.1/../../../../arm-none-eabi/lib/thumb/v7e-m+fp/hard\libc_nano.a(lib_a-memmove.o)
 .bss           0x00000000        0x0 d:/gcc-arm-none-eabi-10.3-2021.10/bin/../lib/gcc/arm-none-eabi/10.3.1/../../../../arm-none-eabi/lib/thumb/v7e-m+fp/hard\libc_nano.a(lib_a-memmove.o)
 .text          0x00000000        0x0 d:/gcc-arm-none-eabi-10.3-2021.10/bin/../lib/gcc/arm-none-eabi/10.3.1/../../../../arm-none-eabi/lib/thumb/v7e-m+fp/hard\libc_nano.a(lib_a-nano-freer.o)
 .data          0x00000000        0x0 d:/gcc-arm-none-eabi-10.3-2021.10/bin/../lib/gcc/arm-none-eabi/10.3.1/../../../../arm-none-eabi/lib/thumb/v7e-m+fp/hard\libc_nano.a(lib_a-nano-freer.o)
 .bss           0x00000000        0x0 d:/gcc-arm-none-eabi-10.3-2021.10/bin/../lib/gcc/arm-none-eabi/10.3.1/../../../../arm-none-eabi/lib/thumb/v7e-m+fp/hard\libc_nano.a(lib_a-nano-freer.o)
 .text          0x00000000        0x0 d:/gcc-arm-none-eabi-10.3-2021.10/bin/../lib/gcc/arm-none-eabi/10.3.1/../../../../arm-none-eabi/lib/thumb/v7e-m+fp/hard\libc_nano.a(lib_a-nano-mallocr.o)
 .data          0x00000000        0x0 d:/gcc-arm-none-eabi-10.3-2021.10/bin/../lib/gcc/arm-none-eabi/10.3.1/../../../../arm-none-eabi/lib/thumb/v7e-m+fp/hard\libc_nano.a(lib_a-nano-mallocr.o)
 .bss           0x00000000        0x0 d:/gcc-arm-none-eabi-10.3-2021.10/bin/../lib/gcc/arm-none-eabi/10.3.1/../../../../arm-none-eabi/lib/thumb/v7e-m+fp/hard\libc_nano.a(lib_a-nano-mallocr.o)
 .text          0x00000000        0x0 d:/gcc-arm-none-eabi-10.3-2021.10/bin/../lib/gcc/arm-none-eabi/10.3.1/../../../../arm-none-eabi/lib/thumb/v7e-m+fp/hard\libc_nano.a(lib_a-nano-reallocr.o)
 .data          0x00000000        0x0 d:/gcc-arm-none-eabi-10.3-2021.10/bin/../lib/gcc/arm-none-eabi/10.3.1/../../../../arm-none-eabi/lib/thumb/v7e-m+fp/hard\libc_nano.a(lib_a-nano-reallocr.o)
 .bss           0x00000000        0x0 d:/gcc-arm-none-eabi-10.3-2021.10/bin/../lib/gcc/arm-none-eabi/10.3.1/../../../../arm-none-eabi/lib/thumb/v7e-m+fp/hard\libc_nano.a(lib_a-nano-reallocr.o)
 .text          0x00000000        0x0 d:/gcc-arm-none-eabi-10.3-2021.10/bin/../lib/gcc/arm-none-eabi/10.3.1/../../../../arm-none-eabi/lib/thumb/v7e-m+fp/hard\libc_nano.a(lib_a-sbrkr.o)
 .data          0x00000000        0x0 d:/gcc-arm-none-eabi-10.3-2021.10/bin/../lib/gcc/arm-none-eabi/10.3.1/../../../../arm-none-eabi/lib/thumb/v7e-m+fp/hard\libc_nano.a(lib_a-sbrkr.o)
 .bss           0x00000000        0x0 d:/gcc-arm-none-eabi-10.3-2021.10/bin/../lib/gcc/arm-none-eabi/10.3.1/../../../../arm-none-eabi/lib/thumb/v7e-m+fp/hard\libc_nano.a(lib_a-sbrkr.o)
 .text          0x00000000        0x0 d:/gcc-arm-none-eabi-10.3-2021.10/bin/../lib/gcc/arm-none-eabi/10.3.1/../../../../arm-none-eabi/lib/thumb/v7e-m+fp/hard\libc_nano.a(lib_a-mlock.o)
 .data          0x00000000        0x0 d:/gcc-arm-none-eabi-10.3-2021.10/bin/../lib/gcc/arm-none-eabi/10.3.1/../../../../arm-none-eabi/lib/thumb/v7e-m+fp/hard\libc_nano.a(lib_a-mlock.o)
 .bss           0x00000000        0x0 d:/gcc-arm-none-eabi-10.3-2021.10/bin/../lib/gcc/arm-none-eabi/10.3.1/../../../../arm-none-eabi/lib/thumb/v7e-m+fp/hard\libc_nano.a(lib_a-mlock.o)
 .text          0x00000000        0x0 d:/gcc-arm-none-eabi-10.3-2021.10/bin/../lib/gcc/arm-none-eabi/10.3.1/../../../../arm-none-eabi/lib/thumb/v7e-m+fp/hard\libc_nano.a(lib_a-nano-msizer.o)
 .data          0x00000000        0x0 d:/gcc-arm-none-eabi-10.3-2021.10/bin/../lib/gcc/arm-none-eabi/10.3.1/../../../../arm-none-eabi/lib/thumb/v7e-m+fp/hard\libc_nano.a(lib_a-nano-msizer.o)
 .bss           0x00000000        0x0 d:/gcc-arm-none-eabi-10.3-2021.10/bin/../lib/gcc/arm-none-eabi/10.3.1/../../../../arm-none-eabi/lib/thumb/v7e-m+fp/hard\libc_nano.a(lib_a-nano-msizer.o)
 .text          0x00000000        0x0 d:/gcc-arm-none-eabi-10.3-2021.10/bin/../lib/gcc/arm-none-eabi/10.3.1/../../../../arm-none-eabi/lib/thumb/v7e-m+fp/hard\libc_nano.a(lib_a-reent.o)
 .data          0x00000000        0x0 d:/gcc-arm-none-eabi-10.3-2021.10/bin/../lib/gcc/arm-none-eabi/10.3.1/../../../../arm-none-eabi/lib/thumb/v7e-m+fp/hard\libc_nano.a(lib_a-reent.o)
 .bss           0x00000000        0x0 d:/gcc-arm-none-eabi-10.3-2021.10/bin/../lib/gcc/arm-none-eabi/10.3.1/../../../../arm-none-eabi/lib/thumb/v7e-m+fp/hard\libc_nano.a(lib_a-reent.o)
 .text.cleanup_glue
                0x00000000       0x1a d:/gcc-arm-none-eabi-10.3-2021.10/bin/../lib/gcc/arm-none-eabi/10.3.1/../../../../arm-none-eabi/lib/thumb/v7e-m+fp/hard\libc_nano.a(lib_a-reent.o)
 .text._reclaim_reent
                0x00000000       0xb8 d:/gcc-arm-none-eabi-10.3-2021.10/bin/../lib/gcc/arm-none-eabi/10.3.1/../../../../arm-none-eabi/lib/thumb/v7e-m+fp/hard\libc_nano.a(lib_a-reent.o)
 .text          0x00000000        0x0 d:/gcc-arm-none-eabi-10.3-2021.10/bin/../lib/gcc/arm-none-eabi/10.3.1/../../../../arm-none-eabi/lib/thumb/v7e-m+fp/hard\libc_nano.a(lib_a-lock.o)
 .data          0x00000000        0x0 d:/gcc-arm-none-eabi-10.3-2021.10/bin/../lib/gcc/arm-none-eabi/10.3.1/../../../../arm-none-eabi/lib/thumb/v7e-m+fp/hard\libc_nano.a(lib_a-lock.o)
 .bss           0x00000000        0x0 d:/gcc-arm-none-eabi-10.3-2021.10/bin/../lib/gcc/arm-none-eabi/10.3.1/../../../../arm-none-eabi/lib/thumb/v7e-m+fp/hard\libc_nano.a(lib_a-lock.o)
 .text.__retarget_lock_init
                0x00000000        0x2 d:/gcc-arm-none-eabi-10.3-2021.10/bin/../lib/gcc/arm-none-eabi/10.3.1/../../../../arm-none-eabi/lib/thumb/v7e-m+fp/hard\libc_nano.a(lib_a-lock.o)
 .text.__retarget_lock_init_recursive
                0x00000000        0x2 d:/gcc-arm-none-eabi-10.3-2021.10/bin/../lib/gcc/arm-none-eabi/10.3.1/../../../../arm-none-eabi/lib/thumb/v7e-m+fp/hard\libc_nano.a(lib_a-lock.o)
 .text.__retarget_lock_close
                0x00000000        0x2 d:/gcc-arm-none-eabi-10.3-2021.10/bin/../lib/gcc/arm-none-eabi/10.3.1/../../../../arm-none-eabi/lib/thumb/v7e-m+fp/hard\libc_nano.a(lib_a-lock.o)
 .text.__retarget_lock_close_recursive
                0x00000000        0x2 d:/gcc-arm-none-eabi-10.3-2021.10/bin/../lib/gcc/arm-none-eabi/10.3.1/../../../../arm-none-eabi/lib/thumb/v7e-m+fp/hard\libc_nano.a(lib_a-lock.o)
 .text.__retarget_lock_acquire
                0x00000000        0x2 d:/gcc-arm-none-eabi-10.3-2021.10/bin/../lib/gcc/arm-none-eabi/10.3.1/../../../../arm-none-eabi/lib/thumb/v7e-m+fp/hard\libc_nano.a(lib_a-lock.o)
 .text.__retarget_lock_try_acquire
                0x00000000        0x4 d:/gcc-arm-none-eabi-10.3-2021.10/bin/../lib/gcc/arm-none-eabi/10.3.1/../../../../arm-none-eabi/lib/thumb/v7e-m+fp/hard\libc_nano.a(lib_a-lock.o)
 .text.__retarget_lock_try_acquire_recursive
                0x00000000        0x4 d:/gcc-arm-none-eabi-10.3-2021.10/bin/../lib/gcc/arm-none-eabi/10.3.1/../../../../arm-none-eabi/lib/thumb/v7e-m+fp/hard\libc_nano.a(lib_a-lock.o)
 .text.__retarget_lock_release
                0x00000000        0x2 d:/gcc-arm-none-eabi-10.3-2021.10/bin/../lib/gcc/arm-none-eabi/10.3.1/../../../../arm-none-eabi/lib/thumb/v7e-m+fp/hard\libc_nano.a(lib_a-lock.o)
 .bss.__lock___arc4random_mutex
                0x00000000        0x1 d:/gcc-arm-none-eabi-10.3-2021.10/bin/../lib/gcc/arm-none-eabi/10.3.1/../../../../arm-none-eabi/lib/thumb/v7e-m+fp/hard\libc_nano.a(lib_a-lock.o)
 .bss.__lock___at_quick_exit_mutex
                0x00000000        0x1 d:/gcc-arm-none-eabi-10.3-2021.10/bin/../lib/gcc/arm-none-eabi/10.3.1/../../../../arm-none-eabi/lib/thumb/v7e-m+fp/hard\libc_nano.a(lib_a-lock.o)
 .bss.__lock___atexit_recursive_mutex
                0x00000000        0x1 d:/gcc-arm-none-eabi-10.3-2021.10/bin/../lib/gcc/arm-none-eabi/10.3.1/../../../../arm-none-eabi/lib/thumb/v7e-m+fp/hard\libc_nano.a(lib_a-lock.o)
 .bss.__lock___dd_hash_mutex
                0x00000000        0x1 d:/gcc-arm-none-eabi-10.3-2021.10/bin/../lib/gcc/arm-none-eabi/10.3.1/../../../../arm-none-eabi/lib/thumb/v7e-m+fp/hard\libc_nano.a(lib_a-lock.o)
 .bss.__lock___env_recursive_mutex
                0x00000000        0x1 d:/gcc-arm-none-eabi-10.3-2021.10/bin/../lib/gcc/arm-none-eabi/10.3.1/../../../../arm-none-eabi/lib/thumb/v7e-m+fp/hard\libc_nano.a(lib_a-lock.o)
 .bss.__lock___sfp_recursive_mutex
                0x00000000        0x1 d:/gcc-arm-none-eabi-10.3-2021.10/bin/../lib/gcc/arm-none-eabi/10.3.1/../../../../arm-none-eabi/lib/thumb/v7e-m+fp/hard\libc_nano.a(lib_a-lock.o)
 .bss.__lock___sinit_recursive_mutex
                0x00000000        0x1 d:/gcc-arm-none-eabi-10.3-2021.10/bin/../lib/gcc/arm-none-eabi/10.3.1/../../../../arm-none-eabi/lib/thumb/v7e-m+fp/hard\libc_nano.a(lib_a-lock.o)
 .bss.__lock___tz_mutex
                0x00000000        0x1 d:/gcc-arm-none-eabi-10.3-2021.10/bin/../lib/gcc/arm-none-eabi/10.3.1/../../../../arm-none-eabi/lib/thumb/v7e-m+fp/hard\libc_nano.a(lib_a-lock.o)
 .text          0x00000000        0x0 d:/gcc-arm-none-eabi-10.3-2021.10/bin/../lib/gcc/arm-none-eabi/10.3.1/../../../../arm-none-eabi/lib/thumb/v7e-m+fp/hard\libm.a(lib_a-s_cos.o)
 .data          0x00000000        0x0 d:/gcc-arm-none-eabi-10.3-2021.10/bin/../lib/gcc/arm-none-eabi/10.3.1/../../../../arm-none-eabi/lib/thumb/v7e-m+fp/hard\libm.a(lib_a-s_cos.o)
 .bss           0x00000000        0x0 d:/gcc-arm-none-eabi-10.3-2021.10/bin/../lib/gcc/arm-none-eabi/10.3.1/../../../../arm-none-eabi/lib/thumb/v7e-m+fp/hard\libm.a(lib_a-s_cos.o)
 .text          0x00000000        0x0 d:/gcc-arm-none-eabi-10.3-2021.10/bin/../lib/gcc/arm-none-eabi/10.3.1/../../../../arm-none-eabi/lib/thumb/v7e-m+fp/hard\libm.a(lib_a-s_round.o)
 .data          0x00000000        0x0 d:/gcc-arm-none-eabi-10.3-2021.10/bin/../lib/gcc/arm-none-eabi/10.3.1/../../../../arm-none-eabi/lib/thumb/v7e-m+fp/hard\libm.a(lib_a-s_round.o)
 .bss           0x00000000        0x0 d:/gcc-arm-none-eabi-10.3-2021.10/bin/../lib/gcc/arm-none-eabi/10.3.1/../../../../arm-none-eabi/lib/thumb/v7e-m+fp/hard\libm.a(lib_a-s_round.o)
 .text          0x00000000        0x0 d:/gcc-arm-none-eabi-10.3-2021.10/bin/../lib/gcc/arm-none-eabi/10.3.1/../../../../arm-none-eabi/lib/thumb/v7e-m+fp/hard\libm.a(lib_a-s_sin.o)
 .data          0x00000000        0x0 d:/gcc-arm-none-eabi-10.3-2021.10/bin/../lib/gcc/arm-none-eabi/10.3.1/../../../../arm-none-eabi/lib/thumb/v7e-m+fp/hard\libm.a(lib_a-s_sin.o)
 .bss           0x00000000        0x0 d:/gcc-arm-none-eabi-10.3-2021.10/bin/../lib/gcc/arm-none-eabi/10.3.1/../../../../arm-none-eabi/lib/thumb/v7e-m+fp/hard\libm.a(lib_a-s_sin.o)
 .text          0x00000000        0x0 d:/gcc-arm-none-eabi-10.3-2021.10/bin/../lib/gcc/arm-none-eabi/10.3.1/../../../../arm-none-eabi/lib/thumb/v7e-m+fp/hard\libm.a(lib_a-w_fmod.o)
 .data          0x00000000        0x0 d:/gcc-arm-none-eabi-10.3-2021.10/bin/../lib/gcc/arm-none-eabi/10.3.1/../../../../arm-none-eabi/lib/thumb/v7e-m+fp/hard\libm.a(lib_a-w_fmod.o)
 .bss           0x00000000        0x0 d:/gcc-arm-none-eabi-10.3-2021.10/bin/../lib/gcc/arm-none-eabi/10.3.1/../../../../arm-none-eabi/lib/thumb/v7e-m+fp/hard\libm.a(lib_a-w_fmod.o)
 .text          0x00000000        0x0 d:/gcc-arm-none-eabi-10.3-2021.10/bin/../lib/gcc/arm-none-eabi/10.3.1/../../../../arm-none-eabi/lib/thumb/v7e-m+fp/hard\libm.a(lib_a-e_fmod.o)
 .data          0x00000000        0x0 d:/gcc-arm-none-eabi-10.3-2021.10/bin/../lib/gcc/arm-none-eabi/10.3.1/../../../../arm-none-eabi/lib/thumb/v7e-m+fp/hard\libm.a(lib_a-e_fmod.o)
 .bss           0x00000000        0x0 d:/gcc-arm-none-eabi-10.3-2021.10/bin/../lib/gcc/arm-none-eabi/10.3.1/../../../../arm-none-eabi/lib/thumb/v7e-m+fp/hard\libm.a(lib_a-e_fmod.o)
 .text          0x00000000        0x0 d:/gcc-arm-none-eabi-10.3-2021.10/bin/../lib/gcc/arm-none-eabi/10.3.1/../../../../arm-none-eabi/lib/thumb/v7e-m+fp/hard\libm.a(lib_a-e_rem_pio2.o)
 .data          0x00000000        0x0 d:/gcc-arm-none-eabi-10.3-2021.10/bin/../lib/gcc/arm-none-eabi/10.3.1/../../../../arm-none-eabi/lib/thumb/v7e-m+fp/hard\libm.a(lib_a-e_rem_pio2.o)
 .bss           0x00000000        0x0 d:/gcc-arm-none-eabi-10.3-2021.10/bin/../lib/gcc/arm-none-eabi/10.3.1/../../../../arm-none-eabi/lib/thumb/v7e-m+fp/hard\libm.a(lib_a-e_rem_pio2.o)
 .text          0x00000000        0x0 d:/gcc-arm-none-eabi-10.3-2021.10/bin/../lib/gcc/arm-none-eabi/10.3.1/../../../../arm-none-eabi/lib/thumb/v7e-m+fp/hard\libm.a(lib_a-k_cos.o)
 .data          0x00000000        0x0 d:/gcc-arm-none-eabi-10.3-2021.10/bin/../lib/gcc/arm-none-eabi/10.3.1/../../../../arm-none-eabi/lib/thumb/v7e-m+fp/hard\libm.a(lib_a-k_cos.o)
 .bss           0x00000000        0x0 d:/gcc-arm-none-eabi-10.3-2021.10/bin/../lib/gcc/arm-none-eabi/10.3.1/../../../../arm-none-eabi/lib/thumb/v7e-m+fp/hard\libm.a(lib_a-k_cos.o)
 .text          0x00000000        0x0 d:/gcc-arm-none-eabi-10.3-2021.10/bin/../lib/gcc/arm-none-eabi/10.3.1/../../../../arm-none-eabi/lib/thumb/v7e-m+fp/hard\libm.a(lib_a-k_rem_pio2.o)
 .data          0x00000000        0x0 d:/gcc-arm-none-eabi-10.3-2021.10/bin/../lib/gcc/arm-none-eabi/10.3.1/../../../../arm-none-eabi/lib/thumb/v7e-m+fp/hard\libm.a(lib_a-k_rem_pio2.o)
 .bss           0x00000000        0x0 d:/gcc-arm-none-eabi-10.3-2021.10/bin/../lib/gcc/arm-none-eabi/10.3.1/../../../../arm-none-eabi/lib/thumb/v7e-m+fp/hard\libm.a(lib_a-k_rem_pio2.o)
 .text          0x00000000        0x0 d:/gcc-arm-none-eabi-10.3-2021.10/bin/../lib/gcc/arm-none-eabi/10.3.1/../../../../arm-none-eabi/lib/thumb/v7e-m+fp/hard\libm.a(lib_a-k_sin.o)
 .data          0x00000000        0x0 d:/gcc-arm-none-eabi-10.3-2021.10/bin/../lib/gcc/arm-none-eabi/10.3.1/../../../../arm-none-eabi/lib/thumb/v7e-m+fp/hard\libm.a(lib_a-k_sin.o)
 .bss           0x00000000        0x0 d:/gcc-arm-none-eabi-10.3-2021.10/bin/../lib/gcc/arm-none-eabi/10.3.1/../../../../arm-none-eabi/lib/thumb/v7e-m+fp/hard\libm.a(lib_a-k_sin.o)
 .text          0x00000000        0x0 d:/gcc-arm-none-eabi-10.3-2021.10/bin/../lib/gcc/arm-none-eabi/10.3.1/../../../../arm-none-eabi/lib/thumb/v7e-m+fp/hard\libm.a(lib_a-s_fabs.o)
 .data          0x00000000        0x0 d:/gcc-arm-none-eabi-10.3-2021.10/bin/../lib/gcc/arm-none-eabi/10.3.1/../../../../arm-none-eabi/lib/thumb/v7e-m+fp/hard\libm.a(lib_a-s_fabs.o)
 .bss           0x00000000        0x0 d:/gcc-arm-none-eabi-10.3-2021.10/bin/../lib/gcc/arm-none-eabi/10.3.1/../../../../arm-none-eabi/lib/thumb/v7e-m+fp/hard\libm.a(lib_a-s_fabs.o)
 .text          0x00000000        0x0 d:/gcc-arm-none-eabi-10.3-2021.10/bin/../lib/gcc/arm-none-eabi/10.3.1/../../../../arm-none-eabi/lib/thumb/v7e-m+fp/hard\libm.a(lib_a-s_floor.o)
 .data          0x00000000        0x0 d:/gcc-arm-none-eabi-10.3-2021.10/bin/../lib/gcc/arm-none-eabi/10.3.1/../../../../arm-none-eabi/lib/thumb/v7e-m+fp/hard\libm.a(lib_a-s_floor.o)
 .bss           0x00000000        0x0 d:/gcc-arm-none-eabi-10.3-2021.10/bin/../lib/gcc/arm-none-eabi/10.3.1/../../../../arm-none-eabi/lib/thumb/v7e-m+fp/hard\libm.a(lib_a-s_floor.o)
 .text          0x00000000        0x0 d:/gcc-arm-none-eabi-10.3-2021.10/bin/../lib/gcc/arm-none-eabi/10.3.1/../../../../arm-none-eabi/lib/thumb/v7e-m+fp/hard\libm.a(lib_a-s_scalbn.o)
 .data          0x00000000        0x0 d:/gcc-arm-none-eabi-10.3-2021.10/bin/../lib/gcc/arm-none-eabi/10.3.1/../../../../arm-none-eabi/lib/thumb/v7e-m+fp/hard\libm.a(lib_a-s_scalbn.o)
 .bss           0x00000000        0x0 d:/gcc-arm-none-eabi-10.3-2021.10/bin/../lib/gcc/arm-none-eabi/10.3.1/../../../../arm-none-eabi/lib/thumb/v7e-m+fp/hard\libm.a(lib_a-s_scalbn.o)
 .text          0x00000000        0x0 d:/gcc-arm-none-eabi-10.3-2021.10/bin/../lib/gcc/arm-none-eabi/10.3.1/../../../../arm-none-eabi/lib/thumb/v7e-m+fp/hard\libnosys.a(sbrk.o)
 .data          0x00000000        0x0 d:/gcc-arm-none-eabi-10.3-2021.10/bin/../lib/gcc/arm-none-eabi/10.3.1/../../../../arm-none-eabi/lib/thumb/v7e-m+fp/hard\libnosys.a(sbrk.o)
 .bss           0x00000000        0x0 d:/gcc-arm-none-eabi-10.3-2021.10/bin/../lib/gcc/arm-none-eabi/10.3.1/../../../../arm-none-eabi/lib/thumb/v7e-m+fp/hard\libnosys.a(sbrk.o)
 .text          0x00000000        0x0 d:/gcc-arm-none-eabi-10.3-2021.10/bin/../lib/gcc/arm-none-eabi/10.3.1/../../../../arm-none-eabi/lib/thumb/v7e-m+fp/hard\libnosys.a(_exit.o)
 .data          0x00000000        0x0 d:/gcc-arm-none-eabi-10.3-2021.10/bin/../lib/gcc/arm-none-eabi/10.3.1/../../../../arm-none-eabi/lib/thumb/v7e-m+fp/hard\libnosys.a(_exit.o)
 .bss           0x00000000        0x0 d:/gcc-arm-none-eabi-10.3-2021.10/bin/../lib/gcc/arm-none-eabi/10.3.1/../../../../arm-none-eabi/lib/thumb/v7e-m+fp/hard\libnosys.a(_exit.o)
 .text._exit    0x00000000        0x4 d:/gcc-arm-none-eabi-10.3-2021.10/bin/../lib/gcc/arm-none-eabi/10.3.1/../../../../arm-none-eabi/lib/thumb/v7e-m+fp/hard\libnosys.a(_exit.o)
 .debug_frame   0x00000000       0x20 d:/gcc-arm-none-eabi-10.3-2021.10/bin/../lib/gcc/arm-none-eabi/10.3.1/../../../../arm-none-eabi/lib/thumb/v7e-m+fp/hard\libnosys.a(_exit.o)
 .ARM.attributes
                0x00000000       0x34 d:/gcc-arm-none-eabi-10.3-2021.10/bin/../lib/gcc/arm-none-eabi/10.3.1/../../../../arm-none-eabi/lib/thumb/v7e-m+fp/hard\libnosys.a(_exit.o)
 .text          0x00000000      0x254 d:/gcc-arm-none-eabi-10.3-2021.10/bin/../lib/gcc/arm-none-eabi/10.3.1/thumb/v7e-m+fp/hard\libgcc.a(_arm_muldf3.o)
 .data          0x00000000        0x0 d:/gcc-arm-none-eabi-10.3-2021.10/bin/../lib/gcc/arm-none-eabi/10.3.1/thumb/v7e-m+fp/hard\libgcc.a(_arm_muldf3.o)
 .bss           0x00000000        0x0 d:/gcc-arm-none-eabi-10.3-2021.10/bin/../lib/gcc/arm-none-eabi/10.3.1/thumb/v7e-m+fp/hard\libgcc.a(_arm_muldf3.o)
 .debug_frame   0x00000000       0x30 d:/gcc-arm-none-eabi-10.3-2021.10/bin/../lib/gcc/arm-none-eabi/10.3.1/thumb/v7e-m+fp/hard\libgcc.a(_arm_muldf3.o)
 .ARM.attributes
                0x00000000       0x1e d:/gcc-arm-none-eabi-10.3-2021.10/bin/../lib/gcc/arm-none-eabi/10.3.1/thumb/v7e-m+fp/hard\libgcc.a(_arm_muldf3.o)
 .data          0x00000000        0x0 d:/gcc-arm-none-eabi-10.3-2021.10/bin/../lib/gcc/arm-none-eabi/10.3.1/thumb/v7e-m+fp/hard\libgcc.a(_arm_addsubdf3.o)
 .bss           0x00000000        0x0 d:/gcc-arm-none-eabi-10.3-2021.10/bin/../lib/gcc/arm-none-eabi/10.3.1/thumb/v7e-m+fp/hard\libgcc.a(_arm_addsubdf3.o)
 .data          0x00000000        0x0 d:/gcc-arm-none-eabi-10.3-2021.10/bin/../lib/gcc/arm-none-eabi/10.3.1/thumb/v7e-m+fp/hard\libgcc.a(_arm_muldivdf3.o)
 .bss           0x00000000        0x0 d:/gcc-arm-none-eabi-10.3-2021.10/bin/../lib/gcc/arm-none-eabi/10.3.1/thumb/v7e-m+fp/hard\libgcc.a(_arm_muldivdf3.o)
 .data          0x00000000        0x0 d:/gcc-arm-none-eabi-10.3-2021.10/bin/../lib/gcc/arm-none-eabi/10.3.1/thumb/v7e-m+fp/hard\libgcc.a(_arm_cmpdf2.o)
 .bss           0x00000000        0x0 d:/gcc-arm-none-eabi-10.3-2021.10/bin/../lib/gcc/arm-none-eabi/10.3.1/thumb/v7e-m+fp/hard\libgcc.a(_arm_cmpdf2.o)
 .data          0x00000000        0x0 d:/gcc-arm-none-eabi-10.3-2021.10/bin/../lib/gcc/arm-none-eabi/10.3.1/thumb/v7e-m+fp/hard\libgcc.a(_arm_unorddf2.o)
 .bss           0x00000000        0x0 d:/gcc-arm-none-eabi-10.3-2021.10/bin/../lib/gcc/arm-none-eabi/10.3.1/thumb/v7e-m+fp/hard\libgcc.a(_arm_unorddf2.o)
 .data          0x00000000        0x0 d:/gcc-arm-none-eabi-10.3-2021.10/bin/../lib/gcc/arm-none-eabi/10.3.1/thumb/v7e-m+fp/hard\libgcc.a(_arm_fixdfsi.o)
 .bss           0x00000000        0x0 d:/gcc-arm-none-eabi-10.3-2021.10/bin/../lib/gcc/arm-none-eabi/10.3.1/thumb/v7e-m+fp/hard\libgcc.a(_arm_fixdfsi.o)
 .data          0x00000000        0x0 d:/gcc-arm-none-eabi-10.3-2021.10/bin/../lib/gcc/arm-none-eabi/10.3.1/thumb/v7e-m+fp/hard\libgcc.a(_arm_truncdfsf2.o)
 .bss           0x00000000        0x0 d:/gcc-arm-none-eabi-10.3-2021.10/bin/../lib/gcc/arm-none-eabi/10.3.1/thumb/v7e-m+fp/hard\libgcc.a(_arm_truncdfsf2.o)
 .data          0x00000000        0x0 d:/gcc-arm-none-eabi-10.3-2021.10/bin/../lib/gcc/arm-none-eabi/10.3.1/thumb/v7e-m+fp/hard\libgcc.a(_aeabi_uldivmod.o)
 .bss           0x00000000        0x0 d:/gcc-arm-none-eabi-10.3-2021.10/bin/../lib/gcc/arm-none-eabi/10.3.1/thumb/v7e-m+fp/hard\libgcc.a(_aeabi_uldivmod.o)
 .data          0x00000000        0x0 d:/gcc-arm-none-eabi-10.3-2021.10/bin/../lib/gcc/arm-none-eabi/10.3.1/thumb/v7e-m+fp/hard\libgcc.a(_udivmoddi4.o)
 .bss           0x00000000        0x0 d:/gcc-arm-none-eabi-10.3-2021.10/bin/../lib/gcc/arm-none-eabi/10.3.1/thumb/v7e-m+fp/hard\libgcc.a(_udivmoddi4.o)
 .ARM.extab     0x00000000        0x0 d:/gcc-arm-none-eabi-10.3-2021.10/bin/../lib/gcc/arm-none-eabi/10.3.1/thumb/v7e-m+fp/hard\libgcc.a(_udivmoddi4.o)
 .data          0x00000000        0x0 d:/gcc-arm-none-eabi-10.3-2021.10/bin/../lib/gcc/arm-none-eabi/10.3.1/thumb/v7e-m+fp/hard\libgcc.a(_dvmd_tls.o)
 .bss           0x00000000        0x0 d:/gcc-arm-none-eabi-10.3-2021.10/bin/../lib/gcc/arm-none-eabi/10.3.1/thumb/v7e-m+fp/hard\libgcc.a(_dvmd_tls.o)
 .text          0x00000000        0x0 d:/gcc-arm-none-eabi-10.3-2021.10/bin/../lib/gcc/arm-none-eabi/10.3.1/../../../../arm-none-eabi/lib/thumb/v7e-m+fp/hard\libc_nano.a(lib_a-errno.o)
 .data          0x00000000        0x0 d:/gcc-arm-none-eabi-10.3-2021.10/bin/../lib/gcc/arm-none-eabi/10.3.1/../../../../arm-none-eabi/lib/thumb/v7e-m+fp/hard\libc_nano.a(lib_a-errno.o)
 .bss           0x00000000        0x0 d:/gcc-arm-none-eabi-10.3-2021.10/bin/../lib/gcc/arm-none-eabi/10.3.1/../../../../arm-none-eabi/lib/thumb/v7e-m+fp/hard\libc_nano.a(lib_a-errno.o)
 .text          0x00000000        0x0 d:/gcc-arm-none-eabi-10.3-2021.10/bin/../lib/gcc/arm-none-eabi/10.3.1/thumb/v7e-m+fp/hard/crtend.o
 .data          0x00000000        0x0 d:/gcc-arm-none-eabi-10.3-2021.10/bin/../lib/gcc/arm-none-eabi/10.3.1/thumb/v7e-m+fp/hard/crtend.o
 .bss           0x00000000        0x0 d:/gcc-arm-none-eabi-10.3-2021.10/bin/../lib/gcc/arm-none-eabi/10.3.1/thumb/v7e-m+fp/hard/crtend.o
 .rodata        0x00000000       0x24 d:/gcc-arm-none-eabi-10.3-2021.10/bin/../lib/gcc/arm-none-eabi/10.3.1/thumb/v7e-m+fp/hard/crtend.o
 .eh_frame      0x00000000        0x4 d:/gcc-arm-none-eabi-10.3-2021.10/bin/../lib/gcc/arm-none-eabi/10.3.1/thumb/v7e-m+fp/hard/crtend.o
 .ARM.attributes
                0x00000000       0x34 d:/gcc-arm-none-eabi-10.3-2021.10/bin/../lib/gcc/arm-none-eabi/10.3.1/thumb/v7e-m+fp/hard/crtend.o
 .text          0x00000000        0x0 d:/gcc-arm-none-eabi-10.3-2021.10/bin/../lib/gcc/arm-none-eabi/10.3.1/thumb/v7e-m+fp/hard/crtn.o
 .data          0x00000000        0x0 d:/gcc-arm-none-eabi-10.3-2021.10/bin/../lib/gcc/arm-none-eabi/10.3.1/thumb/v7e-m+fp/hard/crtn.o
 .bss           0x00000000        0x0 d:/gcc-arm-none-eabi-10.3-2021.10/bin/../lib/gcc/arm-none-eabi/10.3.1/thumb/v7e-m+fp/hard/crtn.o

Memory Configuration

Name             Origin             Length             Attributes
RAM              0x20000000         0x00030000         xrw
CCMRAM           0x10000000         0x00010000         xrw
FLASH            0x08000000         0x00100000         xr
*default*        0x00000000         0xffffffff

Linker script and memory map

LOAD d:/gcc-arm-none-eabi-10.3-2021.10/bin/../lib/gcc/arm-none-eabi/10.3.1/thumb/v7e-m+fp/hard/crti.o
LOAD d:/gcc-arm-none-eabi-10.3-2021.10/bin/../lib/gcc/arm-none-eabi/10.3.1/thumb/v7e-m+fp/hard/crtbegin.o
LOAD d:/gcc-arm-none-eabi-10.3-2021.10/bin/../lib/gcc/arm-none-eabi/10.3.1/../../../../arm-none-eabi/lib/thumb/v7e-m+fp/hard/crt0.o
LOAD build/main.o
LOAD build/gpio.o
LOAD build/dma.o
LOAD build/tim.o
LOAD build/motor.o
LOAD build/bsp_as5600.o
LOAD build/usart.o
LOAD build/stm32f4xx_it.o
LOAD build/stm32f4xx_hal_msp.o
LOAD build/stm32f4xx_hal_tim.o
LOAD build/stm32f4xx_hal_tim_ex.o
LOAD build/stm32f4xx_hal_rcc.o
LOAD build/stm32f4xx_hal_rcc_ex.o
LOAD build/stm32f4xx_hal_flash.o
LOAD build/stm32f4xx_hal_flash_ex.o
LOAD build/stm32f4xx_hal_flash_ramfunc.o
LOAD build/stm32f4xx_hal_gpio.o
LOAD build/stm32f4xx_hal_dma_ex.o
LOAD build/stm32f4xx_hal_dma.o
LOAD build/stm32f4xx_hal_pwr.o
LOAD build/stm32f4xx_hal_pwr_ex.o
LOAD build/stm32f4xx_hal_cortex.o
LOAD build/stm32f4xx_hal.o
LOAD build/stm32f4xx_hal_exti.o
LOAD build/stm32f4xx_hal_uart.o
LOAD build/arm_sin_f32.o
LOAD build/arm_common_tables.o
LOAD build/system_stm32f4xx.o
LOAD build/spi.o
LOAD build/lcd_fonts.o
LOAD build/stm32f4xx_hal_spi.o
LOAD build/stm32f4xx_hal_timebase_tim.o
LOAD build/freertos.o
LOAD build/croutine.o
LOAD build/event_groups.o
LOAD build/list.o
LOAD build/queue.o
LOAD build/stream_buffer.o
LOAD build/tasks.o
LOAD build/timers.o
LOAD build/heap_4.o
LOAD build/port.o
LOAD build/cmsis_os2.o
LOAD build/i2c.o
LOAD build/stm32f4xx_hal_i2c.o
LOAD build/stm32f4xx_hal_i2c_ex.o
LOAD build/startup_stm32f429xx.o
LOAD d:/gcc-arm-none-eabi-10.3-2021.10/bin/../lib/gcc/arm-none-eabi/10.3.1/../../../../arm-none-eabi/lib/thumb/v7e-m+fp/hard\libc_nano.a
LOAD d:/gcc-arm-none-eabi-10.3-2021.10/bin/../lib/gcc/arm-none-eabi/10.3.1/../../../../arm-none-eabi/lib/thumb/v7e-m+fp/hard\libm.a
LOAD d:/gcc-arm-none-eabi-10.3-2021.10/bin/../lib/gcc/arm-none-eabi/10.3.1/../../../../arm-none-eabi/lib/thumb/v7e-m+fp/hard\libnosys.a
START GROUP
LOAD d:/gcc-arm-none-eabi-10.3-2021.10/bin/../lib/gcc/arm-none-eabi/10.3.1/thumb/v7e-m+fp/hard\libgcc.a
LOAD d:/gcc-arm-none-eabi-10.3-2021.10/bin/../lib/gcc/arm-none-eabi/10.3.1/../../../../arm-none-eabi/lib/thumb/v7e-m+fp/hard\libc_nano.a
END GROUP
START GROUP
LOAD d:/gcc-arm-none-eabi-10.3-2021.10/bin/../lib/gcc/arm-none-eabi/10.3.1/thumb/v7e-m+fp/hard\libgcc.a
LOAD d:/gcc-arm-none-eabi-10.3-2021.10/bin/../lib/gcc/arm-none-eabi/10.3.1/../../../../arm-none-eabi/lib/thumb/v7e-m+fp/hard\libc_nano.a
END GROUP
LOAD d:/gcc-arm-none-eabi-10.3-2021.10/bin/../lib/gcc/arm-none-eabi/10.3.1/thumb/v7e-m+fp/hard/crtend.o
LOAD d:/gcc-arm-none-eabi-10.3-2021.10/bin/../lib/gcc/arm-none-eabi/10.3.1/thumb/v7e-m+fp/hard/crtn.o
                0x20030000                _estack = (ORIGIN (RAM) + LENGTH (RAM))
                0x00000200                _Min_Heap_Size = 0x200
                0x00000400                _Min_Stack_Size = 0x400

.isr_vector     0x08000000      0x1ac
                0x08000000                . = ALIGN (0x4)
 *(.isr_vector)
 .isr_vector    0x08000000      0x1ac build/startup_stm32f429xx.o
                0x08000000                g_pfnVectors
                0x080001ac                . = ALIGN (0x4)

.text           0x080001b0     0x96dc
                0x080001b0                . = ALIGN (0x4)
 *(.text)
 .text          0x080001b0       0x40 d:/gcc-arm-none-eabi-10.3-2021.10/bin/../lib/gcc/arm-none-eabi/10.3.1/thumb/v7e-m+fp/hard/crtbegin.o
 .text          0x080001f0       0x10 d:/gcc-arm-none-eabi-10.3-2021.10/bin/../lib/gcc/arm-none-eabi/10.3.1/../../../../arm-none-eabi/lib/thumb/v7e-m+fp/hard\libc_nano.a(lib_a-strlen.o)
                0x080001f0                strlen
 .text          0x08000200       0xa0 d:/gcc-arm-none-eabi-10.3-2021.10/bin/../lib/gcc/arm-none-eabi/10.3.1/../../../../arm-none-eabi/lib/thumb/v7e-m+fp/hard\libc_nano.a(lib_a-memchr.o)
                0x08000200                memchr
 .text          0x080002a0      0x378 d:/gcc-arm-none-eabi-10.3-2021.10/bin/../lib/gcc/arm-none-eabi/10.3.1/thumb/v7e-m+fp/hard\libgcc.a(_arm_addsubdf3.o)
                0x080002a0                __aeabi_drsub
                0x080002a8                __aeabi_dsub
                0x080002a8                __subdf3
                0x080002ac                __aeabi_dadd
                0x080002ac                __adddf3
                0x08000524                __floatunsidf
                0x08000524                __aeabi_ui2d
                0x08000544                __floatsidf
                0x08000544                __aeabi_i2d
                0x08000568                __aeabi_f2d
                0x08000568                __extendsfdf2
                0x080005ac                __floatundidf
                0x080005ac                __aeabi_ul2d
                0x080005bc                __floatdidf
                0x080005bc                __aeabi_l2d
 .text          0x08000618      0x424 d:/gcc-arm-none-eabi-10.3-2021.10/bin/../lib/gcc/arm-none-eabi/10.3.1/thumb/v7e-m+fp/hard\libgcc.a(_arm_muldivdf3.o)
                0x08000618                __aeabi_dmul
                0x08000618                __muldf3
                0x0800086c                __divdf3
                0x0800086c                __aeabi_ddiv
 .text          0x08000a3c      0x110 d:/gcc-arm-none-eabi-10.3-2021.10/bin/../lib/gcc/arm-none-eabi/10.3.1/thumb/v7e-m+fp/hard\libgcc.a(_arm_cmpdf2.o)
                0x08000a3c                __gtdf2
                0x08000a3c                __gedf2
                0x08000a44                __ltdf2
                0x08000a44                __ledf2
                0x08000a4c                __nedf2
                0x08000a4c                __eqdf2
                0x08000a4c                __cmpdf2
                0x08000ac8                __aeabi_cdrcmple
                0x08000ad8                __aeabi_cdcmpeq
                0x08000ad8                __aeabi_cdcmple
                0x08000ae8                __aeabi_dcmpeq
                0x08000afc                __aeabi_dcmplt
                0x08000b10                __aeabi_dcmple
                0x08000b24                __aeabi_dcmpge
                0x08000b38                __aeabi_dcmpgt
 .text          0x08000b4c       0x2c d:/gcc-arm-none-eabi-10.3-2021.10/bin/../lib/gcc/arm-none-eabi/10.3.1/thumb/v7e-m+fp/hard\libgcc.a(_arm_unorddf2.o)
                0x08000b4c                __unorddf2
                0x08000b4c                __aeabi_dcmpun
 .text          0x08000b78       0x50 d:/gcc-arm-none-eabi-10.3-2021.10/bin/../lib/gcc/arm-none-eabi/10.3.1/thumb/v7e-m+fp/hard\libgcc.a(_arm_fixdfsi.o)
                0x08000b78                __aeabi_d2iz
                0x08000b78                __fixdfsi
 .text          0x08000bc8       0xa0 d:/gcc-arm-none-eabi-10.3-2021.10/bin/../lib/gcc/arm-none-eabi/10.3.1/thumb/v7e-m+fp/hard\libgcc.a(_arm_truncdfsf2.o)
                0x08000bc8                __truncdfsf2
                0x08000bc8                __aeabi_d2f
 .text          0x08000c68       0x30 d:/gcc-arm-none-eabi-10.3-2021.10/bin/../lib/gcc/arm-none-eabi/10.3.1/thumb/v7e-m+fp/hard\libgcc.a(_aeabi_uldivmod.o)
                0x08000c68                __aeabi_uldivmod
 .text          0x08000c98      0x2d0 d:/gcc-arm-none-eabi-10.3-2021.10/bin/../lib/gcc/arm-none-eabi/10.3.1/thumb/v7e-m+fp/hard\libgcc.a(_udivmoddi4.o)
                0x08000c98                __udivmoddi4
 .text          0x08000f68        0x4 d:/gcc-arm-none-eabi-10.3-2021.10/bin/../lib/gcc/arm-none-eabi/10.3.1/thumb/v7e-m+fp/hard\libgcc.a(_dvmd_tls.o)
                0x08000f68                __aeabi_idiv0
                0x08000f68                __aeabi_ldiv0
 *(.text*)
 .text.HAL_TIM_PeriodElapsedCallback
                0x08000f6c       0x18 build/main.o
                0x08000f6c                HAL_TIM_PeriodElapsedCallback
 .text.Error_Handler
                0x08000f84        0x4 build/main.o
                0x08000f84                Error_Handler
 .text.SystemClock_Config
                0x08000f88       0xb4 build/main.o
                0x08000f88                SystemClock_Config
 .text.main     0x0800103c       0x5c build/main.o
                0x0800103c                main
 .text.MX_GPIO_Init
                0x08001098      0x10c build/gpio.o
                0x08001098                MX_GPIO_Init
 .text.MX_DMA_Init
                0x080011a4       0x68 build/dma.o
                0x080011a4                MX_DMA_Init
 .text.HAL_SPI_TxCpltCallback
                0x0800120c        0xc build/dma.o
                0x0800120c                HAL_SPI_TxCpltCallback
 .text.MX_TIM5_Init
                0x08001218       0x70 build/tim.o
                0x08001218                MX_TIM5_Init
 .text.HAL_TIM_Base_MspInit
                0x08001288       0x74 build/tim.o
                0x08001288                HAL_TIM_Base_MspInit
 .text.HAL_TIM_MspPostInit
                0x080012fc       0x58 build/tim.o
                0x080012fc                HAL_TIM_MspPostInit
 .text.MX_TIM4_Init
                0x08001354       0xe0 build/tim.o
                0x08001354                MX_TIM4_Init
 .text._electricalAngle
                0x08001434        0xe build/motor.o
                0x08001434                _electricalAngle
 *fill*         0x08001442        0x6 
 .text._normalizeAngle
                0x08001448       0x44 build/motor.o
                0x08001448                _normalizeAngle
 .text.setPwm   0x0800148c       0xf4 build/motor.o
                0x0800148c                setPwm
 .text.setPhaseVoltage
                0x08001580      0x158 build/motor.o
                0x08001580                setPhaseVoltage
 .text.velocityOpenloop
                0x080016d8       0xac build/motor.o
                0x080016d8                velocityOpenloop
 .text.i2cWrite
                0x08001784       0x20 build/bsp_as5600.o
 .text.i2cRead  0x080017a4       0x20 build/bsp_as5600.o
 .text.bsp_as5600GetRawAngle
                0x080017c4       0x38 build/bsp_as5600.o
                0x080017c4                bsp_as5600GetRawAngle
 .text.bsp_as5600Init
                0x080017fc       0x24 build/bsp_as5600.o
                0x080017fc                bsp_as5600Init
 .text.bsp_as5600GetAngle
                0x08001820       0xdc build/bsp_as5600.o
                0x08001820                bsp_as5600GetAngle
 .text.Usart1Printf
                0x080018fc       0x34 build/usart.o
                0x080018fc                Usart1Printf
 .text.MX_USART1_UART_Init
                0x08001930       0x34 build/usart.o
                0x08001930                MX_USART1_UART_Init
 .text.HAL_UART_MspInit
                0x08001964      0x100 build/usart.o
                0x08001964                HAL_UART_MspInit
 .text.NMI_Handler
                0x08001a64        0x2 build/stm32f4xx_it.o
                0x08001a64                NMI_Handler
 .text.HardFault_Handler
                0x08001a66        0x2 build/stm32f4xx_it.o
                0x08001a66                HardFault_Handler
 .text.MemManage_Handler
                0x08001a68        0x2 build/stm32f4xx_it.o
                0x08001a68                MemManage_Handler
 .text.BusFault_Handler
                0x08001a6a        0x2 build/stm32f4xx_it.o
                0x08001a6a                BusFault_Handler
 .text.UsageFault_Handler
                0x08001a6c        0x2 build/stm32f4xx_it.o
                0x08001a6c                UsageFault_Handler
 .text.DebugMon_Handler
                0x08001a6e        0x2 build/stm32f4xx_it.o
                0x08001a6e                DebugMon_Handler
 .text.DMA1_Stream5_IRQHandler
                0x08001a70       0x10 build/stm32f4xx_it.o
                0x08001a70                DMA1_Stream5_IRQHandler
 .text.TIM1_UP_TIM10_IRQHandler
                0x08001a80       0x10 build/stm32f4xx_it.o
                0x08001a80                TIM1_UP_TIM10_IRQHandler
 .text.TIM4_IRQHandler
                0x08001a90       0x10 build/stm32f4xx_it.o
                0x08001a90                TIM4_IRQHandler
 .text.USART1_IRQHandler
                0x08001aa0       0x10 build/stm32f4xx_it.o
                0x08001aa0                USART1_IRQHandler
 .text.TIM5_IRQHandler
                0x08001ab0       0x1c build/stm32f4xx_it.o
                0x08001ab0                TIM5_IRQHandler
 .text.DMA2_Stream2_IRQHandler
                0x08001acc       0x10 build/stm32f4xx_it.o
                0x08001acc                DMA2_Stream2_IRQHandler
 .text.DMA2_Stream7_IRQHandler
                0x08001adc       0x10 build/stm32f4xx_it.o
                0x08001adc                DMA2_Stream7_IRQHandler
 .text.micros   0x08001aec        0xc build/stm32f4xx_it.o
                0x08001aec                micros
 .text.HAL_MspInit
                0x08001af8       0x44 build/stm32f4xx_hal_msp.o
                0x08001af8                HAL_MspInit
 .text.TIM_OC1_SetConfig
                0x08001b3c       0x68 build/stm32f4xx_hal_tim.o
 .text.TIM_OC3_SetConfig
                0x08001ba4       0x70 build/stm32f4xx_hal_tim.o
 .text.TIM_OC4_SetConfig
                0x08001c14       0x50 build/stm32f4xx_hal_tim.o
 .text.TIM_TI1_ConfigInputStage
                0x08001c64       0x26 build/stm32f4xx_hal_tim.o
 .text.TIM_TI2_ConfigInputStage
                0x08001c8a       0x28 build/stm32f4xx_hal_tim.o
 .text.TIM_ITRx_SetConfig
                0x08001cb2       0x10 build/stm32f4xx_hal_tim.o
 *fill*         0x08001cc2        0x2 
 .text.HAL_TIM_Base_Start_IT
                0x08001cc4       0x88 build/stm32f4xx_hal_tim.o
                0x08001cc4                HAL_TIM_Base_Start_IT
 .text.HAL_TIM_PWM_MspInit
                0x08001d4c        0x2 build/stm32f4xx_hal_tim.o
                0x08001d4c                HAL_TIM_PWM_MspInit
 .text.HAL_TIM_OC_DelayElapsedCallback
                0x08001d4e        0x2 build/stm32f4xx_hal_tim.o
                0x08001d4e                HAL_TIM_OC_DelayElapsedCallback
 .text.HAL_TIM_IC_CaptureCallback
                0x08001d50        0x2 build/stm32f4xx_hal_tim.o
                0x08001d50                HAL_TIM_IC_CaptureCallback
 .text.HAL_TIM_PWM_PulseFinishedCallback
                0x08001d52        0x2 build/stm32f4xx_hal_tim.o
                0x08001d52                HAL_TIM_PWM_PulseFinishedCallback
 .text.HAL_TIM_TriggerCallback
                0x08001d54        0x2 build/stm32f4xx_hal_tim.o
                0x08001d54                HAL_TIM_TriggerCallback
 .text.HAL_TIM_IRQHandler
                0x08001d56      0x15e build/stm32f4xx_hal_tim.o
                0x08001d56                HAL_TIM_IRQHandler
 .text.TIM_Base_SetConfig
                0x08001eb4       0xd8 build/stm32f4xx_hal_tim.o
                0x08001eb4                TIM_Base_SetConfig
 .text.HAL_TIM_Base_Init
                0x08001f8c       0x58 build/stm32f4xx_hal_tim.o
                0x08001f8c                HAL_TIM_Base_Init
 .text.HAL_TIM_PWM_Init
                0x08001fe4       0x58 build/stm32f4xx_hal_tim.o
                0x08001fe4                HAL_TIM_PWM_Init
 .text.TIM_OC2_SetConfig
                0x0800203c       0x70 build/stm32f4xx_hal_tim.o
                0x0800203c                TIM_OC2_SetConfig
 .text.HAL_TIM_PWM_ConfigChannel
                0x080020ac       0xdc build/stm32f4xx_hal_tim.o
                0x080020ac                HAL_TIM_PWM_ConfigChannel
 .text.TIM_ETR_SetConfig
                0x08002188       0x1a build/stm32f4xx_hal_tim.o
                0x08002188                TIM_ETR_SetConfig
 .text.HAL_TIM_ConfigClockSource
                0x080021a2       0xfe build/stm32f4xx_hal_tim.o
                0x080021a2                HAL_TIM_ConfigClockSource
 .text.TIM_CCxChannelCmd
                0x080022a0       0x1e build/stm32f4xx_hal_tim.o
                0x080022a0                TIM_CCxChannelCmd
 *fill*         0x080022be        0x2 
 .text.HAL_TIM_PWM_Start
                0x080022c0      0x104 build/stm32f4xx_hal_tim.o
                0x080022c0                HAL_TIM_PWM_Start
 .text.HAL_TIMEx_MasterConfigSynchronization
                0x080023c4       0x8c build/stm32f4xx_hal_tim_ex.o
                0x080023c4                HAL_TIMEx_MasterConfigSynchronization
 .text.HAL_TIMEx_CommutCallback
                0x08002450        0x2 build/stm32f4xx_hal_tim_ex.o
                0x08002450                HAL_TIMEx_CommutCallback
 .text.HAL_TIMEx_BreakCallback
                0x08002452        0x2 build/stm32f4xx_hal_tim_ex.o
                0x08002452                HAL_TIMEx_BreakCallback
 .text.HAL_RCC_OscConfig
                0x08002454      0x3f8 build/stm32f4xx_hal_rcc.o
                0x08002454                HAL_RCC_OscConfig
 .text.HAL_RCC_GetSysClockFreq
                0x0800284c       0xa4 build/stm32f4xx_hal_rcc.o
                0x0800284c                HAL_RCC_GetSysClockFreq
 .text.HAL_RCC_ClockConfig
                0x080028f0      0x160 build/stm32f4xx_hal_rcc.o
                0x080028f0                HAL_RCC_ClockConfig
 .text.HAL_RCC_GetHCLKFreq
                0x08002a50        0xc build/stm32f4xx_hal_rcc.o
                0x08002a50                HAL_RCC_GetHCLKFreq
 .text.HAL_RCC_GetPCLK1Freq
                0x08002a5c       0x20 build/stm32f4xx_hal_rcc.o
                0x08002a5c                HAL_RCC_GetPCLK1Freq
 .text.HAL_RCC_GetPCLK2Freq
                0x08002a7c       0x20 build/stm32f4xx_hal_rcc.o
                0x08002a7c                HAL_RCC_GetPCLK2Freq
 .text.HAL_RCC_GetClockConfig
                0x08002a9c       0x3c build/stm32f4xx_hal_rcc.o
                0x08002a9c                HAL_RCC_GetClockConfig
 .text.HAL_GPIO_Init
                0x08002ad8      0x1fc build/stm32f4xx_hal_gpio.o
                0x08002ad8                HAL_GPIO_Init
 .text.HAL_GPIO_WritePin
                0x08002cd4        0xc build/stm32f4xx_hal_gpio.o
                0x08002cd4                HAL_GPIO_WritePin
 .text.DMA_SetConfig
                0x08002ce0       0x2c build/stm32f4xx_hal_dma.o
 .text.DMA_CalcBaseAndBitshift
                0x08002d0c       0x44 build/stm32f4xx_hal_dma.o
 .text.DMA_CheckFifoParam
                0x08002d50       0x8e build/stm32f4xx_hal_dma.o
 *fill*         0x08002dde        0x2 
 .text.HAL_DMA_Init
                0x08002de0       0xcc build/stm32f4xx_hal_dma.o
                0x08002de0                HAL_DMA_Init
 .text.HAL_DMA_Start_IT
                0x08002eac       0x6a build/stm32f4xx_hal_dma.o
                0x08002eac                HAL_DMA_Start_IT
 .text.HAL_DMA_Abort
                0x08002f16       0x94 build/stm32f4xx_hal_dma.o
                0x08002f16                HAL_DMA_Abort
 .text.HAL_DMA_Abort_IT
                0x08002faa       0x26 build/stm32f4xx_hal_dma.o
                0x08002faa                HAL_DMA_Abort_IT
 .text.HAL_DMA_IRQHandler
                0x08002fd0      0x1dc build/stm32f4xx_hal_dma.o
                0x08002fd0                HAL_DMA_IRQHandler
 .text.HAL_PWREx_EnableOverDrive
                0x080031ac       0x7c build/stm32f4xx_hal_pwr_ex.o
                0x080031ac                HAL_PWREx_EnableOverDrive
 .text.HAL_NVIC_SetPriorityGrouping
                0x08003228       0x24 build/stm32f4xx_hal_cortex.o
                0x08003228                HAL_NVIC_SetPriorityGrouping
 .text.HAL_NVIC_SetPriority
                0x0800324c       0x70 build/stm32f4xx_hal_cortex.o
                0x0800324c                HAL_NVIC_SetPriority
 .text.HAL_NVIC_EnableIRQ
                0x080032bc       0x1c build/stm32f4xx_hal_cortex.o
                0x080032bc                HAL_NVIC_EnableIRQ
 .text.HAL_Init
                0x080032d8       0x34 build/stm32f4xx_hal.o
                0x080032d8                HAL_Init
 .text.HAL_IncTick
                0x0800330c       0x18 build/stm32f4xx_hal.o
                0x0800330c                HAL_IncTick
 .text.HAL_GetTick
                0x08003324        0xc build/stm32f4xx_hal.o
                0x08003324                HAL_GetTick
 .text.HAL_Delay
                0x08003330       0x28 build/stm32f4xx_hal.o
                0x08003330                HAL_Delay
 .text.UART_EndTxTransfer
                0x08003358       0x20 build/stm32f4xx_hal_uart.o
 .text.UART_EndRxTransfer
                0x08003378       0x5c build/stm32f4xx_hal_uart.o
 .text.UART_Transmit_IT
                0x080033d4       0x60 build/stm32f4xx_hal_uart.o
 .text.UART_SetConfig
                0x08003434      0x110 build/stm32f4xx_hal_uart.o
 .text.HAL_UART_Init
                0x08003544       0x60 build/stm32f4xx_hal_uart.o
                0x08003544                HAL_UART_Init
 .text.HAL_UART_Transmit_DMA
                0x080035a4       0x84 build/stm32f4xx_hal_uart.o
                0x080035a4                HAL_UART_Transmit_DMA
 .text.HAL_UART_TxCpltCallback
                0x08003628        0x2 build/stm32f4xx_hal_uart.o
                0x08003628                HAL_UART_TxCpltCallback
 .text.UART_DMATransmitCplt
                0x0800362a       0x4c build/stm32f4xx_hal_uart.o
 .text.UART_EndTransmit_IT
                0x08003676       0x1a build/stm32f4xx_hal_uart.o
 .text.HAL_UART_TxHalfCpltCallback
                0x08003690        0x2 build/stm32f4xx_hal_uart.o
                0x08003690                HAL_UART_TxHalfCpltCallback
 .text.UART_DMATxHalfCplt
                0x08003692        0xa build/stm32f4xx_hal_uart.o
 .text.HAL_UART_RxCpltCallback
                0x0800369c        0x2 build/stm32f4xx_hal_uart.o
                0x0800369c                HAL_UART_RxCpltCallback
 .text.HAL_UART_ErrorCallback
                0x0800369e        0x2 build/stm32f4xx_hal_uart.o
                0x0800369e                HAL_UART_ErrorCallback
 .text.UART_DMAError
                0x080036a0       0x58 build/stm32f4xx_hal_uart.o
 .text.UART_DMAAbortOnError
                0x080036f8       0x10 build/stm32f4xx_hal_uart.o
 .text.HAL_UARTEx_RxEventCallback
                0x08003708        0x2 build/stm32f4xx_hal_uart.o
                0x08003708                HAL_UARTEx_RxEventCallback
 .text.UART_Receive_IT
                0x0800370a       0xe6 build/stm32f4xx_hal_uart.o
 .text.HAL_UART_IRQHandler
                0x080037f0      0x288 build/stm32f4xx_hal_uart.o
                0x080037f0                HAL_UART_IRQHandler
 .text.SystemInit
                0x08003a78       0x14 build/system_stm32f4xx.o
                0x08003a78                SystemInit
 .text.MX_SPI3_Init
                0x08003a8c       0x40 build/spi.o
                0x08003a8c                MX_SPI3_Init
 .text.HAL_SPI_MspInit
                0x08003acc      0x13c build/spi.o
                0x08003acc                HAL_SPI_MspInit
 .text.LCD_WriteCommand
                0x08003c08       0x30 build/spi.o
                0x08003c08                LCD_WriteCommand
 .text.LCD_WriteData_8bit
                0x08003c38       0x30 build/spi.o
                0x08003c38                LCD_WriteData_8bit
 .text.LCD_WriteData_16bit
                0x08003c68       0x44 build/spi.o
                0x08003c68                LCD_WriteData_16bit
 .text.LCD_WriteBuff
                0x08003cac       0x38 build/spi.o
                0x08003cac                LCD_WriteBuff
 .text.LCD_SetAddress
                0x08003ce4       0x54 build/spi.o
                0x08003ce4                LCD_SetAddress
 .text.LCD_SetColor
                0x08003d38        0xc build/spi.o
                0x08003d38                LCD_SetColor
 .text.LCD_SetBackColor
                0x08003d44        0xc build/spi.o
                0x08003d44                LCD_SetBackColor
 .text.LCD_SetDirection
                0x08003d50       0xa4 build/spi.o
                0x08003d50                LCD_SetDirection
 .text.LCD_SetAsciiFont
                0x08003df4        0xc build/spi.o
                0x08003df4                LCD_SetAsciiFont
 .text.LCD_Clear
                0x08003e00       0x74 build/spi.o
                0x08003e00                LCD_Clear
 .text.LCD_DisplayChar
                0x08003e74       0xb0 build/spi.o
                0x08003e74                LCD_DisplayChar
 .text.LCD_DisplayString
                0x08003f24       0x38 build/spi.o
                0x08003f24                LCD_DisplayString
 .text.LCD_ShowNumMode
                0x08003f5c        0xc build/spi.o
                0x08003f5c                LCD_ShowNumMode
 .text.SPI_LCD_Init
                0x08003f68      0x1b4 build/spi.o
                0x08003f68                SPI_LCD_Init
 .text.LCD_DisplayNumber
                0x0800411c       0x44 build/spi.o
                0x0800411c                LCD_DisplayNumber
 .text.LCD_DisplayDecimals
                0x08004160      0x1c0 build/spi.o
                0x08004160                LCD_DisplayDecimals
 .text.SPI_WaitFlagStateUntilTimeout
                0x08004320       0xd4 build/stm32f4xx_hal_spi.o
 .text.SPI_EndRxTxTransaction
                0x080043f4       0x80 build/stm32f4xx_hal_spi.o
 .text.HAL_SPI_Init
                0x08004474       0xbe build/stm32f4xx_hal_spi.o
                0x08004474                HAL_SPI_Init
 .text.HAL_SPI_Transmit
                0x08004532      0x1b8 build/stm32f4xx_hal_spi.o
                0x08004532                HAL_SPI_Transmit
 *fill*         0x080046ea        0x2 
 .text.HAL_SPI_Transmit_DMA
                0x080046ec       0xd8 build/stm32f4xx_hal_spi.o
                0x080046ec                HAL_SPI_Transmit_DMA
 .text.HAL_SPI_TxHalfCpltCallback
                0x080047c4        0x2 build/stm32f4xx_hal_spi.o
                0x080047c4                HAL_SPI_TxHalfCpltCallback
 .text.SPI_DMAHalfTransmitCplt
                0x080047c6        0xa build/stm32f4xx_hal_spi.o
 .text.HAL_SPI_ErrorCallback
                0x080047d0        0x2 build/stm32f4xx_hal_spi.o
                0x080047d0                HAL_SPI_ErrorCallback
 .text.SPI_DMAError
                0x080047d2       0x22 build/stm32f4xx_hal_spi.o
 .text.SPI_DMATransmitCplt
                0x080047f4       0x70 build/stm32f4xx_hal_spi.o
 .text.HAL_InitTick
                0x08004864       0x98 build/stm32f4xx_hal_timebase_tim.o
                0x08004864                HAL_InitTick
 .text.StartTask
                0x080048fc       0x84 build/freertos.o
                0x080048fc                StartTask
 .text.MotorTask
                0x08004980       0x12 build/freertos.o
                0x08004980                MotorTask
 *fill*         0x08004992        0x6 
 .text.HallTask
                0x08004998       0xd4 build/freertos.o
                0x08004998                HallTask
 .text.MX_FREERTOS_Init
                0x08004a6c       0x20 build/freertos.o
                0x08004a6c                MX_FREERTOS_Init
 .text.LCD_Test_Clear
                0x08004a8c       0x74 build/freertos.o
                0x08004a8c                LCD_Test_Clear
 .text.LCD_Test_Variable
                0x08004b00      0x178 build/freertos.o
                0x08004b00                LCD_Test_Variable
 .text.LCDViewTask
                0x08004c78        0xc build/freertos.o
                0x08004c78                LCDViewTask
 .text.vListInitialise
                0x08004c84       0x16 build/list.o
                0x08004c84                vListInitialise
 .text.vListInitialiseItem
                0x08004c9a        0x6 build/list.o
                0x08004c9a                vListInitialiseItem
 .text.vListInsertEnd
                0x08004ca0       0x16 build/list.o
                0x08004ca0                vListInsertEnd
 .text.vListInsert
                0x08004cb6       0x32 build/list.o
                0x08004cb6                vListInsert
 .text.uxListRemove
                0x08004ce8       0x26 build/list.o
                0x08004ce8                uxListRemove
 .text.prvIsQueueFull
                0x08004d0e       0x1e build/queue.o
 .text.prvIsQueueEmpty
                0x08004d2c       0x1a build/queue.o
 .text.prvCopyDataToQueue
                0x08004d46       0x76 build/queue.o
 .text.prvCopyDataFromQueue
                0x08004dbc       0x24 build/queue.o
 .text.prvUnlockQueue
                0x08004de0       0x6e build/queue.o
 .text.xQueueGenericReset
                0x08004e4e       0x84 build/queue.o
                0x08004e4e                xQueueGenericReset
 .text.prvInitialiseNewQueue
                0x08004ed2       0x22 build/queue.o
 .text.xQueueGenericCreateStatic
                0x08004ef4       0x94 build/queue.o
                0x08004ef4                xQueueGenericCreateStatic
 .text.xQueueGenericSend
                0x08004f88      0x188 build/queue.o
                0x08004f88                xQueueGenericSend
 .text.xQueueGenericSendFromISR
                0x08005110       0xce build/queue.o
                0x08005110                xQueueGenericSendFromISR
 .text.xQueueReceive
                0x080051de      0x15e build/queue.o
                0x080051de                xQueueReceive
 .text.vQueueAddToRegistry
                0x0800533c       0x28 build/queue.o
                0x0800533c                vQueueAddToRegistry
 .text.vQueueWaitForMessageRestricted
                0x08005364       0x52 build/queue.o
                0x08005364                vQueueWaitForMessageRestricted
 *fill*         0x080053b6        0x2 
 .text.prvResetNextTaskUnblockTime
                0x080053b8       0x2c build/tasks.o
 .text.prvInitialiseNewTask
                0x080053e4       0xa6 build/tasks.o
 *fill*         0x0800548a        0x2 
 .text.prvInitialiseTaskLists
                0x0800548c       0x68 build/tasks.o
 .text.prvAddNewTaskToReadyList
                0x080054f4       0xac build/tasks.o
 .text.prvDeleteTCB
                0x080055a0       0x38 build/tasks.o
 .text.prvCheckTasksWaitingTermination
                0x080055d8       0x4c build/tasks.o
 .text.prvIdleTask
                0x08005624       0x28 build/tasks.o
 .text.prvAddCurrentTaskToDelayedList
                0x0800564c       0x7c build/tasks.o
 .text.xTaskCreateStatic
                0x080056c8       0x76 build/tasks.o
                0x080056c8                xTaskCreateStatic
 .text.xTaskCreate
                0x0800573e       0x68 build/tasks.o
                0x0800573e                xTaskCreate
 *fill*         0x080057a6        0x2 
 .text.vTaskDelete
                0x080057a8       0xb8 build/tasks.o
                0x080057a8                vTaskDelete
 .text.eTaskGetState
                0x08005860       0x90 build/tasks.o
                0x08005860                eTaskGetState
 .text.vTaskStartScheduler
                0x080058f0       0x9c build/tasks.o
                0x080058f0                vTaskStartScheduler
 .text.vTaskSuspendAll
                0x0800598c       0x10 build/tasks.o
                0x0800598c                vTaskSuspendAll
 .text.xTaskGetTickCount
                0x0800599c        0xc build/tasks.o
                0x0800599c                xTaskGetTickCount
 .text.xTaskIncrementTick
                0x080059a8      0x118 build/tasks.o
                0x080059a8                xTaskIncrementTick
 .text.xTaskResumeAll
                0x08005ac0       0xf8 build/tasks.o
                0x08005ac0                xTaskResumeAll
 .text.vTaskDelay
                0x08005bb8       0x4c build/tasks.o
                0x08005bb8                vTaskDelay
 .text.vTaskSwitchContext
                0x08005c04       0x94 build/tasks.o
                0x08005c04                vTaskSwitchContext
 .text.vTaskPlaceOnEventList
                0x08005c98       0x30 build/tasks.o
                0x08005c98                vTaskPlaceOnEventList
 .text.vTaskPlaceOnEventListRestricted
                0x08005cc8       0x38 build/tasks.o
                0x08005cc8                vTaskPlaceOnEventListRestricted
 .text.xTaskRemoveFromEventList
                0x08005d00       0x8c build/tasks.o
                0x08005d00                xTaskRemoveFromEventList
 .text.vTaskInternalSetTimeOutState
                0x08005d8c       0x18 build/tasks.o
                0x08005d8c                vTaskInternalSetTimeOutState
 .text.xTaskCheckForTimeOut
                0x08005da4       0x84 build/tasks.o
                0x08005da4                xTaskCheckForTimeOut
 .text.vTaskMissedYield
                0x08005e28        0xc build/tasks.o
                0x08005e28                vTaskMissedYield
 .text.xTaskGetSchedulerState
                0x08005e34       0x20 build/tasks.o
                0x08005e34                xTaskGetSchedulerState
 .text.xTaskPriorityDisinherit
                0x08005e54       0x90 build/tasks.o
                0x08005e54                xTaskPriorityDisinherit
 .text.prvGetNextExpireTime
                0x08005ee4       0x20 build/timers.o
 .text.prvInsertTimerInActiveList
                0x08005f04       0x48 build/timers.o
 .text.prvCheckForValidListAndQueue
                0x08005f4c       0x70 build/timers.o
 .text.xTimerCreateTimerTask
                0x08005fbc       0x64 build/timers.o
                0x08005fbc                xTimerCreateTimerTask
 .text.xTimerGenericCommand
                0x08006020       0x6c build/timers.o
                0x08006020                xTimerGenericCommand
 .text.prvSwitchTimerLists
                0x0800608c       0x7c build/timers.o
 .text.prvSampleTimeNow
                0x08006108       0x2c build/timers.o
 .text.prvProcessExpiredTimer
                0x08006134       0x6c build/timers.o
 .text.prvProcessTimerOrBlockTask
                0x080061a0       0x74 build/timers.o
 .text.prvProcessReceivedCommands
                0x08006214      0x10c build/timers.o
 .text.prvTimerTask
                0x08006320       0x16 build/timers.o
 *fill*         0x08006336        0x2 
 .text.prvHeapInit
                0x08006338       0x64 build/heap_4.o
 .text.prvInsertBlockIntoFreeList
                0x0800639c       0x64 build/heap_4.o
 .text.pvPortMalloc
                0x08006400       0xfc build/heap_4.o
                0x08006400                pvPortMalloc
 .text.vPortFree
                0x080064fc       0x7c build/heap_4.o
                0x080064fc                vPortFree
 .text.prvTaskExitError
                0x08006578       0x40 build/port.o
 .text.prvPortStartFirstTask
                0x080065b8       0x28 build/port.o
 .text.vPortEnableVFP
                0x080065e0       0x14 build/port.o
 .text.pxPortInitialiseStack
                0x080065f4       0x2c build/port.o
                0x080065f4                pxPortInitialiseStack
 .text.SVC_Handler
                0x08006620       0x24 build/port.o
                0x08006620                SVC_Handler
 .text.vPortEnterCritical
                0x08006644       0x44 build/port.o
                0x08006644                vPortEnterCritical
 .text.vPortExitCritical
                0x08006688       0x2c build/port.o
                0x08006688                vPortExitCritical
 *fill*         0x080066b4        0xc 
 .text.PendSV_Handler
                0x080066c0       0x64 build/port.o
                0x080066c0                PendSV_Handler
 .text.xPortSysTickHandler
                0x08006724       0x2c build/port.o
                0x08006724                xPortSysTickHandler
 .text.vPortSetupTimerInterrupt
                0x08006750       0x28 build/port.o
                0x08006750                vPortSetupTimerInterrupt
 .text.xPortStartScheduler
                0x08006778      0x118 build/port.o
                0x08006778                xPortStartScheduler
 .text.vPortValidateInterruptPriority
                0x08006890       0x5c build/port.o
                0x08006890                vPortValidateInterruptPriority
 .text.SysTick_Handler
                0x080068ec       0x18 build/cmsis_os2.o
                0x080068ec                SysTick_Handler
 .text.osKernelInitialize
                0x08006904       0x24 build/cmsis_os2.o
                0x08006904                osKernelInitialize
 .text.osKernelStart
                0x08006928       0x38 build/cmsis_os2.o
                0x08006928                osKernelStart
 .text.osThreadNew
                0x08006960       0xbc build/cmsis_os2.o
                0x08006960                osThreadNew
 .text.osThreadTerminate
                0x08006a1c       0x30 build/cmsis_os2.o
                0x08006a1c                osThreadTerminate
 .text.vApplicationGetIdleTaskMemory
                0x08006a4c       0x18 build/cmsis_os2.o
                0x08006a4c                vApplicationGetIdleTaskMemory
 .text.vApplicationGetTimerTaskMemory
                0x08006a64       0x18 build/cmsis_os2.o
                0x08006a64                vApplicationGetTimerTaskMemory
 .text.MX_I2C2_Init
                0x08006a7c       0x5c build/i2c.o
                0x08006a7c                MX_I2C2_Init
 .text.HAL_I2C_MspInit
                0x08006ad8       0x70 build/i2c.o
                0x08006ad8                HAL_I2C_MspInit
 .text.I2C_IsAcknowledgeFailed
                0x08006b48       0x32 build/stm32f4xx_hal_i2c.o
 .text.I2C_WaitOnFlagUntilTimeout
                0x08006b7a       0xaa build/stm32f4xx_hal_i2c.o
 .text.I2C_WaitOnMasterAddressFlagUntilTimeout
                0x08006c24       0xd6 build/stm32f4xx_hal_i2c.o
 *fill*         0x08006cfa        0x2 
 .text.I2C_MasterRequestWrite
                0x08006cfc       0xb4 build/stm32f4xx_hal_i2c.o
 .text.I2C_MasterRequestRead
                0x08006db0      0x120 build/stm32f4xx_hal_i2c.o
 .text.I2C_WaitOnTXEFlagUntilTimeout
                0x08006ed0       0x5e build/stm32f4xx_hal_i2c.o
 .text.I2C_WaitOnBTFFlagUntilTimeout
                0x08006f2e       0x5e build/stm32f4xx_hal_i2c.o
 .text.I2C_WaitOnRXNEFlagUntilTimeout
                0x08006f8c       0x78 build/stm32f4xx_hal_i2c.o
 .text.HAL_I2C_Init
                0x08007004      0x1bc build/stm32f4xx_hal_i2c.o
                0x08007004                HAL_I2C_Init
 .text.HAL_I2C_Master_Transmit
                0x080071c0      0x178 build/stm32f4xx_hal_i2c.o
                0x080071c0                HAL_I2C_Master_Transmit
 .text.HAL_I2C_Master_Receive
                0x08007338      0x2fc build/stm32f4xx_hal_i2c.o
                0x08007338                HAL_I2C_Master_Receive
 .text.HAL_I2CEx_ConfigAnalogFilter
                0x08007634       0x44 build/stm32f4xx_hal_i2c_ex.o
                0x08007634                HAL_I2CEx_ConfigAnalogFilter
 .text.HAL_I2CEx_ConfigDigitalFilter
                0x08007678       0x42 build/stm32f4xx_hal_i2c_ex.o
                0x08007678                HAL_I2CEx_ConfigDigitalFilter
 *fill*         0x080076ba        0x2 
 .text.Reset_Handler
                0x080076bc       0x50 build/startup_stm32f429xx.o
                0x080076bc                Reset_Handler
 .text.Default_Handler
                0x0800770c        0x2 build/startup_stm32f429xx.o
                0x0800770c                RTC_Alarm_IRQHandler
                0x0800770c                HASH_RNG_IRQHandler
                0x0800770c                EXTI2_IRQHandler
                0x0800770c                TIM8_CC_IRQHandler
                0x0800770c                UART8_IRQHandler
                0x0800770c                SPI4_IRQHandler
                0x0800770c                TIM1_CC_IRQHandler
                0x0800770c                DMA2_Stream5_IRQHandler
                0x0800770c                PVD_IRQHandler
                0x0800770c                SDIO_IRQHandler
                0x0800770c                TAMP_STAMP_IRQHandler
                0x0800770c                CAN2_RX1_IRQHandler
                0x0800770c                EXTI3_IRQHandler
                0x0800770c                TIM8_TRG_COM_TIM14_IRQHandler
                0x0800770c                TIM8_UP_TIM13_IRQHandler
                0x0800770c                I2C3_ER_IRQHandler
                0x0800770c                EXTI0_IRQHandler
                0x0800770c                I2C2_EV_IRQHandler
                0x0800770c                DMA1_Stream2_IRQHandler
                0x0800770c                CAN1_RX0_IRQHandler
                0x0800770c                FPU_IRQHandler
                0x0800770c                OTG_HS_WKUP_IRQHandler
                0x0800770c                LTDC_ER_IRQHandler
                0x0800770c                CAN2_SCE_IRQHandler
                0x0800770c                SPI1_IRQHandler
                0x0800770c                TIM6_DAC_IRQHandler
                0x0800770c                TIM1_BRK_TIM9_IRQHandler
                0x0800770c                DCMI_IRQHandler
                0x0800770c                CAN2_RX0_IRQHandler
                0x0800770c                DMA2_Stream3_IRQHandler
                0x0800770c                USART6_IRQHandler
                0x0800770c                USART3_IRQHandler
                0x0800770c                CAN1_RX1_IRQHandler
                0x0800770c                UART5_IRQHandler
                0x0800770c                DMA2_Stream0_IRQHandler
                0x0800770c                I2C1_EV_IRQHandler
                0x0800770c                DMA1_Stream6_IRQHandler
                0x0800770c                DMA1_Stream1_IRQHandler
                0x0800770c                UART4_IRQHandler
                0x0800770c                TIM3_IRQHandler
                0x0800770c                RCC_IRQHandler
                0x0800770c                TIM8_BRK_TIM12_IRQHandler
                0x0800770c                Default_Handler
                0x0800770c                EXTI15_10_IRQHandler
                0x0800770c                ADC_IRQHandler
                0x0800770c                DMA1_Stream7_IRQHandler
                0x0800770c                SPI5_IRQHandler
                0x0800770c                TIM7_IRQHandler
                0x0800770c                CAN2_TX_IRQHandler
                0x0800770c                I2C3_EV_IRQHandler
                0x0800770c                EXTI9_5_IRQHandler
                0x0800770c                RTC_WKUP_IRQHandler
                0x0800770c                LTDC_IRQHandler
                0x0800770c                ETH_WKUP_IRQHandler
                0x0800770c                SPI2_IRQHandler
                0x0800770c                OTG_HS_EP1_IN_IRQHandler
                0x0800770c                DMA1_Stream0_IRQHandler
                0x0800770c                CAN1_TX_IRQHandler
                0x0800770c                EXTI4_IRQHandler
                0x0800770c                ETH_IRQHandler
                0x0800770c                OTG_HS_EP1_OUT_IRQHandler
                0x0800770c                WWDG_IRQHandler
                0x0800770c                SPI6_IRQHandler
                0x0800770c                TIM2_IRQHandler
                0x0800770c                OTG_FS_WKUP_IRQHandler
                0x0800770c                TIM1_TRG_COM_TIM11_IRQHandler
                0x0800770c                OTG_HS_IRQHandler
                0x0800770c                DMA2D_IRQHandler
                0x0800770c                EXTI1_IRQHandler
                0x0800770c                UART7_IRQHandler
                0x0800770c                USART2_IRQHandler
                0x0800770c                I2C2_ER_IRQHandler
                0x0800770c                DMA2_Stream1_IRQHandler
                0x0800770c                CAN1_SCE_IRQHandler
                0x0800770c                FLASH_IRQHandler
                0x0800770c                DMA2_Stream4_IRQHandler
                0x0800770c                OTG_FS_IRQHandler
                0x0800770c                SPI3_IRQHandler
                0x0800770c                DMA1_Stream4_IRQHandler
                0x0800770c                I2C1_ER_IRQHandler
                0x0800770c                FMC_IRQHandler
                0x0800770c                DMA2_Stream6_IRQHandler
                0x0800770c                SAI1_IRQHandler
                0x0800770c                DMA1_Stream3_IRQHandler
 *fill*         0x0800770e        0x2 
 .text.__libc_init_array
                0x08007710       0x48 d:/gcc-arm-none-eabi-10.3-2021.10/bin/../lib/gcc/arm-none-eabi/10.3.1/../../../../arm-none-eabi/lib/thumb/v7e-m+fp/hard\libc_nano.a(lib_a-init.o)
                0x08007710                __libc_init_array
 .text.memcpy   0x08007758       0x1c d:/gcc-arm-none-eabi-10.3-2021.10/bin/../lib/gcc/arm-none-eabi/10.3.1/../../../../arm-none-eabi/lib/thumb/v7e-m+fp/hard\libc_nano.a(lib_a-memcpy-stub.o)
                0x08007758                memcpy
 .text.memset   0x08007774       0x10 d:/gcc-arm-none-eabi-10.3-2021.10/bin/../lib/gcc/arm-none-eabi/10.3.1/../../../../arm-none-eabi/lib/thumb/v7e-m+fp/hard\libc_nano.a(lib_a-memset.o)
                0x08007774                memset
 .text.sprintf  0x08007784       0x40 d:/gcc-arm-none-eabi-10.3-2021.10/bin/../lib/gcc/arm-none-eabi/10.3.1/../../../../arm-none-eabi/lib/thumb/v7e-m+fp/hard\libc_nano.a(lib_a-sprintf.o)
                0x08007784                siprintf
                0x08007784                sprintf
 .text.strcpy   0x080077c4       0x10 d:/gcc-arm-none-eabi-10.3-2021.10/bin/../lib/gcc/arm-none-eabi/10.3.1/../../../../arm-none-eabi/lib/thumb/v7e-m+fp/hard\libc_nano.a(lib_a-strcpy.o)
                0x080077c4                strcpy
 .text._vsnprintf_r
                0x080077d4       0x56 d:/gcc-arm-none-eabi-10.3-2021.10/bin/../lib/gcc/arm-none-eabi/10.3.1/../../../../arm-none-eabi/lib/thumb/v7e-m+fp/hard\libc_nano.a(lib_a-vsnprintf.o)
                0x080077d4                _vsniprintf_r
                0x080077d4                _vsnprintf_r
 *fill*         0x0800782a        0x2 
 .text.vsnprintf
                0x0800782c       0x1c d:/gcc-arm-none-eabi-10.3-2021.10/bin/../lib/gcc/arm-none-eabi/10.3.1/../../../../arm-none-eabi/lib/thumb/v7e-m+fp/hard\libc_nano.a(lib_a-vsnprintf.o)
                0x0800782c                vsniprintf
                0x0800782c                vsnprintf
 .text.__ssputs_r
                0x08007848       0xb6 d:/gcc-arm-none-eabi-10.3-2021.10/bin/../lib/gcc/arm-none-eabi/10.3.1/../../../../arm-none-eabi/lib/thumb/v7e-m+fp/hard\libc_nano.a(lib_a-nano-svfprintf.o)
                0x08007848                __ssputs_r
 *fill*         0x080078fe        0x2 
 .text._svfprintf_r
                0x08007900      0x200 d:/gcc-arm-none-eabi-10.3-2021.10/bin/../lib/gcc/arm-none-eabi/10.3.1/../../../../arm-none-eabi/lib/thumb/v7e-m+fp/hard\libc_nano.a(lib_a-nano-svfprintf.o)
                0x08007900                _svfiprintf_r
                0x08007900                _svfprintf_r
 .text._printf_common
                0x08007b00       0xda d:/gcc-arm-none-eabi-10.3-2021.10/bin/../lib/gcc/arm-none-eabi/10.3.1/../../../../arm-none-eabi/lib/thumb/v7e-m+fp/hard\libc_nano.a(lib_a-nano-vfprintf_i.o)
                0x08007b00                _printf_common
 *fill*         0x08007bda        0x2 
 .text._printf_i
                0x08007bdc      0x24c d:/gcc-arm-none-eabi-10.3-2021.10/bin/../lib/gcc/arm-none-eabi/10.3.1/../../../../arm-none-eabi/lib/thumb/v7e-m+fp/hard\libc_nano.a(lib_a-nano-vfprintf_i.o)
                0x08007bdc                _printf_i
 .text.memmove  0x08007e28       0x34 d:/gcc-arm-none-eabi-10.3-2021.10/bin/../lib/gcc/arm-none-eabi/10.3.1/../../../../arm-none-eabi/lib/thumb/v7e-m+fp/hard\libc_nano.a(lib_a-memmove.o)
                0x08007e28                memmove
 .text._free_r  0x08007e5c       0x98 d:/gcc-arm-none-eabi-10.3-2021.10/bin/../lib/gcc/arm-none-eabi/10.3.1/../../../../arm-none-eabi/lib/thumb/v7e-m+fp/hard\libc_nano.a(lib_a-nano-freer.o)
                0x08007e5c                _free_r
 .text.sbrk_aligned
                0x08007ef4       0x40 d:/gcc-arm-none-eabi-10.3-2021.10/bin/../lib/gcc/arm-none-eabi/10.3.1/../../../../arm-none-eabi/lib/thumb/v7e-m+fp/hard\libc_nano.a(lib_a-nano-mallocr.o)
 .text._malloc_r
                0x08007f34       0xe8 d:/gcc-arm-none-eabi-10.3-2021.10/bin/../lib/gcc/arm-none-eabi/10.3.1/../../../../arm-none-eabi/lib/thumb/v7e-m+fp/hard\libc_nano.a(lib_a-nano-mallocr.o)
                0x08007f34                _malloc_r
 .text._realloc_r
                0x0800801c       0x5e d:/gcc-arm-none-eabi-10.3-2021.10/bin/../lib/gcc/arm-none-eabi/10.3.1/../../../../arm-none-eabi/lib/thumb/v7e-m+fp/hard\libc_nano.a(lib_a-nano-reallocr.o)
                0x0800801c                _realloc_r
 *fill*         0x0800807a        0x2 
 .text._sbrk_r  0x0800807c       0x20 d:/gcc-arm-none-eabi-10.3-2021.10/bin/../lib/gcc/arm-none-eabi/10.3.1/../../../../arm-none-eabi/lib/thumb/v7e-m+fp/hard\libc_nano.a(lib_a-sbrkr.o)
                0x0800807c                _sbrk_r
 .text.__malloc_lock
                0x0800809c        0xc d:/gcc-arm-none-eabi-10.3-2021.10/bin/../lib/gcc/arm-none-eabi/10.3.1/../../../../arm-none-eabi/lib/thumb/v7e-m+fp/hard\libc_nano.a(lib_a-mlock.o)
                0x0800809c                __malloc_lock
 .text.__malloc_unlock
                0x080080a8        0xc d:/gcc-arm-none-eabi-10.3-2021.10/bin/../lib/gcc/arm-none-eabi/10.3.1/../../../../arm-none-eabi/lib/thumb/v7e-m+fp/hard\libc_nano.a(lib_a-mlock.o)
                0x080080a8                __malloc_unlock
 .text._malloc_usable_size_r
                0x080080b4       0x10 d:/gcc-arm-none-eabi-10.3-2021.10/bin/../lib/gcc/arm-none-eabi/10.3.1/../../../../arm-none-eabi/lib/thumb/v7e-m+fp/hard\libc_nano.a(lib_a-nano-msizer.o)
                0x080080b4                _malloc_usable_size_r
 .text.__retarget_lock_acquire_recursive
                0x080080c4        0x2 d:/gcc-arm-none-eabi-10.3-2021.10/bin/../lib/gcc/arm-none-eabi/10.3.1/../../../../arm-none-eabi/lib/thumb/v7e-m+fp/hard\libc_nano.a(lib_a-lock.o)
                0x080080c4                __retarget_lock_acquire_recursive
 .text.__retarget_lock_release_recursive
                0x080080c6        0x2 d:/gcc-arm-none-eabi-10.3-2021.10/bin/../lib/gcc/arm-none-eabi/10.3.1/../../../../arm-none-eabi/lib/thumb/v7e-m+fp/hard\libc_nano.a(lib_a-lock.o)
                0x080080c6                __retarget_lock_release_recursive
 .text.cos      0x080080c8       0x90 d:/gcc-arm-none-eabi-10.3-2021.10/bin/../lib/gcc/arm-none-eabi/10.3.1/../../../../arm-none-eabi/lib/thumb/v7e-m+fp/hard\libm.a(lib_a-s_cos.o)
                0x080080c8                cos
 .text.round    0x08008158       0xa0 d:/gcc-arm-none-eabi-10.3-2021.10/bin/../lib/gcc/arm-none-eabi/10.3.1/../../../../arm-none-eabi/lib/thumb/v7e-m+fp/hard\libm.a(lib_a-s_round.o)
                0x08008158                round
 .text.sin      0x080081f8       0x90 d:/gcc-arm-none-eabi-10.3-2021.10/bin/../lib/gcc/arm-none-eabi/10.3.1/../../../../arm-none-eabi/lib/thumb/v7e-m+fp/hard\libm.a(lib_a-s_sin.o)
                0x080081f8                sin
 .text.fmod     0x08008288       0x6c d:/gcc-arm-none-eabi-10.3-2021.10/bin/../lib/gcc/arm-none-eabi/10.3.1/../../../../arm-none-eabi/lib/thumb/v7e-m+fp/hard\libm.a(lib_a-w_fmod.o)
                0x08008288                fmod
 .text.__ieee754_fmod
                0x080082f4      0x27c d:/gcc-arm-none-eabi-10.3-2021.10/bin/../lib/gcc/arm-none-eabi/10.3.1/../../../../arm-none-eabi/lib/thumb/v7e-m+fp/hard\libm.a(lib_a-e_fmod.o)
                0x080082f4                __ieee754_fmod
 .text.__ieee754_rem_pio2
                0x08008570      0x44c d:/gcc-arm-none-eabi-10.3-2021.10/bin/../lib/gcc/arm-none-eabi/10.3.1/../../../../arm-none-eabi/lib/thumb/v7e-m+fp/hard\libm.a(lib_a-e_rem_pio2.o)
                0x08008570                __ieee754_rem_pio2
 *fill*         0x080089bc        0x4 
 .text.__kernel_cos
                0x080089c0      0x27c d:/gcc-arm-none-eabi-10.3-2021.10/bin/../lib/gcc/arm-none-eabi/10.3.1/../../../../arm-none-eabi/lib/thumb/v7e-m+fp/hard\libm.a(lib_a-k_cos.o)
                0x080089c0                __kernel_cos
 *fill*         0x08008c3c        0x4 
 .text.__kernel_rem_pio2
                0x08008c40      0x850 d:/gcc-arm-none-eabi-10.3-2021.10/bin/../lib/gcc/arm-none-eabi/10.3.1/../../../../arm-none-eabi/lib/thumb/v7e-m+fp/hard\libm.a(lib_a-k_rem_pio2.o)
                0x08008c40                __kernel_rem_pio2
 .text.__kernel_sin
                0x08009490      0x17c d:/gcc-arm-none-eabi-10.3-2021.10/bin/../lib/gcc/arm-none-eabi/10.3.1/../../../../arm-none-eabi/lib/thumb/v7e-m+fp/hard\libm.a(lib_a-k_sin.o)
                0x08009490                __kernel_sin
 .text.fabs     0x0800960c       0x14 d:/gcc-arm-none-eabi-10.3-2021.10/bin/../lib/gcc/arm-none-eabi/10.3.1/../../../../arm-none-eabi/lib/thumb/v7e-m+fp/hard\libm.a(lib_a-s_fabs.o)
                0x0800960c                fabs
 .text.floor    0x08009620      0x108 d:/gcc-arm-none-eabi-10.3-2021.10/bin/../lib/gcc/arm-none-eabi/10.3.1/../../../../arm-none-eabi/lib/thumb/v7e-m+fp/hard\libm.a(lib_a-s_floor.o)
                0x08009620                floor
 .text.scalbn   0x08009728      0x124 d:/gcc-arm-none-eabi-10.3-2021.10/bin/../lib/gcc/arm-none-eabi/10.3.1/../../../../arm-none-eabi/lib/thumb/v7e-m+fp/hard\libm.a(lib_a-s_scalbn.o)
                0x08009728                scalbn
 .text._sbrk    0x0800984c       0x1c d:/gcc-arm-none-eabi-10.3-2021.10/bin/../lib/gcc/arm-none-eabi/10.3.1/../../../../arm-none-eabi/lib/thumb/v7e-m+fp/hard\libnosys.a(sbrk.o)
                0x0800984c                _sbrk
 .text.__errno  0x08009868        0xc d:/gcc-arm-none-eabi-10.3-2021.10/bin/../lib/gcc/arm-none-eabi/10.3.1/../../../../arm-none-eabi/lib/thumb/v7e-m+fp/hard\libc_nano.a(lib_a-errno.o)
                0x08009868                __errno
 *(.glue_7)
 .glue_7        0x08009874        0x0 linker stubs
 *(.glue_7t)
 .glue_7t       0x08009874        0x0 linker stubs
 *(.eh_frame)
 .eh_frame      0x08009874        0x0 d:/gcc-arm-none-eabi-10.3-2021.10/bin/../lib/gcc/arm-none-eabi/10.3.1/thumb/v7e-m+fp/hard/crtbegin.o
 *(.init)
 .init          0x08009874        0x4 d:/gcc-arm-none-eabi-10.3-2021.10/bin/../lib/gcc/arm-none-eabi/10.3.1/thumb/v7e-m+fp/hard/crti.o
                0x08009874                _init
 .init          0x08009878        0x8 d:/gcc-arm-none-eabi-10.3-2021.10/bin/../lib/gcc/arm-none-eabi/10.3.1/thumb/v7e-m+fp/hard/crtn.o
 *(.fini)
 .fini          0x08009880        0x4 d:/gcc-arm-none-eabi-10.3-2021.10/bin/../lib/gcc/arm-none-eabi/10.3.1/thumb/v7e-m+fp/hard/crti.o
                0x08009880                _fini
 .fini          0x08009884        0x8 d:/gcc-arm-none-eabi-10.3-2021.10/bin/../lib/gcc/arm-none-eabi/10.3.1/thumb/v7e-m+fp/hard/crtn.o
                0x0800988c                . = ALIGN (0x4)
                0x0800988c                _etext = .

.vfp11_veneer   0x0800988c        0x0
 .vfp11_veneer  0x0800988c        0x0 linker stubs

.v4_bx          0x0800988c        0x0
 .v4_bx         0x0800988c        0x0 linker stubs

.iplt           0x0800988c        0x0
 .iplt          0x0800988c        0x0 d:/gcc-arm-none-eabi-10.3-2021.10/bin/../lib/gcc/arm-none-eabi/10.3.1/thumb/v7e-m+fp/hard/crtbegin.o

.rodata         0x08009890     0x14e0
                0x08009890                . = ALIGN (0x4)
 *(.rodata)
 *(.rodata*)
 .rodata.flagBitshiftOffset.0
                0x08009890        0x8 build/stm32f4xx_hal_dma.o
 .rodata.AHBPrescTable
                0x08009898       0x10 build/system_stm32f4xx.o
                0x08009898                AHBPrescTable
 .rodata.APBPrescTable
                0x080098a8        0x8 build/system_stm32f4xx.o
                0x080098a8                APBPrescTable
 .rodata.LCD_DisplayNumber.str1.4
                0x080098b0        0xc build/spi.o
 .rodata.LCD_DisplayDecimals.str1.4
                0x080098bc       0x19 build/spi.o
 *fill*         0x080098d5        0x3 
 .rodata.ASCII_2412_Table
                0x080098d8     0x11d0 build/lcd_fonts.o
                0x080098d8                ASCII_2412_Table
 .rodata.StartTask.str1.4
                0x0800aaa8       0x21 build/freertos.o
 *fill*         0x0800aac9        0x3 
 .rodata.HallTask.str1.4
                0x0800aacc        0xe build/freertos.o
 *fill*         0x0800aada        0x2 
 .rodata.LCD_Test_Variable.str1.4
                0x0800aadc       0x30 build/freertos.o
 .rodata.str1.4
                0x0800ab0c        0xa build/freertos.o
 *fill*         0x0800ab16        0x2 
 .rodata.startTask_attributes
                0x0800ab18       0x24 build/freertos.o
                0x0800ab18                startTask_attributes
 .rodata.vTaskStartScheduler.str1.4
                0x0800ab3c        0x5 build/tasks.o
 *fill*         0x0800ab41        0x3 
 .rodata.prvCheckForValidListAndQueue.str1.4
                0x0800ab44        0x5 build/timers.o
 *fill*         0x0800ab49        0x3 
 .rodata.xTimerCreateTimerTask.str1.4
                0x0800ab4c        0x8 build/timers.o
 .rodata._svfprintf_r.str1.1
                0x0800ab54       0x11 d:/gcc-arm-none-eabi-10.3-2021.10/bin/../lib/gcc/arm-none-eabi/10.3.1/../../../../arm-none-eabi/lib/thumb/v7e-m+fp/hard\libc_nano.a(lib_a-nano-svfprintf.o)
 .rodata._printf_i.str1.1
                0x0800ab65       0x22 d:/gcc-arm-none-eabi-10.3-2021.10/bin/../lib/gcc/arm-none-eabi/10.3.1/../../../../arm-none-eabi/lib/thumb/v7e-m+fp/hard\libc_nano.a(lib_a-nano-vfprintf_i.o)
 *fill*         0x0800ab87        0x1 
 .rodata.Zero   0x0800ab88       0x10 d:/gcc-arm-none-eabi-10.3-2021.10/bin/../lib/gcc/arm-none-eabi/10.3.1/../../../../arm-none-eabi/lib/thumb/v7e-m+fp/hard\libm.a(lib_a-e_fmod.o)
 .rodata.npio2_hw
                0x0800ab98       0x80 d:/gcc-arm-none-eabi-10.3-2021.10/bin/../lib/gcc/arm-none-eabi/10.3.1/../../../../arm-none-eabi/lib/thumb/v7e-m+fp/hard\libm.a(lib_a-e_rem_pio2.o)
 .rodata.two_over_pi
                0x0800ac18      0x108 d:/gcc-arm-none-eabi-10.3-2021.10/bin/../lib/gcc/arm-none-eabi/10.3.1/../../../../arm-none-eabi/lib/thumb/v7e-m+fp/hard\libm.a(lib_a-e_rem_pio2.o)
 .rodata.PIo2   0x0800ad20       0x40 d:/gcc-arm-none-eabi-10.3-2021.10/bin/../lib/gcc/arm-none-eabi/10.3.1/../../../../arm-none-eabi/lib/thumb/v7e-m+fp/hard\libm.a(lib_a-k_rem_pio2.o)
 .rodata.init_jk
                0x0800ad60       0x10 d:/gcc-arm-none-eabi-10.3-2021.10/bin/../lib/gcc/arm-none-eabi/10.3.1/../../../../arm-none-eabi/lib/thumb/v7e-m+fp/hard\libm.a(lib_a-k_rem_pio2.o)
                0x0800ad70                . = ALIGN (0x4)

.ARM.extab
 *(.ARM.extab* .gnu.linkonce.armextab.*)

.ARM            0x0800ad70        0x8
                0x0800ad70                __exidx_start = .
 *(.ARM.exidx*)
 .ARM.exidx     0x0800ad70        0x8 d:/gcc-arm-none-eabi-10.3-2021.10/bin/../lib/gcc/arm-none-eabi/10.3.1/thumb/v7e-m+fp/hard\libgcc.a(_udivmoddi4.o)
                0x0800ad78                __exidx_end = .

.rel.dyn        0x0800ad78        0x0
 .rel.iplt      0x0800ad78        0x0 d:/gcc-arm-none-eabi-10.3-2021.10/bin/../lib/gcc/arm-none-eabi/10.3.1/thumb/v7e-m+fp/hard/crtbegin.o

.preinit_array  0x0800ad78        0x0
                0x0800ad78                PROVIDE (__preinit_array_start = .)
 *(.preinit_array*)
                0x0800ad78                PROVIDE (__preinit_array_end = .)

.init_array     0x0800ad78        0x4
                0x0800ad78                PROVIDE (__init_array_start = .)
 *(SORT_BY_NAME(.init_array.*))
 *(.init_array*)
 .init_array    0x0800ad78        0x4 d:/gcc-arm-none-eabi-10.3-2021.10/bin/../lib/gcc/arm-none-eabi/10.3.1/thumb/v7e-m+fp/hard/crtbegin.o
                0x0800ad7c                PROVIDE (__init_array_end = .)

.fini_array     0x0800ad7c        0x4
                [!provide]                PROVIDE (__fini_array_start = .)
 *(SORT_BY_NAME(.fini_array.*))
 *(.fini_array*)
 .fini_array    0x0800ad7c        0x4 d:/gcc-arm-none-eabi-10.3-2021.10/bin/../lib/gcc/arm-none-eabi/10.3.1/thumb/v7e-m+fp/hard/crtbegin.o
                [!provide]                PROVIDE (__fini_array_end = .)
                0x0800ad80                _sidata = LOADADDR (.data)

.data           0x20000000       0x84 load address 0x0800ad80
                0x20000000                . = ALIGN (0x4)
                0x20000000                _sdata = .
 *(.data)
 *(.data*)
 .data.voltage_power_supply
                0x20000000        0x4 build/motor.o
                0x20000000                voltage_power_supply
 .data.uwTickFreq
                0x20000004        0x1 build/stm32f4xx_hal.o
                0x20000004                uwTickFreq
 *fill*         0x20000005        0x3 
 .data.uwTickPrio
                0x20000008        0x4 build/stm32f4xx_hal.o
                0x20000008                uwTickPrio
 .data.SystemCoreClock
                0x2000000c        0x4 build/system_stm32f4xx.o
                0x2000000c                SystemCoreClock
 .data.ASCII_Font24
                0x20000010        0xc build/lcd_fonts.o
                0x20000010                ASCII_Font24
 .data.uxCriticalNesting
                0x2000001c        0x4 build/port.o
 .data._impure_ptr
                0x20000020        0x4 d:/gcc-arm-none-eabi-10.3-2021.10/bin/../lib/gcc/arm-none-eabi/10.3.1/../../../../arm-none-eabi/lib/thumb/v7e-m+fp/hard\libc_nano.a(lib_a-impure.o)
                0x20000020                _impure_ptr
 .data.impure_data
                0x20000024       0x60 d:/gcc-arm-none-eabi-10.3-2021.10/bin/../lib/gcc/arm-none-eabi/10.3.1/../../../../arm-none-eabi/lib/thumb/v7e-m+fp/hard\libc_nano.a(lib_a-impure.o)
                0x20000084                . = ALIGN (0x4)
                0x20000084                _edata = .
                0x0800ae04                _siccmram = LOADADDR (.ccmram)

.igot.plt       0x20000084        0x0 load address 0x0800ae04
 .igot.plt      0x20000084        0x0 d:/gcc-arm-none-eabi-10.3-2021.10/bin/../lib/gcc/arm-none-eabi/10.3.1/thumb/v7e-m+fp/hard/crtbegin.o

.ccmram         0x10000000        0x0 load address 0x0800ae04
                0x10000000                . = ALIGN (0x4)
                0x10000000                _sccmram = .
 *(.ccmram)
 *(.ccmram*)
                0x10000000                . = ALIGN (0x4)
                0x10000000                _eccmram = .
                0x10000000                . = ALIGN (0x4)

.bss            0x20000084     0x5564
                0x20000084                _sbss = .
                0x20000084                __bss_start__ = _sbss
 *(.bss)
 .bss           0x20000084       0x1c d:/gcc-arm-none-eabi-10.3-2021.10/bin/../lib/gcc/arm-none-eabi/10.3.1/thumb/v7e-m+fp/hard/crtbegin.o
 *(.bss*)
 .bss.htim4     0x200000a0       0x48 build/tim.o
                0x200000a0                htim4
 .bss.htim5     0x200000e8       0x48 build/tim.o
                0x200000e8                htim5
 .bss.Ua        0x20000130        0x4 build/motor.o
                0x20000130                Ua
 .bss.Ualpha    0x20000134        0x4 build/motor.o
                0x20000134                Ualpha
 .bss.Ub        0x20000138        0x4 build/motor.o
                0x20000138                Ub
 .bss.Ubeta     0x2000013c        0x4 build/motor.o
                0x2000013c                Ubeta
 .bss.Uc        0x20000140        0x4 build/motor.o
                0x20000140                Uc
 .bss.dc_a      0x20000144        0x4 build/motor.o
                0x20000144                dc_a
 .bss.dc_b      0x20000148        0x4 build/motor.o
                0x20000148                dc_b
 .bss.dc_c      0x2000014c        0x4 build/motor.o
                0x2000014c                dc_c
 .bss.open_loop_timestamp
                0x20000150        0x4 build/motor.o
                0x20000150                open_loop_timestamp
 .bss.shaft_angle
                0x20000154        0x4 build/motor.o
                0x20000154                shaft_angle
 .bss.zero_electric_angle
                0x20000158        0x4 build/motor.o
                0x20000158                zero_electric_angle
 .bss.angle_data_prev
                0x2000015c        0x4 build/bsp_as5600.o
 .bss.full_rotation_offset
                0x20000160        0x4 build/bsp_as5600.o
 .bss.UartTxBuf
                0x20000164       0x80 build/usart.o
                0x20000164                UartTxBuf
 .bss.hdma_usart1_rx
                0x200001e4       0x60 build/usart.o
                0x200001e4                hdma_usart1_rx
 .bss.hdma_usart1_tx
                0x20000244       0x60 build/usart.o
                0x20000244                hdma_usart1_tx
 .bss.huart1    0x200002a4       0x48 build/usart.o
                0x200002a4                huart1
 .bss.micros_counter
                0x200002ec        0x4 build/stm32f4xx_it.o
                0x200002ec                micros_counter
 .bss.uwTick    0x200002f0        0x4 build/stm32f4xx_hal.o
                0x200002f0                uwTick
 .bss.LCD       0x200002f4        0xc build/spi.o
                0x200002f4                LCD
 .bss.LCD_AsciiFonts
                0x20000300        0x4 build/spi.o
 .bss.LCD_Buff  0x20000304      0x800 build/spi.o
                0x20000304                LCD_Buff
 .bss.hdma_spi3_tx
                0x20000b04       0x60 build/spi.o
                0x20000b04                hdma_spi3_tx
 .bss.hspi3     0x20000b64       0x58 build/spi.o
                0x20000b64                hspi3
 .bss.sendFlg   0x20000bbc        0x1 build/spi.o
                0x20000bbc                sendFlg
 *fill*         0x20000bbd        0x3 
 .bss.htim1     0x20000bc0       0x48 build/stm32f4xx_hal_timebase_tim.o
                0x20000bc0                htim1
 .bss.HallTask_Handler
                0x20000c08        0x4 build/freertos.o
                0x20000c08                HallTask_Handler
 .bss.LCDViewTask_Handler
                0x20000c0c        0x4 build/freertos.o
                0x20000c0c                LCDViewTask_Handler
 .bss.MotorTask_Handler
                0x20000c10        0x4 build/freertos.o
                0x20000c10                MotorTask_Handler
 .bss.angle     0x20000c14        0x4 build/freertos.o
                0x20000c14                angle
 .bss.angle_prev
                0x20000c18        0x4 build/freertos.o
                0x20000c18                angle_prev
 .bss.d_angle   0x20000c1c        0x4 build/freertos.o
                0x20000c1c                d_angle
 .bss.startTaskHandle
                0x20000c20        0x4 build/freertos.o
                0x20000c20                startTaskHandle
 .bss.w         0x20000c24        0x4 build/freertos.o
                0x20000c24                w
 .bss.w_frac    0x20000c28        0x4 build/freertos.o
                0x20000c28                w_frac
 .bss.w_int     0x20000c2c        0x4 build/freertos.o
                0x20000c2c                w_int
 .bss.xQueueRegistry
                0x20000c30       0x40 build/queue.o
                0x20000c30                xQueueRegistry
 .bss.pxCurrentTCB
                0x20000c70        0x4 build/tasks.o
                0x20000c70                pxCurrentTCB
 .bss.pxDelayedTaskList
                0x20000c74        0x4 build/tasks.o
 .bss.pxOverflowDelayedTaskList
                0x20000c78        0x4 build/tasks.o
 .bss.pxReadyTasksLists
                0x20000c7c      0x460 build/tasks.o
 .bss.uxCurrentNumberOfTasks
                0x200010dc        0x4 build/tasks.o
 .bss.uxDeletedTasksWaitingCleanUp
                0x200010e0        0x4 build/tasks.o
 .bss.uxSchedulerSuspended
                0x200010e4        0x4 build/tasks.o
 .bss.uxTaskNumber
                0x200010e8        0x4 build/tasks.o
 .bss.uxTopReadyPriority
                0x200010ec        0x4 build/tasks.o
 .bss.xDelayedTaskList1
                0x200010f0       0x14 build/tasks.o
 .bss.xDelayedTaskList2
                0x20001104       0x14 build/tasks.o
 .bss.xIdleTaskHandle
                0x20001118        0x4 build/tasks.o
 .bss.xNextTaskUnblockTime
                0x2000111c        0x4 build/tasks.o
 .bss.xNumOfOverflows
                0x20001120        0x4 build/tasks.o
 .bss.xPendedTicks
                0x20001124        0x4 build/tasks.o
 .bss.xPendingReadyList
                0x20001128       0x14 build/tasks.o
 .bss.xSchedulerRunning
                0x2000113c        0x4 build/tasks.o
 .bss.xSuspendedTaskList
                0x20001140       0x14 build/tasks.o
 .bss.xTasksWaitingTermination
                0x20001154       0x14 build/tasks.o
 .bss.xTickCount
                0x20001168        0x4 build/tasks.o
 .bss.xYieldPending
                0x2000116c        0x4 build/tasks.o
 .bss.pxCurrentTimerList
                0x20001170        0x4 build/timers.o
 .bss.pxOverflowTimerList
                0x20001174        0x4 build/timers.o
 .bss.ucStaticTimerQueueStorage.1
                0x20001178       0xa0 build/timers.o
 .bss.xActiveTimerList1
                0x20001218       0x14 build/timers.o
 .bss.xActiveTimerList2
                0x2000122c       0x14 build/timers.o
 .bss.xLastTime.2
                0x20001240        0x4 build/timers.o
 .bss.xStaticTimerQueue.0
                0x20001244       0x50 build/timers.o
 .bss.xTimerQueue
                0x20001294        0x4 build/timers.o
 .bss.xTimerTaskHandle
                0x20001298        0x4 build/timers.o
 .bss.pxEnd     0x2000129c        0x4 build/heap_4.o
 .bss.ucHeap    0x200012a0     0x3c00 build/heap_4.o
 .bss.xBlockAllocatedBit
                0x20004ea0        0x4 build/heap_4.o
 .bss.xFreeBytesRemaining
                0x20004ea4        0x4 build/heap_4.o
 .bss.xMinimumEverFreeBytesRemaining
                0x20004ea8        0x4 build/heap_4.o
 .bss.xNumberOfSuccessfulAllocations
                0x20004eac        0x4 build/heap_4.o
 .bss.xNumberOfSuccessfulFrees
                0x20004eb0        0x4 build/heap_4.o
 .bss.xStart    0x20004eb4        0x8 build/heap_4.o
 .bss.ucMaxSysCallPriority
                0x20004ebc        0x1 build/port.o
 *fill*         0x20004ebd        0x3 
 .bss.ulMaxPRIGROUPValue
                0x20004ec0        0x4 build/port.o
 .bss.Idle_Stack.2
                0x20004ec4      0x200 build/cmsis_os2.o
 .bss.Idle_TCB.3
                0x200050c4       0x5c build/cmsis_os2.o
 .bss.KernelState
                0x20005120        0x4 build/cmsis_os2.o
 .bss.Timer_Stack.0
                0x20005124      0x400 build/cmsis_os2.o
 .bss.Timer_TCB.1
                0x20005524       0x5c build/cmsis_os2.o
 .bss.hi2c2     0x20005580       0x54 build/i2c.o
                0x20005580                hi2c2
 .bss.__malloc_free_list
                0x200055d4        0x4 d:/gcc-arm-none-eabi-10.3-2021.10/bin/../lib/gcc/arm-none-eabi/10.3.1/../../../../arm-none-eabi/lib/thumb/v7e-m+fp/hard\libc_nano.a(lib_a-nano-mallocr.o)
                0x200055d4                __malloc_free_list
 .bss.__malloc_sbrk_start
                0x200055d8        0x4 d:/gcc-arm-none-eabi-10.3-2021.10/bin/../lib/gcc/arm-none-eabi/10.3.1/../../../../arm-none-eabi/lib/thumb/v7e-m+fp/hard\libc_nano.a(lib_a-nano-mallocr.o)
                0x200055d8                __malloc_sbrk_start
 .bss.errno     0x200055dc        0x4 d:/gcc-arm-none-eabi-10.3-2021.10/bin/../lib/gcc/arm-none-eabi/10.3.1/../../../../arm-none-eabi/lib/thumb/v7e-m+fp/hard\libc_nano.a(lib_a-reent.o)
                0x200055dc                errno
 .bss.__lock___malloc_recursive_mutex
                0x200055e0        0x1 d:/gcc-arm-none-eabi-10.3-2021.10/bin/../lib/gcc/arm-none-eabi/10.3.1/../../../../arm-none-eabi/lib/thumb/v7e-m+fp/hard\libc_nano.a(lib_a-lock.o)
                0x200055e0                __lock___malloc_recursive_mutex
 *fill*         0x200055e1        0x3 
 .bss.heap_end.0
                0x200055e4        0x4 d:/gcc-arm-none-eabi-10.3-2021.10/bin/../lib/gcc/arm-none-eabi/10.3.1/../../../../arm-none-eabi/lib/thumb/v7e-m+fp/hard\libnosys.a(sbrk.o)
 *(COMMON)
                0x200055e8                . = ALIGN (0x4)
                0x200055e8                _ebss = .
                0x200055e8                __bss_end__ = _ebss

._user_heap_stack
                0x200055e8      0x600
                0x200055e8                . = ALIGN (0x8)
                0x200055e8                PROVIDE (end = .)
                [!provide]                PROVIDE (_end = .)
                0x200057e8                . = (. + _Min_Heap_Size)
 *fill*         0x200055e8      0x200 
                0x20005be8                . = (. + _Min_Stack_Size)
 *fill*         0x200057e8      0x400 
                0x20005be8                . = ALIGN (0x8)

/DISCARD/
 libc.a(*)
 libm.a(*)
 libgcc.a(*)

.ARM.attributes
                0x00000000       0x30
 *(.ARM.attributes)
 .ARM.attributes
                0x00000000       0x1e d:/gcc-arm-none-eabi-10.3-2021.10/bin/../lib/gcc/arm-none-eabi/10.3.1/thumb/v7e-m+fp/hard/crti.o
 .ARM.attributes
                0x0000001e       0x34 d:/gcc-arm-none-eabi-10.3-2021.10/bin/../lib/gcc/arm-none-eabi/10.3.1/thumb/v7e-m+fp/hard/crtbegin.o
 .ARM.attributes
                0x00000052       0x34 build/main.o
 .ARM.attributes
                0x00000086       0x34 build/gpio.o
 .ARM.attributes
                0x000000ba       0x34 build/dma.o
 .ARM.attributes
                0x000000ee       0x34 build/tim.o
 .ARM.attributes
                0x00000122       0x34 build/motor.o
 .ARM.attributes
                0x00000156       0x34 build/bsp_as5600.o
 .ARM.attributes
                0x0000018a       0x34 build/usart.o
 .ARM.attributes
                0x000001be       0x34 build/stm32f4xx_it.o
 .ARM.attributes
                0x000001f2       0x34 build/stm32f4xx_hal_msp.o
 .ARM.attributes
                0x00000226       0x34 build/stm32f4xx_hal_tim.o
 .ARM.attributes
                0x0000025a       0x34 build/stm32f4xx_hal_tim_ex.o
 .ARM.attributes
                0x0000028e       0x34 build/stm32f4xx_hal_rcc.o
 .ARM.attributes
                0x000002c2       0x34 build/stm32f4xx_hal_gpio.o
 .ARM.attributes
                0x000002f6       0x34 build/stm32f4xx_hal_dma.o
 .ARM.attributes
                0x0000032a       0x34 build/stm32f4xx_hal_pwr_ex.o
 .ARM.attributes
                0x0000035e       0x34 build/stm32f4xx_hal_cortex.o
 .ARM.attributes
                0x00000392       0x34 build/stm32f4xx_hal.o
 .ARM.attributes
                0x000003c6       0x34 build/stm32f4xx_hal_uart.o
 .ARM.attributes
                0x000003fa       0x34 build/system_stm32f4xx.o
 .ARM.attributes
                0x0000042e       0x34 build/spi.o
 .ARM.attributes
                0x00000462       0x34 build/lcd_fonts.o
 .ARM.attributes
                0x00000496       0x34 build/stm32f4xx_hal_spi.o
 .ARM.attributes
                0x000004ca       0x34 build/stm32f4xx_hal_timebase_tim.o
 .ARM.attributes
                0x000004fe       0x34 build/freertos.o
 .ARM.attributes
                0x00000532       0x34 build/list.o
 .ARM.attributes
                0x00000566       0x34 build/queue.o
 .ARM.attributes
                0x0000059a       0x34 build/tasks.o
 .ARM.attributes
                0x000005ce       0x34 build/timers.o
 .ARM.attributes
                0x00000602       0x34 build/heap_4.o
 .ARM.attributes
                0x00000636       0x34 build/port.o
 .ARM.attributes
                0x0000066a       0x34 build/cmsis_os2.o
 .ARM.attributes
                0x0000069e       0x34 build/i2c.o
 .ARM.attributes
                0x000006d2       0x34 build/stm32f4xx_hal_i2c.o
 .ARM.attributes
                0x00000706       0x34 build/stm32f4xx_hal_i2c_ex.o
 .ARM.attributes
                0x0000073a       0x21 build/startup_stm32f429xx.o
 .ARM.attributes
                0x0000075b       0x34 d:/gcc-arm-none-eabi-10.3-2021.10/bin/../lib/gcc/arm-none-eabi/10.3.1/../../../../arm-none-eabi/lib/thumb/v7e-m+fp/hard\libc_nano.a(lib_a-impure.o)
 .ARM.attributes
                0x0000078f       0x34 d:/gcc-arm-none-eabi-10.3-2021.10/bin/../lib/gcc/arm-none-eabi/10.3.1/../../../../arm-none-eabi/lib/thumb/v7e-m+fp/hard\libc_nano.a(lib_a-init.o)
 .ARM.attributes
                0x000007c3       0x34 d:/gcc-arm-none-eabi-10.3-2021.10/bin/../lib/gcc/arm-none-eabi/10.3.1/../../../../arm-none-eabi/lib/thumb/v7e-m+fp/hard\libc_nano.a(lib_a-memcpy-stub.o)
 .ARM.attributes
                0x000007f7       0x34 d:/gcc-arm-none-eabi-10.3-2021.10/bin/../lib/gcc/arm-none-eabi/10.3.1/../../../../arm-none-eabi/lib/thumb/v7e-m+fp/hard\libc_nano.a(lib_a-memset.o)
 .ARM.attributes
                0x0000082b       0x34 d:/gcc-arm-none-eabi-10.3-2021.10/bin/../lib/gcc/arm-none-eabi/10.3.1/../../../../arm-none-eabi/lib/thumb/v7e-m+fp/hard\libc_nano.a(lib_a-sprintf.o)
 .ARM.attributes
                0x0000085f       0x34 d:/gcc-arm-none-eabi-10.3-2021.10/bin/../lib/gcc/arm-none-eabi/10.3.1/../../../../arm-none-eabi/lib/thumb/v7e-m+fp/hard\libc_nano.a(lib_a-strcpy.o)
 .ARM.attributes
                0x00000893       0x17 d:/gcc-arm-none-eabi-10.3-2021.10/bin/../lib/gcc/arm-none-eabi/10.3.1/../../../../arm-none-eabi/lib/thumb/v7e-m+fp/hard\libc_nano.a(lib_a-strlen.o)
 .ARM.attributes
                0x000008aa       0x34 d:/gcc-arm-none-eabi-10.3-2021.10/bin/../lib/gcc/arm-none-eabi/10.3.1/../../../../arm-none-eabi/lib/thumb/v7e-m+fp/hard\libc_nano.a(lib_a-vsnprintf.o)
 .ARM.attributes
                0x000008de       0x34 d:/gcc-arm-none-eabi-10.3-2021.10/bin/../lib/gcc/arm-none-eabi/10.3.1/../../../../arm-none-eabi/lib/thumb/v7e-m+fp/hard\libc_nano.a(lib_a-nano-svfprintf.o)
 .ARM.attributes
                0x00000912       0x34 d:/gcc-arm-none-eabi-10.3-2021.10/bin/../lib/gcc/arm-none-eabi/10.3.1/../../../../arm-none-eabi/lib/thumb/v7e-m+fp/hard\libc_nano.a(lib_a-nano-vfprintf_i.o)
 .ARM.attributes
                0x00000946       0x1c d:/gcc-arm-none-eabi-10.3-2021.10/bin/../lib/gcc/arm-none-eabi/10.3.1/../../../../arm-none-eabi/lib/thumb/v7e-m+fp/hard\libc_nano.a(lib_a-memchr.o)
 .ARM.attributes
                0x00000962       0x34 d:/gcc-arm-none-eabi-10.3-2021.10/bin/../lib/gcc/arm-none-eabi/10.3.1/../../../../arm-none-eabi/lib/thumb/v7e-m+fp/hard\libc_nano.a(lib_a-memmove.o)
 .ARM.attributes
                0x00000996       0x34 d:/gcc-arm-none-eabi-10.3-2021.10/bin/../lib/gcc/arm-none-eabi/10.3.1/../../../../arm-none-eabi/lib/thumb/v7e-m+fp/hard\libc_nano.a(lib_a-nano-freer.o)
 .ARM.attributes
                0x000009ca       0x34 d:/gcc-arm-none-eabi-10.3-2021.10/bin/../lib/gcc/arm-none-eabi/10.3.1/../../../../arm-none-eabi/lib/thumb/v7e-m+fp/hard\libc_nano.a(lib_a-nano-mallocr.o)
 .ARM.attributes
                0x000009fe       0x34 d:/gcc-arm-none-eabi-10.3-2021.10/bin/../lib/gcc/arm-none-eabi/10.3.1/../../../../arm-none-eabi/lib/thumb/v7e-m+fp/hard\libc_nano.a(lib_a-nano-reallocr.o)
 .ARM.attributes
                0x00000a32       0x34 d:/gcc-arm-none-eabi-10.3-2021.10/bin/../lib/gcc/arm-none-eabi/10.3.1/../../../../arm-none-eabi/lib/thumb/v7e-m+fp/hard\libc_nano.a(lib_a-sbrkr.o)
 .ARM.attributes
                0x00000a66       0x34 d:/gcc-arm-none-eabi-10.3-2021.10/bin/../lib/gcc/arm-none-eabi/10.3.1/../../../../arm-none-eabi/lib/thumb/v7e-m+fp/hard\libc_nano.a(lib_a-mlock.o)
 .ARM.attributes
                0x00000a9a       0x34 d:/gcc-arm-none-eabi-10.3-2021.10/bin/../lib/gcc/arm-none-eabi/10.3.1/../../../../arm-none-eabi/lib/thumb/v7e-m+fp/hard\libc_nano.a(lib_a-nano-msizer.o)
 .ARM.attributes
                0x00000ace       0x34 d:/gcc-arm-none-eabi-10.3-2021.10/bin/../lib/gcc/arm-none-eabi/10.3.1/../../../../arm-none-eabi/lib/thumb/v7e-m+fp/hard\libc_nano.a(lib_a-reent.o)
 .ARM.attributes
                0x00000b02       0x34 d:/gcc-arm-none-eabi-10.3-2021.10/bin/../lib/gcc/arm-none-eabi/10.3.1/../../../../arm-none-eabi/lib/thumb/v7e-m+fp/hard\libc_nano.a(lib_a-lock.o)
 .ARM.attributes
                0x00000b36       0x34 d:/gcc-arm-none-eabi-10.3-2021.10/bin/../lib/gcc/arm-none-eabi/10.3.1/../../../../arm-none-eabi/lib/thumb/v7e-m+fp/hard\libm.a(lib_a-s_cos.o)
 .ARM.attributes
                0x00000b6a       0x34 d:/gcc-arm-none-eabi-10.3-2021.10/bin/../lib/gcc/arm-none-eabi/10.3.1/../../../../arm-none-eabi/lib/thumb/v7e-m+fp/hard\libm.a(lib_a-s_round.o)
 .ARM.attributes
                0x00000b9e       0x34 d:/gcc-arm-none-eabi-10.3-2021.10/bin/../lib/gcc/arm-none-eabi/10.3.1/../../../../arm-none-eabi/lib/thumb/v7e-m+fp/hard\libm.a(lib_a-s_sin.o)
 .ARM.attributes
                0x00000bd2       0x34 d:/gcc-arm-none-eabi-10.3-2021.10/bin/../lib/gcc/arm-none-eabi/10.3.1/../../../../arm-none-eabi/lib/thumb/v7e-m+fp/hard\libm.a(lib_a-w_fmod.o)
 .ARM.attributes
                0x00000c06       0x34 d:/gcc-arm-none-eabi-10.3-2021.10/bin/../lib/gcc/arm-none-eabi/10.3.1/../../../../arm-none-eabi/lib/thumb/v7e-m+fp/hard\libm.a(lib_a-e_fmod.o)
 .ARM.attributes
                0x00000c3a       0x34 d:/gcc-arm-none-eabi-10.3-2021.10/bin/../lib/gcc/arm-none-eabi/10.3.1/../../../../arm-none-eabi/lib/thumb/v7e-m+fp/hard\libm.a(lib_a-e_rem_pio2.o)
 .ARM.attributes
                0x00000c6e       0x34 d:/gcc-arm-none-eabi-10.3-2021.10/bin/../lib/gcc/arm-none-eabi/10.3.1/../../../../arm-none-eabi/lib/thumb/v7e-m+fp/hard\libm.a(lib_a-k_cos.o)
 .ARM.attributes
                0x00000ca2       0x34 d:/gcc-arm-none-eabi-10.3-2021.10/bin/../lib/gcc/arm-none-eabi/10.3.1/../../../../arm-none-eabi/lib/thumb/v7e-m+fp/hard\libm.a(lib_a-k_rem_pio2.o)
 .ARM.attributes
                0x00000cd6       0x34 d:/gcc-arm-none-eabi-10.3-2021.10/bin/../lib/gcc/arm-none-eabi/10.3.1/../../../../arm-none-eabi/lib/thumb/v7e-m+fp/hard\libm.a(lib_a-k_sin.o)
 .ARM.attributes
                0x00000d0a       0x34 d:/gcc-arm-none-eabi-10.3-2021.10/bin/../lib/gcc/arm-none-eabi/10.3.1/../../../../arm-none-eabi/lib/thumb/v7e-m+fp/hard\libm.a(lib_a-s_fabs.o)
 .ARM.attributes
                0x00000d3e       0x34 d:/gcc-arm-none-eabi-10.3-2021.10/bin/../lib/gcc/arm-none-eabi/10.3.1/../../../../arm-none-eabi/lib/thumb/v7e-m+fp/hard\libm.a(lib_a-s_floor.o)
 .ARM.attributes
                0x00000d72       0x34 d:/gcc-arm-none-eabi-10.3-2021.10/bin/../lib/gcc/arm-none-eabi/10.3.1/../../../../arm-none-eabi/lib/thumb/v7e-m+fp/hard\libm.a(lib_a-s_scalbn.o)
 .ARM.attributes
                0x00000da6       0x34 d:/gcc-arm-none-eabi-10.3-2021.10/bin/../lib/gcc/arm-none-eabi/10.3.1/../../../../arm-none-eabi/lib/thumb/v7e-m+fp/hard\libnosys.a(sbrk.o)
 .ARM.attributes
                0x00000dda       0x1e d:/gcc-arm-none-eabi-10.3-2021.10/bin/../lib/gcc/arm-none-eabi/10.3.1/thumb/v7e-m+fp/hard\libgcc.a(_arm_addsubdf3.o)
 .ARM.attributes
                0x00000df8       0x1e d:/gcc-arm-none-eabi-10.3-2021.10/bin/../lib/gcc/arm-none-eabi/10.3.1/thumb/v7e-m+fp/hard\libgcc.a(_arm_muldivdf3.o)
 .ARM.attributes
                0x00000e16       0x1e d:/gcc-arm-none-eabi-10.3-2021.10/bin/../lib/gcc/arm-none-eabi/10.3.1/thumb/v7e-m+fp/hard\libgcc.a(_arm_cmpdf2.o)
 .ARM.attributes
                0x00000e34       0x1e d:/gcc-arm-none-eabi-10.3-2021.10/bin/../lib/gcc/arm-none-eabi/10.3.1/thumb/v7e-m+fp/hard\libgcc.a(_arm_unorddf2.o)
 .ARM.attributes
                0x00000e52       0x1e d:/gcc-arm-none-eabi-10.3-2021.10/bin/../lib/gcc/arm-none-eabi/10.3.1/thumb/v7e-m+fp/hard\libgcc.a(_arm_fixdfsi.o)
 .ARM.attributes
                0x00000e70       0x1e d:/gcc-arm-none-eabi-10.3-2021.10/bin/../lib/gcc/arm-none-eabi/10.3.1/thumb/v7e-m+fp/hard\libgcc.a(_arm_truncdfsf2.o)
 .ARM.attributes
                0x00000e8e       0x1e d:/gcc-arm-none-eabi-10.3-2021.10/bin/../lib/gcc/arm-none-eabi/10.3.1/thumb/v7e-m+fp/hard\libgcc.a(_aeabi_uldivmod.o)
 .ARM.attributes
                0x00000eac       0x34 d:/gcc-arm-none-eabi-10.3-2021.10/bin/../lib/gcc/arm-none-eabi/10.3.1/thumb/v7e-m+fp/hard\libgcc.a(_udivmoddi4.o)
 .ARM.attributes
                0x00000ee0       0x1e d:/gcc-arm-none-eabi-10.3-2021.10/bin/../lib/gcc/arm-none-eabi/10.3.1/thumb/v7e-m+fp/hard\libgcc.a(_dvmd_tls.o)
 .ARM.attributes
                0x00000efe       0x34 d:/gcc-arm-none-eabi-10.3-2021.10/bin/../lib/gcc/arm-none-eabi/10.3.1/../../../../arm-none-eabi/lib/thumb/v7e-m+fp/hard\libc_nano.a(lib_a-errno.o)
 .ARM.attributes
                0x00000f32       0x1e d:/gcc-arm-none-eabi-10.3-2021.10/bin/../lib/gcc/arm-none-eabi/10.3.1/thumb/v7e-m+fp/hard/crtn.o
OUTPUT(build/FOC.elf elf32-littlearm)
LOAD linker stubs
LOAD d:/gcc-arm-none-eabi-10.3-2021.10/bin/../lib/gcc/arm-none-eabi/10.3.1/../../../../arm-none-eabi/lib/thumb/v7e-m+fp/hard\libc.a
LOAD d:/gcc-arm-none-eabi-10.3-2021.10/bin/../lib/gcc/arm-none-eabi/10.3.1/../../../../arm-none-eabi/lib/thumb/v7e-m+fp/hard\libm.a
LOAD d:/gcc-arm-none-eabi-10.3-2021.10/bin/../lib/gcc/arm-none-eabi/10.3.1/thumb/v7e-m+fp/hard\libgcc.a

.debug_info     0x00000000    0x2d89e
 .debug_info    0x00000000      0xe57 build/main.o
 .debug_info    0x00000e57      0x5dd build/gpio.o
 .debug_info    0x00001434      0xc3b build/dma.o
 .debug_info    0x0000206f     0x1268 build/tim.o
 .debug_info    0x000032d7      0xc95 build/motor.o
 .debug_info    0x00003f6c      0x9d9 build/bsp_as5600.o
 .debug_info    0x00004945      0xf8c build/usart.o
 .debug_info    0x000058d1      0xc05 build/stm32f4xx_it.o
 .debug_info    0x000064d6      0x5ae build/stm32f4xx_hal_msp.o
 .debug_info    0x00006a84     0x40cc build/stm32f4xx_hal_tim.o
 .debug_info    0x0000ab50     0x1c8f build/stm32f4xx_hal_tim_ex.o
 .debug_info    0x0000c7df      0xc08 build/stm32f4xx_hal_rcc.o
 .debug_info    0x0000d3e7      0x86a build/stm32f4xx_hal_gpio.o
 .debug_info    0x0000dc51      0xbd1 build/stm32f4xx_hal_dma.o
 .debug_info    0x0000e822      0x85e build/stm32f4xx_hal_pwr_ex.o
 .debug_info    0x0000f080     0x11c1 build/stm32f4xx_hal_cortex.o
 .debug_info    0x00010241      0xb55 build/stm32f4xx_hal.o
 .debug_info    0x00010d96     0x432e build/stm32f4xx_hal_uart.o
 .debug_info    0x000150c4      0x5d5 build/system_stm32f4xx.o
 .debug_info    0x00015699     0x204d build/spi.o
 .debug_info    0x000176e6      0x264 build/lcd_fonts.o
 .debug_info    0x0001794a     0x2039 build/stm32f4xx_hal_spi.o
 .debug_info    0x00019983      0xdc8 build/stm32f4xx_hal_timebase_tim.o
 .debug_info    0x0001a74b      0xc7a build/freertos.o
 .debug_info    0x0001b3c5      0x30f build/list.o
 .debug_info    0x0001b6d4     0x2968 build/queue.o
 .debug_info    0x0001e03c     0x333f build/tasks.o
 .debug_info    0x0002137b     0x1bd3 build/timers.o
 .debug_info    0x00022f4e      0x61a build/heap_4.o
 .debug_info    0x00023568      0x5c8 build/port.o
 .debug_info    0x00023b30     0x4e55 build/cmsis_os2.o
 .debug_info    0x00028985      0xbfa build/i2c.o
 .debug_info    0x0002957f     0x3b9f build/stm32f4xx_hal_i2c.o
 .debug_info    0x0002d11e      0x75e build/stm32f4xx_hal_i2c_ex.o
 .debug_info    0x0002d87c       0x22 build/startup_stm32f429xx.o

.debug_abbrev   0x00000000     0x5027
 .debug_abbrev  0x00000000      0x243 build/main.o
 .debug_abbrev  0x00000243      0x151 build/gpio.o
 .debug_abbrev  0x00000394      0x1cb build/dma.o
 .debug_abbrev  0x0000055f      0x1f3 build/tim.o
 .debug_abbrev  0x00000752      0x26b build/motor.o
 .debug_abbrev  0x000009bd      0x1f4 build/bsp_as5600.o
 .debug_abbrev  0x00000bb1      0x23e build/usart.o
 .debug_abbrev  0x00000def      0x1ce build/stm32f4xx_it.o
 .debug_abbrev  0x00000fbd      0x11c build/stm32f4xx_hal_msp.o
 .debug_abbrev  0x000010d9      0x289 build/stm32f4xx_hal_tim.o
 .debug_abbrev  0x00001362      0x29f build/stm32f4xx_hal_tim_ex.o
 .debug_abbrev  0x00001601      0x2aa build/stm32f4xx_hal_rcc.o
 .debug_abbrev  0x000018ab      0x22b build/stm32f4xx_hal_gpio.o
 .debug_abbrev  0x00001ad6      0x2ff build/stm32f4xx_hal_dma.o
 .debug_abbrev  0x00001dd5      0x1c3 build/stm32f4xx_hal_pwr_ex.o
 .debug_abbrev  0x00001f98      0x382 build/stm32f4xx_hal_cortex.o
 .debug_abbrev  0x0000231a      0x209 build/stm32f4xx_hal.o
 .debug_abbrev  0x00002523      0x356 build/stm32f4xx_hal_uart.o
 .debug_abbrev  0x00002879      0x11b build/system_stm32f4xx.o
 .debug_abbrev  0x00002994      0x2e0 build/spi.o
 .debug_abbrev  0x00002c74       0xc1 build/lcd_fonts.o
 .debug_abbrev  0x00002d35      0x2b3 build/stm32f4xx_hal_spi.o
 .debug_abbrev  0x00002fe8      0x202 build/stm32f4xx_hal_timebase_tim.o
 .debug_abbrev  0x000031ea      0x1de build/freertos.o
 .debug_abbrev  0x000033c8      0x124 build/list.o
 .debug_abbrev  0x000034ec      0x3c4 build/queue.o
 .debug_abbrev  0x000038b0      0x387 build/tasks.o
 .debug_abbrev  0x00003c37      0x366 build/timers.o
 .debug_abbrev  0x00003f9d      0x269 build/heap_4.o
 .debug_abbrev  0x00004206      0x28a build/port.o
 .debug_abbrev  0x00004490      0x56a build/cmsis_os2.o
 .debug_abbrev  0x000049fa      0x1d7 build/i2c.o
 .debug_abbrev  0x00004bd1      0x2f3 build/stm32f4xx_hal_i2c.o
 .debug_abbrev  0x00004ec4      0x151 build/stm32f4xx_hal_i2c_ex.o
 .debug_abbrev  0x00005015       0x12 build/startup_stm32f429xx.o

.debug_loc      0x00000000    0x24d6b
 .debug_loc     0x00000000       0xc8 build/main.o
 .debug_loc     0x000000c8       0x39 build/gpio.o
 .debug_loc     0x00000101       0x38 build/dma.o
 .debug_loc     0x00000139      0x232 build/tim.o
 .debug_loc     0x0000036b      0x2c1 build/motor.o
 .debug_loc     0x0000062c      0x31f build/bsp_as5600.o
 .debug_loc     0x0000094b      0x173 build/usart.o
 .debug_loc     0x00000abe       0xe0 build/stm32f4xx_it.o
 .debug_loc     0x00000b9e       0x38 build/stm32f4xx_hal_msp.o
 .debug_loc     0x00000bd6     0x5be1 build/stm32f4xx_hal_tim.o
 .debug_loc     0x000067b7     0x212a build/stm32f4xx_hal_tim_ex.o
 .debug_loc     0x000088e1      0x6e4 build/stm32f4xx_hal_rcc.o
 .debug_loc     0x00008fc5      0x5e8 build/stm32f4xx_hal_gpio.o
 .debug_loc     0x000095ad      0xd6d build/stm32f4xx_hal_dma.o
 .debug_loc     0x0000a31a      0x378 build/stm32f4xx_hal_pwr_ex.o
 .debug_loc     0x0000a692      0x7a4 build/stm32f4xx_hal_cortex.o
 .debug_loc     0x0000ae36      0x1e1 build/stm32f4xx_hal.o
 .debug_loc     0x0000b017     0x4d30 build/stm32f4xx_hal_uart.o
 .debug_loc     0x0000fd47      0x158 build/system_stm32f4xx.o
 .debug_loc     0x0000fe9f      0xda1 build/spi.o
 .debug_loc     0x00010c40     0x26ec build/stm32f4xx_hal_spi.o
 .debug_loc     0x0001332c       0xe8 build/stm32f4xx_hal_timebase_tim.o
 .debug_loc     0x00013414      0x1ec build/freertos.o
 .debug_loc     0x00013600       0xe5 build/list.o
 .debug_loc     0x000136e5     0x1fe4 build/queue.o
 .debug_loc     0x000156c9     0x2c72 build/tasks.o
 .debug_loc     0x0001833b     0x1586 build/timers.o
 .debug_loc     0x000198c1      0x4e4 build/heap_4.o
 .debug_loc     0x00019da5      0x1c0 build/port.o
 .debug_loc     0x00019f65     0x5dbc build/cmsis_os2.o
 .debug_loc     0x0001fd21       0xeb build/i2c.o
 .debug_loc     0x0001fe0c     0x4e61 build/stm32f4xx_hal_i2c.o
 .debug_loc     0x00024c6d       0xfe build/stm32f4xx_hal_i2c_ex.o

.debug_aranges  0x00000000     0x1b60
 .debug_aranges
                0x00000000       0x38 build/main.o
 .debug_aranges
                0x00000038       0x20 build/gpio.o
 .debug_aranges
                0x00000058       0x28 build/dma.o
 .debug_aranges
                0x00000080       0x40 build/tim.o
 .debug_aranges
                0x000000c0       0x40 build/motor.o
 .debug_aranges
                0x00000100       0x40 build/bsp_as5600.o
 .debug_aranges
                0x00000140       0x38 build/usart.o
 .debug_aranges
                0x00000178       0x88 build/stm32f4xx_it.o
 .debug_aranges
                0x00000200       0x20 build/stm32f4xx_hal_msp.o
 .debug_aranges
                0x00000220      0x3d0 build/stm32f4xx_hal_tim.o
 .debug_aranges
                0x000005f0      0x168 build/stm32f4xx_hal_tim_ex.o
 .debug_aranges
                0x00000758       0x88 build/stm32f4xx_hal_rcc.o
 .debug_aranges
                0x000007e0       0x58 build/stm32f4xx_hal_gpio.o
 .debug_aranges
                0x00000838       0x90 build/stm32f4xx_hal_dma.o
 .debug_aranges
                0x000008c8       0x60 build/stm32f4xx_hal_pwr_ex.o
 .debug_aranges
                0x00000928       0xb0 build/stm32f4xx_hal_cortex.o
 .debug_aranges
                0x000009d8      0x100 build/stm32f4xx_hal.o
 .debug_aranges
                0x00000ad8      0x208 build/stm32f4xx_hal_uart.o
 .debug_aranges
                0x00000ce0       0x28 build/system_stm32f4xx.o
 .debug_aranges
                0x00000d08       0xc0 build/spi.o
 .debug_aranges
                0x00000dc8       0x18 build/lcd_fonts.o
 .debug_aranges
                0x00000de0      0x1d0 build/stm32f4xx_hal_spi.o
 .debug_aranges
                0x00000fb0       0x30 build/stm32f4xx_hal_timebase_tim.o
 .debug_aranges
                0x00000fe0       0x50 build/freertos.o
 .debug_aranges
                0x00001030       0x40 build/list.o
 .debug_aranges
                0x00001070      0x158 build/queue.o
 .debug_aranges
                0x000011c8      0x208 build/tasks.o
 .debug_aranges
                0x000013d0       0xf0 build/timers.o
 .debug_aranges
                0x000014c0       0x58 build/heap_4.o
 .debug_aranges
                0x00001518       0x80 build/port.o
 .debug_aranges
                0x00001598      0x2a0 build/cmsis_os2.o
 .debug_aranges
                0x00001838       0x30 build/i2c.o
 .debug_aranges
                0x00001868      0x2a8 build/stm32f4xx_hal_i2c.o
 .debug_aranges
                0x00001b10       0x28 build/stm32f4xx_hal_i2c_ex.o
 .debug_aranges
                0x00001b38       0x28 build/startup_stm32f429xx.o

.debug_ranges   0x00000000     0x1c78
 .debug_ranges  0x00000000       0x28 build/main.o
 .debug_ranges  0x00000028       0x10 build/gpio.o
 .debug_ranges  0x00000038       0x18 build/dma.o
 .debug_ranges  0x00000050       0x30 build/tim.o
 .debug_ranges  0x00000080       0x30 build/motor.o
 .debug_ranges  0x000000b0       0x30 build/bsp_as5600.o
 .debug_ranges  0x000000e0       0x28 build/usart.o
 .debug_ranges  0x00000108       0x78 build/stm32f4xx_it.o
 .debug_ranges  0x00000180       0x10 build/stm32f4xx_hal_msp.o
 .debug_ranges  0x00000190      0x3c0 build/stm32f4xx_hal_tim.o
 .debug_ranges  0x00000550      0x158 build/stm32f4xx_hal_tim_ex.o
 .debug_ranges  0x000006a8       0x90 build/stm32f4xx_hal_rcc.o
 .debug_ranges  0x00000738       0x48 build/stm32f4xx_hal_gpio.o
 .debug_ranges  0x00000780       0x80 build/stm32f4xx_hal_dma.o
 .debug_ranges  0x00000800       0x50 build/stm32f4xx_hal_pwr_ex.o
 .debug_ranges  0x00000850      0x100 build/stm32f4xx_hal_cortex.o
 .debug_ranges  0x00000950       0xf0 build/stm32f4xx_hal.o
 .debug_ranges  0x00000a40      0x210 build/stm32f4xx_hal_uart.o
 .debug_ranges  0x00000c50       0x18 build/system_stm32f4xx.o
 .debug_ranges  0x00000c68      0x110 build/spi.o
 .debug_ranges  0x00000d78      0x1c0 build/stm32f4xx_hal_spi.o
 .debug_ranges  0x00000f38       0x20 build/stm32f4xx_hal_timebase_tim.o
 .debug_ranges  0x00000f58       0x40 build/freertos.o
 .debug_ranges  0x00000f98       0x30 build/list.o
 .debug_ranges  0x00000fc8      0x218 build/queue.o
 .debug_ranges  0x000011e0      0x338 build/tasks.o
 .debug_ranges  0x00001518       0xe0 build/timers.o
 .debug_ranges  0x000015f8       0x48 build/heap_4.o
 .debug_ranges  0x00001640       0x88 build/port.o
 .debug_ranges  0x000016c8      0x2a8 build/cmsis_os2.o
 .debug_ranges  0x00001970       0x20 build/i2c.o
 .debug_ranges  0x00001990      0x2b0 build/stm32f4xx_hal_i2c.o
 .debug_ranges  0x00001c40       0x18 build/stm32f4xx_hal_i2c_ex.o
 .debug_ranges  0x00001c58       0x20 build/startup_stm32f429xx.o

.debug_line     0x00000000    0x22474
 .debug_line    0x00000000      0x3f1 build/main.o
 .debug_line    0x000003f1      0x206 build/gpio.o
 .debug_line    0x000005f7      0x1dd build/dma.o
 .debug_line    0x000007d4      0x446 build/tim.o
 .debug_line    0x00000c1a      0x39d build/motor.o
 .debug_line    0x00000fb7      0x2b5 build/bsp_as5600.o
 .debug_line    0x0000126c      0x456 build/usart.o
 .debug_line    0x000016c2      0x348 build/stm32f4xx_it.o
 .debug_line    0x00001a0a      0x175 build/stm32f4xx_hal_msp.o
 .debug_line    0x00001b7f     0x4ab7 build/stm32f4xx_hal_tim.o
 .debug_line    0x00006636     0x1c8e build/stm32f4xx_hal_tim_ex.o
 .debug_line    0x000082c4      0xaed build/stm32f4xx_hal_rcc.o
 .debug_line    0x00008db1      0x6d4 build/stm32f4xx_hal_gpio.o
 .debug_line    0x00009485      0xe03 build/stm32f4xx_hal_dma.o
 .debug_line    0x0000a288      0x490 build/stm32f4xx_hal_pwr_ex.o
 .debug_line    0x0000a718      0x76f build/stm32f4xx_hal_cortex.o
 .debug_line    0x0000ae87      0x57b build/stm32f4xx_hal.o
 .debug_line    0x0000b402     0x4299 build/stm32f4xx_hal_uart.o
 .debug_line    0x0000f69b      0x22e build/system_stm32f4xx.o
 .debug_line    0x0000f8c9      0xc46 build/spi.o
 .debug_line    0x0001050f       0xea build/lcd_fonts.o
 .debug_line    0x000105f9     0x2588 build/stm32f4xx_hal_spi.o
 .debug_line    0x00012b81      0x2ae build/stm32f4xx_hal_timebase_tim.o
 .debug_line    0x00012e2f      0x501 build/freertos.o
 .debug_line    0x00013330      0x337 build/list.o
 .debug_line    0x00013667     0x2017 build/queue.o
 .debug_line    0x0001567e     0x2d56 build/tasks.o
 .debug_line    0x000183d4      0xeed build/timers.o
 .debug_line    0x000192c1      0x6ff build/heap_4.o
 .debug_line    0x000199c0      0x6e8 build/port.o
 .debug_line    0x0001a0a8     0x29d3 build/cmsis_os2.o
 .debug_line    0x0001ca7b      0x2d7 build/i2c.o
 .debug_line    0x0001cd52     0x5451 build/stm32f4xx_hal_i2c.o
 .debug_line    0x000221a3      0x25b build/stm32f4xx_hal_i2c_ex.o
 .debug_line    0x000223fe       0x76 build/startup_stm32f429xx.o

.debug_str      0x00000000     0x8a7e
 .debug_str     0x00000000      0x9f5 build/main.o
                                0xace (size before relaxing)
 .debug_str     0x000009f5       0xb9 build/gpio.o
                                0x391 (size before relaxing)
 .debug_str     0x00000aae      0x763 build/dma.o
                                0xcbe (size before relaxing)
 .debug_str     0x00001211      0x201 build/tim.o
                               0x104f (size before relaxing)
 .debug_str     0x00001412      0x135 build/motor.o
                                0x877 (size before relaxing)
 .debug_str     0x00001547      0x35c build/bsp_as5600.o
                                0x7f1 (size before relaxing)
 .debug_str     0x000018a3      0x28c build/usart.o
                                0xe7a (size before relaxing)
 .debug_str     0x00001b2f      0x16c build/stm32f4xx_it.o
                                0xa89 (size before relaxing)
 .debug_str     0x00001c9b       0x29 build/stm32f4xx_hal_msp.o
                                0x847 (size before relaxing)
 .debug_str     0x00001cc4      0xdcb build/stm32f4xx_hal_tim.o
                               0x16c9 (size before relaxing)
 .debug_str     0x00002a8f      0x521 build/stm32f4xx_hal_tim_ex.o
                                0xeba (size before relaxing)
 .debug_str     0x00002fb0      0x225 build/stm32f4xx_hal_rcc.o
                                0x719 (size before relaxing)
 .debug_str     0x000031d5      0x125 build/stm32f4xx_hal_gpio.o
                                0x4f3 (size before relaxing)
 .debug_str     0x000032fa      0x2a7 build/stm32f4xx_hal_dma.o
                                0x776 (size before relaxing)
 .debug_str     0x000035a1      0x18f build/stm32f4xx_hal_pwr_ex.o
                                0x4de (size before relaxing)
 .debug_str     0x00003730      0x487 build/stm32f4xx_hal_cortex.o
                                0xca7 (size before relaxing)
 .debug_str     0x00003bb7      0x2da build/stm32f4xx_hal.o
                                0xc0c (size before relaxing)
 .debug_str     0x00003e91      0x5eb build/stm32f4xx_hal_uart.o
                                0xd9b (size before relaxing)
 .debug_str     0x0000447c       0x47 build/system_stm32f4xx.o
                                0x388 (size before relaxing)
 .debug_str     0x000044c3      0x31a build/spi.o
                                0xbac (size before relaxing)
 .debug_str     0x000047dd       0x9e build/lcd_fonts.o
                                0x272 (size before relaxing)
 .debug_str     0x0000487b      0x4c9 build/stm32f4xx_hal_spi.o
                                0xbfa (size before relaxing)
 .debug_str     0x00004d44       0x4c build/stm32f4xx_hal_timebase_tim.o
                                0xec9 (size before relaxing)
 .debug_str     0x00004d90      0x60a build/freertos.o
                                0x901 (size before relaxing)
 .debug_str     0x0000539a      0x141 build/list.o
                                0x302 (size before relaxing)
 .debug_str     0x000054db      0x9e4 build/queue.o
                                0xd18 (size before relaxing)
 .debug_str     0x00005ebf      0xc5b build/tasks.o
                               0x12e7 (size before relaxing)
 .debug_str     0x00006b1a      0x5d8 build/timers.o
                                0xc48 (size before relaxing)
 .debug_str     0x000070f2      0x2bf build/heap_4.o
                                0x510 (size before relaxing)
 .debug_str     0x000073b1      0x191 build/port.o
                                0x482 (size before relaxing)
 .debug_str     0x00007542      0xc1b build/cmsis_os2.o
                               0x21b9 (size before relaxing)
 .debug_str     0x0000815d       0x83 build/i2c.o
                                0x8fd (size before relaxing)
 .debug_str     0x000081e0      0x842 build/stm32f4xx_hal_i2c.o
                               0x1042 (size before relaxing)
 .debug_str     0x00008a22       0x38 build/stm32f4xx_hal_i2c_ex.o
                                0x757 (size before relaxing)
 .debug_str     0x00008a5a       0x24 build/startup_stm32f429xx.o
                                 0x47 (size before relaxing)

.comment        0x00000000       0x49
 .comment       0x00000000       0x49 build/main.o
                                 0x4a (size before relaxing)
 .comment       0x00000049       0x4a build/gpio.o
 .comment       0x00000049       0x4a build/dma.o
 .comment       0x00000049       0x4a build/tim.o
 .comment       0x00000049       0x4a build/motor.o
 .comment       0x00000049       0x4a build/bsp_as5600.o
 .comment       0x00000049       0x4a build/usart.o
 .comment       0x00000049       0x4a build/stm32f4xx_it.o
 .comment       0x00000049       0x4a build/stm32f4xx_hal_msp.o
 .comment       0x00000049       0x4a build/stm32f4xx_hal_tim.o
 .comment       0x00000049       0x4a build/stm32f4xx_hal_tim_ex.o
 .comment       0x00000049       0x4a build/stm32f4xx_hal_rcc.o
 .comment       0x00000049       0x4a build/stm32f4xx_hal_gpio.o
 .comment       0x00000049       0x4a build/stm32f4xx_hal_dma.o
 .comment       0x00000049       0x4a build/stm32f4xx_hal_pwr_ex.o
 .comment       0x00000049       0x4a build/stm32f4xx_hal_cortex.o
 .comment       0x00000049       0x4a build/stm32f4xx_hal.o
 .comment       0x00000049       0x4a build/stm32f4xx_hal_uart.o
 .comment       0x00000049       0x4a build/system_stm32f4xx.o
 .comment       0x00000049       0x4a build/spi.o
 .comment       0x00000049       0x4a build/lcd_fonts.o
 .comment       0x00000049       0x4a build/stm32f4xx_hal_spi.o
 .comment       0x00000049       0x4a build/stm32f4xx_hal_timebase_tim.o
 .comment       0x00000049       0x4a build/freertos.o
 .comment       0x00000049       0x4a build/list.o
 .comment       0x00000049       0x4a build/queue.o
 .comment       0x00000049       0x4a build/tasks.o
 .comment       0x00000049       0x4a build/timers.o
 .comment       0x00000049       0x4a build/heap_4.o
 .comment       0x00000049       0x4a build/port.o
 .comment       0x00000049       0x4a build/cmsis_os2.o
 .comment       0x00000049       0x4a build/i2c.o
 .comment       0x00000049       0x4a build/stm32f4xx_hal_i2c.o
 .comment       0x00000049       0x4a build/stm32f4xx_hal_i2c_ex.o

.debug_frame    0x00000000     0x594c
 .debug_frame   0x00000000       0x70 build/main.o
 .debug_frame   0x00000070       0x38 build/gpio.o
 .debug_frame   0x000000a8       0x40 build/dma.o
 .debug_frame   0x000000e8       0xa8 build/tim.o
 .debug_frame   0x00000190       0xac build/motor.o
 .debug_frame   0x0000023c       0xac build/bsp_as5600.o
 .debug_frame   0x000002e8       0x98 build/usart.o
 .debug_frame   0x00000380      0x128 build/stm32f4xx_it.o
 .debug_frame   0x000004a8       0x2c build/stm32f4xx_hal_msp.o
 .debug_frame   0x000004d4      0xb10 build/stm32f4xx_hal_tim.o
 .debug_frame   0x00000fe4      0x40c build/stm32f4xx_hal_tim_ex.o
 .debug_frame   0x000013f0      0x16c build/stm32f4xx_hal_rcc.o
 .debug_frame   0x0000155c       0xd8 build/stm32f4xx_hal_gpio.o
 .debug_frame   0x00001634      0x188 build/stm32f4xx_hal_dma.o
 .debug_frame   0x000017bc       0xf4 build/stm32f4xx_hal_pwr_ex.o
 .debug_frame   0x000018b0      0x158 build/stm32f4xx_hal_cortex.o
 .debug_frame   0x00001a08      0x20c build/stm32f4xx_hal.o
 .debug_frame   0x00001c14      0x5e4 build/stm32f4xx_hal_uart.o
 .debug_frame   0x000021f8       0x30 build/system_stm32f4xx.o
 .debug_frame   0x00002228      0x24c build/spi.o
 .debug_frame   0x00002474      0x5c8 build/stm32f4xx_hal_spi.o
 .debug_frame   0x00002a3c       0x54 build/stm32f4xx_hal_timebase_tim.o
 .debug_frame   0x00002a90       0xc4 build/freertos.o
 .debug_frame   0x00002b54       0x70 build/list.o
 .debug_frame   0x00002bc4      0x458 build/queue.o
 .debug_frame   0x0000301c      0x688 build/tasks.o
 .debug_frame   0x000036a4      0x30c build/timers.o
 .debug_frame   0x000039b0       0xd0 build/heap_4.o
 .debug_frame   0x00003a80      0x110 build/port.o
 .debug_frame   0x00003b90      0x900 build/cmsis_os2.o
 .debug_frame   0x00004490       0x64 build/i2c.o
 .debug_frame   0x000044f4      0x988 build/stm32f4xx_hal_i2c.o
 .debug_frame   0x00004e7c       0x30 build/stm32f4xx_hal_i2c_ex.o
 .debug_frame   0x00004eac       0x2c d:/gcc-arm-none-eabi-10.3-2021.10/bin/../lib/gcc/arm-none-eabi/10.3.1/../../../../arm-none-eabi/lib/thumb/v7e-m+fp/hard\libc_nano.a(lib_a-init.o)
 .debug_frame   0x00004ed8       0x28 d:/gcc-arm-none-eabi-10.3-2021.10/bin/../lib/gcc/arm-none-eabi/10.3.1/../../../../arm-none-eabi/lib/thumb/v7e-m+fp/hard\libc_nano.a(lib_a-memcpy-stub.o)
 .debug_frame   0x00004f00       0x20 d:/gcc-arm-none-eabi-10.3-2021.10/bin/../lib/gcc/arm-none-eabi/10.3.1/../../../../arm-none-eabi/lib/thumb/v7e-m+fp/hard\libc_nano.a(lib_a-memset.o)
 .debug_frame   0x00004f20       0x6c d:/gcc-arm-none-eabi-10.3-2021.10/bin/../lib/gcc/arm-none-eabi/10.3.1/../../../../arm-none-eabi/lib/thumb/v7e-m+fp/hard\libc_nano.a(lib_a-sprintf.o)
 .debug_frame   0x00004f8c       0x20 d:/gcc-arm-none-eabi-10.3-2021.10/bin/../lib/gcc/arm-none-eabi/10.3.1/../../../../arm-none-eabi/lib/thumb/v7e-m+fp/hard\libc_nano.a(lib_a-strcpy.o)
 .debug_frame   0x00004fac       0x4c d:/gcc-arm-none-eabi-10.3-2021.10/bin/../lib/gcc/arm-none-eabi/10.3.1/../../../../arm-none-eabi/lib/thumb/v7e-m+fp/hard\libc_nano.a(lib_a-vsnprintf.o)
 .debug_frame   0x00004ff8       0x90 d:/gcc-arm-none-eabi-10.3-2021.10/bin/../lib/gcc/arm-none-eabi/10.3.1/../../../../arm-none-eabi/lib/thumb/v7e-m+fp/hard\libc_nano.a(lib_a-nano-svfprintf.o)
 .debug_frame   0x00005088       0x60 d:/gcc-arm-none-eabi-10.3-2021.10/bin/../lib/gcc/arm-none-eabi/10.3.1/../../../../arm-none-eabi/lib/thumb/v7e-m+fp/hard\libc_nano.a(lib_a-nano-vfprintf_i.o)
 .debug_frame   0x000050e8       0x28 d:/gcc-arm-none-eabi-10.3-2021.10/bin/../lib/gcc/arm-none-eabi/10.3.1/../../../../arm-none-eabi/lib/thumb/v7e-m+fp/hard\libc_nano.a(lib_a-memmove.o)
 .debug_frame   0x00005110       0x38 d:/gcc-arm-none-eabi-10.3-2021.10/bin/../lib/gcc/arm-none-eabi/10.3.1/../../../../arm-none-eabi/lib/thumb/v7e-m+fp/hard\libc_nano.a(lib_a-nano-freer.o)
 .debug_frame   0x00005148       0x4c d:/gcc-arm-none-eabi-10.3-2021.10/bin/../lib/gcc/arm-none-eabi/10.3.1/../../../../arm-none-eabi/lib/thumb/v7e-m+fp/hard\libc_nano.a(lib_a-nano-mallocr.o)
 .debug_frame   0x00005194       0x3c d:/gcc-arm-none-eabi-10.3-2021.10/bin/../lib/gcc/arm-none-eabi/10.3.1/../../../../arm-none-eabi/lib/thumb/v7e-m+fp/hard\libc_nano.a(lib_a-nano-reallocr.o)
 .debug_frame   0x000051d0       0x2c d:/gcc-arm-none-eabi-10.3-2021.10/bin/../lib/gcc/arm-none-eabi/10.3.1/../../../../arm-none-eabi/lib/thumb/v7e-m+fp/hard\libc_nano.a(lib_a-sbrkr.o)
 .debug_frame   0x000051fc       0x30 d:/gcc-arm-none-eabi-10.3-2021.10/bin/../lib/gcc/arm-none-eabi/10.3.1/../../../../arm-none-eabi/lib/thumb/v7e-m+fp/hard\libc_nano.a(lib_a-mlock.o)
 .debug_frame   0x0000522c       0x20 d:/gcc-arm-none-eabi-10.3-2021.10/bin/../lib/gcc/arm-none-eabi/10.3.1/../../../../arm-none-eabi/lib/thumb/v7e-m+fp/hard\libc_nano.a(lib_a-nano-msizer.o)
 .debug_frame   0x0000524c       0x5c d:/gcc-arm-none-eabi-10.3-2021.10/bin/../lib/gcc/arm-none-eabi/10.3.1/../../../../arm-none-eabi/lib/thumb/v7e-m+fp/hard\libc_nano.a(lib_a-reent.o)
 .debug_frame   0x000052a8       0xb0 d:/gcc-arm-none-eabi-10.3-2021.10/bin/../lib/gcc/arm-none-eabi/10.3.1/../../../../arm-none-eabi/lib/thumb/v7e-m+fp/hard\libc_nano.a(lib_a-lock.o)
 .debug_frame   0x00005358       0x40 d:/gcc-arm-none-eabi-10.3-2021.10/bin/../lib/gcc/arm-none-eabi/10.3.1/../../../../arm-none-eabi/lib/thumb/v7e-m+fp/hard\libm.a(lib_a-s_cos.o)
 .debug_frame   0x00005398       0x28 d:/gcc-arm-none-eabi-10.3-2021.10/bin/../lib/gcc/arm-none-eabi/10.3.1/../../../../arm-none-eabi/lib/thumb/v7e-m+fp/hard\libm.a(lib_a-s_round.o)
 .debug_frame   0x000053c0       0x3c d:/gcc-arm-none-eabi-10.3-2021.10/bin/../lib/gcc/arm-none-eabi/10.3.1/../../../../arm-none-eabi/lib/thumb/v7e-m+fp/hard\libm.a(lib_a-s_sin.o)
 .debug_frame   0x000053fc       0x4c d:/gcc-arm-none-eabi-10.3-2021.10/bin/../lib/gcc/arm-none-eabi/10.3.1/../../../../arm-none-eabi/lib/thumb/v7e-m+fp/hard\libm.a(lib_a-w_fmod.o)
 .debug_frame   0x00005448       0x34 d:/gcc-arm-none-eabi-10.3-2021.10/bin/../lib/gcc/arm-none-eabi/10.3.1/../../../../arm-none-eabi/lib/thumb/v7e-m+fp/hard\libm.a(lib_a-e_fmod.o)
 .debug_frame   0x0000547c       0x7c d:/gcc-arm-none-eabi-10.3-2021.10/bin/../lib/gcc/arm-none-eabi/10.3.1/../../../../arm-none-eabi/lib/thumb/v7e-m+fp/hard\libm.a(lib_a-e_rem_pio2.o)
 .debug_frame   0x000054f8       0x70 d:/gcc-arm-none-eabi-10.3-2021.10/bin/../lib/gcc/arm-none-eabi/10.3.1/../../../../arm-none-eabi/lib/thumb/v7e-m+fp/hard\libm.a(lib_a-k_cos.o)
 .debug_frame   0x00005568       0x58 d:/gcc-arm-none-eabi-10.3-2021.10/bin/../lib/gcc/arm-none-eabi/10.3.1/../../../../arm-none-eabi/lib/thumb/v7e-m+fp/hard\libm.a(lib_a-k_rem_pio2.o)
 .debug_frame   0x000055c0       0x48 d:/gcc-arm-none-eabi-10.3-2021.10/bin/../lib/gcc/arm-none-eabi/10.3.1/../../../../arm-none-eabi/lib/thumb/v7e-m+fp/hard\libm.a(lib_a-k_sin.o)
 .debug_frame   0x00005608       0x20 d:/gcc-arm-none-eabi-10.3-2021.10/bin/../lib/gcc/arm-none-eabi/10.3.1/../../../../arm-none-eabi/lib/thumb/v7e-m+fp/hard\libm.a(lib_a-s_fabs.o)
 .debug_frame   0x00005628       0x30 d:/gcc-arm-none-eabi-10.3-2021.10/bin/../lib/gcc/arm-none-eabi/10.3.1/../../../../arm-none-eabi/lib/thumb/v7e-m+fp/hard\libm.a(lib_a-s_floor.o)
 .debug_frame   0x00005658       0x2c d:/gcc-arm-none-eabi-10.3-2021.10/bin/../lib/gcc/arm-none-eabi/10.3.1/../../../../arm-none-eabi/lib/thumb/v7e-m+fp/hard\libm.a(lib_a-s_scalbn.o)
 .debug_frame   0x00005684       0x20 d:/gcc-arm-none-eabi-10.3-2021.10/bin/../lib/gcc/arm-none-eabi/10.3.1/../../../../arm-none-eabi/lib/thumb/v7e-m+fp/hard\libnosys.a(sbrk.o)
 .debug_frame   0x000056a4       0xac d:/gcc-arm-none-eabi-10.3-2021.10/bin/../lib/gcc/arm-none-eabi/10.3.1/thumb/v7e-m+fp/hard\libgcc.a(_arm_addsubdf3.o)
 .debug_frame   0x00005750       0x50 d:/gcc-arm-none-eabi-10.3-2021.10/bin/../lib/gcc/arm-none-eabi/10.3.1/thumb/v7e-m+fp/hard\libgcc.a(_arm_muldivdf3.o)
 .debug_frame   0x000057a0       0xc4 d:/gcc-arm-none-eabi-10.3-2021.10/bin/../lib/gcc/arm-none-eabi/10.3.1/thumb/v7e-m+fp/hard\libgcc.a(_arm_cmpdf2.o)
 .debug_frame   0x00005864       0x20 d:/gcc-arm-none-eabi-10.3-2021.10/bin/../lib/gcc/arm-none-eabi/10.3.1/thumb/v7e-m+fp/hard\libgcc.a(_arm_unorddf2.o)
 .debug_frame   0x00005884       0x24 d:/gcc-arm-none-eabi-10.3-2021.10/bin/../lib/gcc/arm-none-eabi/10.3.1/thumb/v7e-m+fp/hard\libgcc.a(_arm_fixdfsi.o)
 .debug_frame   0x000058a8       0x24 d:/gcc-arm-none-eabi-10.3-2021.10/bin/../lib/gcc/arm-none-eabi/10.3.1/thumb/v7e-m+fp/hard\libgcc.a(_arm_truncdfsf2.o)
 .debug_frame   0x000058cc       0x2c d:/gcc-arm-none-eabi-10.3-2021.10/bin/../lib/gcc/arm-none-eabi/10.3.1/thumb/v7e-m+fp/hard\libgcc.a(_aeabi_uldivmod.o)
 .debug_frame   0x000058f8       0x34 d:/gcc-arm-none-eabi-10.3-2021.10/bin/../lib/gcc/arm-none-eabi/10.3.1/thumb/v7e-m+fp/hard\libgcc.a(_udivmoddi4.o)
 .debug_frame   0x0000592c       0x20 d:/gcc-arm-none-eabi-10.3-2021.10/bin/../lib/gcc/arm-none-eabi/10.3.1/../../../../arm-none-eabi/lib/thumb/v7e-m+fp/hard\libc_nano.a(lib_a-errno.o)

Cross Reference Table

Symbol                                            File
ADC_IRQHandler                                    build/startup_stm32f429xx.o
AHBPrescTable                                     build/system_stm32f4xx.o
                                                  build/stm32f4xx_hal_rcc.o
APBPrescTable                                     build/system_stm32f4xx.o
                                                  build/stm32f4xx_hal_rcc.o
ASCII_1206_Table                                  build/lcd_fonts.o
ASCII_1608_Table                                  build/lcd_fonts.o
ASCII_2010_Table                                  build/lcd_fonts.o
ASCII_2412_Table                                  build/lcd_fonts.o
ASCII_3216_Table                                  build/lcd_fonts.o
ASCII_Font12                                      build/lcd_fonts.o
ASCII_Font16                                      build/lcd_fonts.o
ASCII_Font20                                      build/lcd_fonts.o
ASCII_Font24                                      build/lcd_fonts.o
                                                  build/spi.o
ASCII_Font32                                      build/lcd_fonts.o
BusFault_Handler                                  build/stm32f4xx_it.o
CAN1_RX0_IRQHandler                               build/startup_stm32f429xx.o
CAN1_RX1_IRQHandler                               build/startup_stm32f429xx.o
CAN1_SCE_IRQHandler                               build/startup_stm32f429xx.o
CAN1_TX_IRQHandler                                build/startup_stm32f429xx.o
CAN2_RX0_IRQHandler                               build/startup_stm32f429xx.o
CAN2_RX1_IRQHandler                               build/startup_stm32f429xx.o
CAN2_SCE_IRQHandler                               build/startup_stm32f429xx.o
CAN2_TX_IRQHandler                                build/startup_stm32f429xx.o
DCMI_IRQHandler                                   build/startup_stm32f429xx.o
DMA1_Stream0_IRQHandler                           build/startup_stm32f429xx.o
DMA1_Stream1_IRQHandler                           build/startup_stm32f429xx.o
DMA1_Stream2_IRQHandler                           build/startup_stm32f429xx.o
DMA1_Stream3_IRQHandler                           build/startup_stm32f429xx.o
DMA1_Stream4_IRQHandler                           build/startup_stm32f429xx.o
DMA1_Stream5_IRQHandler                           build/stm32f4xx_it.o
DMA1_Stream6_IRQHandler                           build/startup_stm32f429xx.o
DMA1_Stream7_IRQHandler                           build/startup_stm32f429xx.o
DMA2D_IRQHandler                                  build/startup_stm32f429xx.o
DMA2_Stream0_IRQHandler                           build/startup_stm32f429xx.o
DMA2_Stream1_IRQHandler                           build/startup_stm32f429xx.o
DMA2_Stream2_IRQHandler                           build/stm32f4xx_it.o
DMA2_Stream3_IRQHandler                           build/startup_stm32f429xx.o
DMA2_Stream4_IRQHandler                           build/startup_stm32f429xx.o
DMA2_Stream5_IRQHandler                           build/startup_stm32f429xx.o
DMA2_Stream6_IRQHandler                           build/startup_stm32f429xx.o
DMA2_Stream7_IRQHandler                           build/stm32f4xx_it.o
DebugMon_Handler                                  build/stm32f4xx_it.o
Default_Handler                                   build/startup_stm32f429xx.o
ETH_IRQHandler                                    build/startup_stm32f429xx.o
ETH_WKUP_IRQHandler                               build/startup_stm32f429xx.o
EXTI0_IRQHandler                                  build/startup_stm32f429xx.o
EXTI15_10_IRQHandler                              build/startup_stm32f429xx.o
EXTI1_IRQHandler                                  build/startup_stm32f429xx.o
EXTI2_IRQHandler                                  build/startup_stm32f429xx.o
EXTI3_IRQHandler                                  build/startup_stm32f429xx.o
EXTI4_IRQHandler                                  build/startup_stm32f429xx.o
EXTI9_5_IRQHandler                                build/startup_stm32f429xx.o
Error_Handler                                     build/main.o
                                                  build/i2c.o
                                                  build/spi.o
                                                  build/usart.o
                                                  build/tim.o
FLASH_Erase_Sector                                build/stm32f4xx_hal_flash_ex.o
                                                  build/stm32f4xx_hal_flash.o
FLASH_FlushCaches                                 build/stm32f4xx_hal_flash_ex.o
                                                  build/stm32f4xx_hal_flash.o
FLASH_IRQHandler                                  build/startup_stm32f429xx.o
FLASH_WaitForLastOperation                        build/stm32f4xx_hal_flash.o
                                                  build/stm32f4xx_hal_flash_ex.o
FMC_IRQHandler                                    build/startup_stm32f429xx.o
FPU_IRQHandler                                    build/startup_stm32f429xx.o
HAL_CORTEX_ClearEvent                             build/stm32f4xx_hal_cortex.o
HAL_DBGMCU_DisableDBGSleepMode                    build/stm32f4xx_hal.o
HAL_DBGMCU_DisableDBGStandbyMode                  build/stm32f4xx_hal.o
HAL_DBGMCU_DisableDBGStopMode                     build/stm32f4xx_hal.o
HAL_DBGMCU_EnableDBGSleepMode                     build/stm32f4xx_hal.o
HAL_DBGMCU_EnableDBGStandbyMode                   build/stm32f4xx_hal.o
HAL_DBGMCU_EnableDBGStopMode                      build/stm32f4xx_hal.o
HAL_DMAEx_ChangeMemory                            build/stm32f4xx_hal_dma_ex.o
HAL_DMAEx_MultiBufferStart                        build/stm32f4xx_hal_dma_ex.o
HAL_DMAEx_MultiBufferStart_IT                     build/stm32f4xx_hal_dma_ex.o
HAL_DMA_Abort                                     build/stm32f4xx_hal_dma.o
                                                  build/stm32f4xx_hal_spi.o
                                                  build/stm32f4xx_hal_uart.o
HAL_DMA_Abort_IT                                  build/stm32f4xx_hal_dma.o
                                                  build/stm32f4xx_hal_i2c.o
                                                  build/stm32f4xx_hal_spi.o
                                                  build/stm32f4xx_hal_uart.o
                                                  build/stm32f4xx_hal_tim_ex.o
                                                  build/stm32f4xx_hal_tim.o
HAL_DMA_DeInit                                    build/stm32f4xx_hal_dma.o
                                                  build/spi.o
                                                  build/usart.o
HAL_DMA_GetError                                  build/stm32f4xx_hal_dma.o
                                                  build/stm32f4xx_hal_i2c.o
                                                  build/stm32f4xx_hal_uart.o
HAL_DMA_GetState                                  build/stm32f4xx_hal_dma.o
                                                  build/stm32f4xx_hal_i2c.o
HAL_DMA_IRQHandler                                build/stm32f4xx_hal_dma.o
                                                  build/stm32f4xx_it.o
HAL_DMA_Init                                      build/stm32f4xx_hal_dma.o
                                                  build/spi.o
                                                  build/usart.o
HAL_DMA_PollForTransfer                           build/stm32f4xx_hal_dma.o
HAL_DMA_RegisterCallback                          build/stm32f4xx_hal_dma.o
HAL_DMA_Start                                     build/stm32f4xx_hal_dma.o
HAL_DMA_Start_IT                                  build/stm32f4xx_hal_dma.o
                                                  build/stm32f4xx_hal_i2c.o
                                                  build/stm32f4xx_hal_spi.o
                                                  build/stm32f4xx_hal_uart.o
                                                  build/stm32f4xx_hal_tim_ex.o
                                                  build/stm32f4xx_hal_tim.o
HAL_DMA_UnRegisterCallback                        build/stm32f4xx_hal_dma.o
HAL_DeInit                                        build/stm32f4xx_hal.o
HAL_Delay                                         build/stm32f4xx_hal.o
                                                  build/spi.o
HAL_DisableCompensationCell                       build/stm32f4xx_hal.o
HAL_DisableMemorySwappingBank                     build/stm32f4xx_hal.o
HAL_EXTI_ClearConfigLine                          build/stm32f4xx_hal_exti.o
HAL_EXTI_ClearPending                             build/stm32f4xx_hal_exti.o
HAL_EXTI_GenerateSWI                              build/stm32f4xx_hal_exti.o
HAL_EXTI_GetConfigLine                            build/stm32f4xx_hal_exti.o
HAL_EXTI_GetHandle                                build/stm32f4xx_hal_exti.o
HAL_EXTI_GetPending                               build/stm32f4xx_hal_exti.o
HAL_EXTI_IRQHandler                               build/stm32f4xx_hal_exti.o
HAL_EXTI_RegisterCallback                         build/stm32f4xx_hal_exti.o
HAL_EXTI_SetConfigLine                            build/stm32f4xx_hal_exti.o
HAL_EnableCompensationCell                        build/stm32f4xx_hal.o
HAL_EnableMemorySwappingBank                      build/stm32f4xx_hal.o
HAL_FLASHEx_AdvOBGetConfig                        build/stm32f4xx_hal_flash_ex.o
HAL_FLASHEx_AdvOBProgram                          build/stm32f4xx_hal_flash_ex.o
HAL_FLASHEx_Erase                                 build/stm32f4xx_hal_flash_ex.o
HAL_FLASHEx_Erase_IT                              build/stm32f4xx_hal_flash_ex.o
HAL_FLASHEx_OBGetConfig                           build/stm32f4xx_hal_flash_ex.o
HAL_FLASHEx_OBProgram                             build/stm32f4xx_hal_flash_ex.o
HAL_FLASHEx_OB_DeSelectPCROP                      build/stm32f4xx_hal_flash_ex.o
HAL_FLASHEx_OB_GetBank2WRP                        build/stm32f4xx_hal_flash_ex.o
HAL_FLASHEx_OB_SelectPCROP                        build/stm32f4xx_hal_flash_ex.o
HAL_FLASH_EndOfOperationCallback                  build/stm32f4xx_hal_flash.o
HAL_FLASH_GetError                                build/stm32f4xx_hal_flash.o
HAL_FLASH_IRQHandler                              build/stm32f4xx_hal_flash.o
HAL_FLASH_Lock                                    build/stm32f4xx_hal_flash.o
HAL_FLASH_OB_Launch                               build/stm32f4xx_hal_flash.o
HAL_FLASH_OB_Lock                                 build/stm32f4xx_hal_flash.o
HAL_FLASH_OB_Unlock                               build/stm32f4xx_hal_flash.o
HAL_FLASH_OperationErrorCallback                  build/stm32f4xx_hal_flash.o
HAL_FLASH_Program                                 build/stm32f4xx_hal_flash.o
HAL_FLASH_Program_IT                              build/stm32f4xx_hal_flash.o
HAL_FLASH_Unlock                                  build/stm32f4xx_hal_flash.o
HAL_GPIO_DeInit                                   build/stm32f4xx_hal_gpio.o
                                                  build/i2c.o
                                                  build/spi.o
                                                  build/usart.o
HAL_GPIO_EXTI_Callback                            build/stm32f4xx_hal_gpio.o
HAL_GPIO_EXTI_IRQHandler                          build/stm32f4xx_hal_gpio.o
HAL_GPIO_Init                                     build/stm32f4xx_hal_gpio.o
                                                  build/i2c.o
                                                  build/spi.o
                                                  build/stm32f4xx_hal_rcc.o
                                                  build/usart.o
                                                  build/tim.o
                                                  build/gpio.o
HAL_GPIO_LockPin                                  build/stm32f4xx_hal_gpio.o
HAL_GPIO_ReadPin                                  build/stm32f4xx_hal_gpio.o
HAL_GPIO_TogglePin                                build/stm32f4xx_hal_gpio.o
HAL_GPIO_WritePin                                 build/stm32f4xx_hal_gpio.o
                                                  build/spi.o
                                                  build/motor.o
                                                  build/gpio.o
HAL_GetDEVID                                      build/stm32f4xx_hal.o
HAL_GetHalVersion                                 build/stm32f4xx_hal.o
HAL_GetREVID                                      build/stm32f4xx_hal.o
HAL_GetTick                                       build/stm32f4xx_hal.o
                                                  build/stm32f4xx_hal_i2c.o
                                                  build/stm32f4xx_hal_spi.o
                                                  build/stm32f4xx_hal_uart.o
                                                  build/stm32f4xx_hal_pwr_ex.o
                                                  build/stm32f4xx_hal_dma.o
                                                  build/stm32f4xx_hal_flash.o
                                                  build/stm32f4xx_hal_rcc_ex.o
                                                  build/stm32f4xx_hal_rcc.o
HAL_GetTickFreq                                   build/stm32f4xx_hal.o
HAL_GetTickPrio                                   build/stm32f4xx_hal.o
HAL_GetUIDw0                                      build/stm32f4xx_hal.o
HAL_GetUIDw1                                      build/stm32f4xx_hal.o
HAL_GetUIDw2                                      build/stm32f4xx_hal.o
HAL_HalfDuplex_EnableReceiver                     build/stm32f4xx_hal_uart.o
HAL_HalfDuplex_EnableTransmitter                  build/stm32f4xx_hal_uart.o
HAL_HalfDuplex_Init                               build/stm32f4xx_hal_uart.o
HAL_I2CEx_ConfigAnalogFilter                      build/stm32f4xx_hal_i2c_ex.o
                                                  build/i2c.o
HAL_I2CEx_ConfigDigitalFilter                     build/stm32f4xx_hal_i2c_ex.o
                                                  build/i2c.o
HAL_I2C_AbortCpltCallback                         build/stm32f4xx_hal_i2c.o
HAL_I2C_AddrCallback                              build/stm32f4xx_hal_i2c.o
HAL_I2C_DeInit                                    build/stm32f4xx_hal_i2c.o
HAL_I2C_DisableListen_IT                          build/stm32f4xx_hal_i2c.o
HAL_I2C_ER_IRQHandler                             build/stm32f4xx_hal_i2c.o
HAL_I2C_EV_IRQHandler                             build/stm32f4xx_hal_i2c.o
HAL_I2C_EnableListen_IT                           build/stm32f4xx_hal_i2c.o
HAL_I2C_ErrorCallback                             build/stm32f4xx_hal_i2c.o
HAL_I2C_GetError                                  build/stm32f4xx_hal_i2c.o
HAL_I2C_GetMode                                   build/stm32f4xx_hal_i2c.o
HAL_I2C_GetState                                  build/stm32f4xx_hal_i2c.o
HAL_I2C_Init                                      build/stm32f4xx_hal_i2c.o
                                                  build/i2c.o
HAL_I2C_IsDeviceReady                             build/stm32f4xx_hal_i2c.o
HAL_I2C_ListenCpltCallback                        build/stm32f4xx_hal_i2c.o
HAL_I2C_MasterRxCpltCallback                      build/stm32f4xx_hal_i2c.o
HAL_I2C_MasterTxCpltCallback                      build/stm32f4xx_hal_i2c.o
HAL_I2C_Master_Abort_IT                           build/stm32f4xx_hal_i2c.o
HAL_I2C_Master_Receive                            build/stm32f4xx_hal_i2c.o
                                                  build/bsp_as5600.o
HAL_I2C_Master_Receive_DMA                        build/stm32f4xx_hal_i2c.o
HAL_I2C_Master_Receive_IT                         build/stm32f4xx_hal_i2c.o
HAL_I2C_Master_Seq_Receive_DMA                    build/stm32f4xx_hal_i2c.o
HAL_I2C_Master_Seq_Receive_IT                     build/stm32f4xx_hal_i2c.o
HAL_I2C_Master_Seq_Transmit_DMA                   build/stm32f4xx_hal_i2c.o
HAL_I2C_Master_Seq_Transmit_IT                    build/stm32f4xx_hal_i2c.o
HAL_I2C_Master_Transmit                           build/stm32f4xx_hal_i2c.o
                                                  build/bsp_as5600.o
HAL_I2C_Master_Transmit_DMA                       build/stm32f4xx_hal_i2c.o
HAL_I2C_Master_Transmit_IT                        build/stm32f4xx_hal_i2c.o
HAL_I2C_MemRxCpltCallback                         build/stm32f4xx_hal_i2c.o
HAL_I2C_MemTxCpltCallback                         build/stm32f4xx_hal_i2c.o
HAL_I2C_Mem_Read                                  build/stm32f4xx_hal_i2c.o
HAL_I2C_Mem_Read_DMA                              build/stm32f4xx_hal_i2c.o
HAL_I2C_Mem_Read_IT                               build/stm32f4xx_hal_i2c.o
HAL_I2C_Mem_Write                                 build/stm32f4xx_hal_i2c.o
HAL_I2C_Mem_Write_DMA                             build/stm32f4xx_hal_i2c.o
HAL_I2C_Mem_Write_IT                              build/stm32f4xx_hal_i2c.o
HAL_I2C_MspDeInit                                 build/i2c.o
HAL_I2C_MspInit                                   build/i2c.o
HAL_I2C_SlaveRxCpltCallback                       build/stm32f4xx_hal_i2c.o
HAL_I2C_SlaveTxCpltCallback                       build/stm32f4xx_hal_i2c.o
HAL_I2C_Slave_Receive                             build/stm32f4xx_hal_i2c.o
HAL_I2C_Slave_Receive_DMA                         build/stm32f4xx_hal_i2c.o
HAL_I2C_Slave_Receive_IT                          build/stm32f4xx_hal_i2c.o
HAL_I2C_Slave_Seq_Receive_DMA                     build/stm32f4xx_hal_i2c.o
HAL_I2C_Slave_Seq_Receive_IT                      build/stm32f4xx_hal_i2c.o
HAL_I2C_Slave_Seq_Transmit_DMA                    build/stm32f4xx_hal_i2c.o
HAL_I2C_Slave_Seq_Transmit_IT                     build/stm32f4xx_hal_i2c.o
HAL_I2C_Slave_Transmit                            build/stm32f4xx_hal_i2c.o
HAL_I2C_Slave_Transmit_DMA                        build/stm32f4xx_hal_i2c.o
HAL_I2C_Slave_Transmit_IT                         build/stm32f4xx_hal_i2c.o
HAL_IncTick                                       build/stm32f4xx_hal.o
                                                  build/main.o
HAL_Init                                          build/stm32f4xx_hal.o
                                                  build/main.o
HAL_InitTick                                      build/stm32f4xx_hal_timebase_tim.o
                                                  build/stm32f4xx_hal.o
                                                  build/stm32f4xx_hal_rcc_ex.o
                                                  build/stm32f4xx_hal_rcc.o
HAL_LIN_Init                                      build/stm32f4xx_hal_uart.o
HAL_LIN_SendBreak                                 build/stm32f4xx_hal_uart.o
HAL_MPU_ConfigRegion                              build/stm32f4xx_hal_cortex.o
HAL_MPU_Disable                                   build/stm32f4xx_hal_cortex.o
HAL_MPU_Enable                                    build/stm32f4xx_hal_cortex.o
HAL_MspDeInit                                     build/stm32f4xx_hal.o
HAL_MspInit                                       build/stm32f4xx_hal_msp.o
HAL_MultiProcessor_EnterMuteMode                  build/stm32f4xx_hal_uart.o
HAL_MultiProcessor_ExitMuteMode                   build/stm32f4xx_hal_uart.o
HAL_MultiProcessor_Init                           build/stm32f4xx_hal_uart.o
HAL_NVIC_ClearPendingIRQ                          build/stm32f4xx_hal_cortex.o
HAL_NVIC_DisableIRQ                               build/stm32f4xx_hal_cortex.o
                                                  build/usart.o
                                                  build/tim.o
HAL_NVIC_EnableIRQ                                build/stm32f4xx_hal_cortex.o
                                                  build/stm32f4xx_hal_timebase_tim.o
                                                  build/usart.o
                                                  build/tim.o
                                                  build/dma.o
HAL_NVIC_GetActive                                build/stm32f4xx_hal_cortex.o
HAL_NVIC_GetPendingIRQ                            build/stm32f4xx_hal_cortex.o
HAL_NVIC_GetPriority                              build/stm32f4xx_hal_cortex.o
HAL_NVIC_GetPriorityGrouping                      build/stm32f4xx_hal_cortex.o
HAL_NVIC_SetPendingIRQ                            build/stm32f4xx_hal_cortex.o
HAL_NVIC_SetPriority                              build/stm32f4xx_hal_cortex.o
                                                  build/stm32f4xx_hal_timebase_tim.o
                                                  build/stm32f4xx_hal.o
                                                  build/stm32f4xx_hal_msp.o
                                                  build/usart.o
                                                  build/tim.o
                                                  build/dma.o
HAL_NVIC_SetPriorityGrouping                      build/stm32f4xx_hal_cortex.o
                                                  build/stm32f4xx_hal.o
HAL_NVIC_SystemReset                              build/stm32f4xx_hal_cortex.o
HAL_PWREx_ControlVoltageScaling                   build/stm32f4xx_hal_pwr_ex.o
HAL_PWREx_DisableBkUpReg                          build/stm32f4xx_hal_pwr_ex.o
HAL_PWREx_DisableFlashPowerDown                   build/stm32f4xx_hal_pwr_ex.o
HAL_PWREx_DisableOverDrive                        build/stm32f4xx_hal_pwr_ex.o
HAL_PWREx_EnableBkUpReg                           build/stm32f4xx_hal_pwr_ex.o
HAL_PWREx_EnableFlashPowerDown                    build/stm32f4xx_hal_pwr_ex.o
HAL_PWREx_EnableOverDrive                         build/stm32f4xx_hal_pwr_ex.o
                                                  build/main.o
HAL_PWREx_EnterUnderDriveSTOPMode                 build/stm32f4xx_hal_pwr_ex.o
HAL_PWREx_GetVoltageRange                         build/stm32f4xx_hal_pwr_ex.o
HAL_PWR_ConfigPVD                                 build/stm32f4xx_hal_pwr.o
HAL_PWR_DeInit                                    build/stm32f4xx_hal_pwr.o
HAL_PWR_DisableBkUpAccess                         build/stm32f4xx_hal_pwr.o
HAL_PWR_DisablePVD                                build/stm32f4xx_hal_pwr.o
HAL_PWR_DisableSEVOnPend                          build/stm32f4xx_hal_pwr.o
HAL_PWR_DisableSleepOnExit                        build/stm32f4xx_hal_pwr.o
HAL_PWR_DisableWakeUpPin                          build/stm32f4xx_hal_pwr.o
HAL_PWR_EnableBkUpAccess                          build/stm32f4xx_hal_pwr.o
HAL_PWR_EnablePVD                                 build/stm32f4xx_hal_pwr.o
HAL_PWR_EnableSEVOnPend                           build/stm32f4xx_hal_pwr.o
HAL_PWR_EnableSleepOnExit                         build/stm32f4xx_hal_pwr.o
HAL_PWR_EnableWakeUpPin                           build/stm32f4xx_hal_pwr.o
HAL_PWR_EnterSLEEPMode                            build/stm32f4xx_hal_pwr.o
HAL_PWR_EnterSTANDBYMode                          build/stm32f4xx_hal_pwr.o
HAL_PWR_EnterSTOPMode                             build/stm32f4xx_hal_pwr.o
HAL_PWR_PVDCallback                               build/stm32f4xx_hal_pwr.o
HAL_PWR_PVD_IRQHandler                            build/stm32f4xx_hal_pwr.o
HAL_RCCEx_DisablePLLI2S                           build/stm32f4xx_hal_rcc_ex.o
HAL_RCCEx_DisablePLLSAI                           build/stm32f4xx_hal_rcc_ex.o
HAL_RCCEx_EnablePLLI2S                            build/stm32f4xx_hal_rcc_ex.o
HAL_RCCEx_EnablePLLSAI                            build/stm32f4xx_hal_rcc_ex.o
HAL_RCCEx_GetPeriphCLKConfig                      build/stm32f4xx_hal_rcc_ex.o
HAL_RCCEx_GetPeriphCLKFreq                        build/stm32f4xx_hal_rcc_ex.o
HAL_RCCEx_PeriphCLKConfig                         build/stm32f4xx_hal_rcc_ex.o
HAL_RCC_CSSCallback                               build/stm32f4xx_hal_rcc.o
HAL_RCC_ClockConfig                               build/stm32f4xx_hal_rcc.o
                                                  build/main.o
HAL_RCC_DeInit                                    build/stm32f4xx_hal_rcc_ex.o
                                                  build/stm32f4xx_hal_rcc.o
HAL_RCC_DisableCSS                                build/stm32f4xx_hal_rcc.o
HAL_RCC_EnableCSS                                 build/stm32f4xx_hal_rcc.o
HAL_RCC_GetClockConfig                            build/stm32f4xx_hal_rcc.o
                                                  build/stm32f4xx_hal_timebase_tim.o
HAL_RCC_GetHCLKFreq                               build/stm32f4xx_hal_rcc.o
HAL_RCC_GetOscConfig                              build/stm32f4xx_hal_rcc.o
HAL_RCC_GetPCLK1Freq                              build/stm32f4xx_hal_rcc.o
                                                  build/stm32f4xx_hal_i2c.o
                                                  build/stm32f4xx_hal_uart.o
HAL_RCC_GetPCLK2Freq                              build/stm32f4xx_hal_rcc.o
                                                  build/stm32f4xx_hal_timebase_tim.o
                                                  build/stm32f4xx_hal_uart.o
HAL_RCC_GetSysClockFreq                           build/stm32f4xx_hal_rcc.o
HAL_RCC_MCOConfig                                 build/stm32f4xx_hal_rcc.o
HAL_RCC_NMI_IRQHandler                            build/stm32f4xx_hal_rcc.o
HAL_RCC_OscConfig                                 build/stm32f4xx_hal_rcc.o
                                                  build/main.o
HAL_ResumeTick                                    build/stm32f4xx_hal_timebase_tim.o
                                                  build/stm32f4xx_hal.o
HAL_SPI_Abort                                     build/stm32f4xx_hal_spi.o
HAL_SPI_AbortCpltCallback                         build/stm32f4xx_hal_spi.o
HAL_SPI_Abort_IT                                  build/stm32f4xx_hal_spi.o
HAL_SPI_DMAPause                                  build/stm32f4xx_hal_spi.o
HAL_SPI_DMAResume                                 build/stm32f4xx_hal_spi.o
HAL_SPI_DMAStop                                   build/stm32f4xx_hal_spi.o
HAL_SPI_DeInit                                    build/stm32f4xx_hal_spi.o
HAL_SPI_ErrorCallback                             build/stm32f4xx_hal_spi.o
HAL_SPI_GetError                                  build/stm32f4xx_hal_spi.o
HAL_SPI_GetState                                  build/stm32f4xx_hal_spi.o
HAL_SPI_IRQHandler                                build/stm32f4xx_hal_spi.o
HAL_SPI_Init                                      build/stm32f4xx_hal_spi.o
                                                  build/spi.o
HAL_SPI_MspDeInit                                 build/spi.o
HAL_SPI_MspInit                                   build/spi.o
HAL_SPI_Receive                                   build/stm32f4xx_hal_spi.o
HAL_SPI_Receive_DMA                               build/stm32f4xx_hal_spi.o
HAL_SPI_Receive_IT                                build/stm32f4xx_hal_spi.o
HAL_SPI_RxCpltCallback                            build/stm32f4xx_hal_spi.o
HAL_SPI_RxHalfCpltCallback                        build/stm32f4xx_hal_spi.o
HAL_SPI_Transmit                                  build/stm32f4xx_hal_spi.o
                                                  build/spi.o
HAL_SPI_TransmitReceive                           build/stm32f4xx_hal_spi.o
HAL_SPI_TransmitReceive_DMA                       build/stm32f4xx_hal_spi.o
HAL_SPI_TransmitReceive_IT                        build/stm32f4xx_hal_spi.o
HAL_SPI_Transmit_DMA                              build/stm32f4xx_hal_spi.o
                                                  build/spi.o
HAL_SPI_Transmit_IT                               build/stm32f4xx_hal_spi.o
HAL_SPI_TxCpltCallback                            build/dma.o
HAL_SPI_TxHalfCpltCallback                        build/stm32f4xx_hal_spi.o
HAL_SPI_TxRxCpltCallback                          build/stm32f4xx_hal_spi.o
HAL_SPI_TxRxHalfCpltCallback                      build/stm32f4xx_hal_spi.o
HAL_SYSTICK_CLKSourceConfig                       build/stm32f4xx_hal_cortex.o
HAL_SYSTICK_Callback                              build/stm32f4xx_hal_cortex.o
HAL_SYSTICK_Config                                build/stm32f4xx_hal_cortex.o
                                                  build/stm32f4xx_hal.o
HAL_SYSTICK_IRQHandler                            build/stm32f4xx_hal_cortex.o
HAL_SetTickFreq                                   build/stm32f4xx_hal.o
HAL_SuspendTick                                   build/stm32f4xx_hal_timebase_tim.o
                                                  build/stm32f4xx_hal.o
HAL_TIMEx_BreakCallback                           build/stm32f4xx_hal_tim_ex.o
                                                  build/stm32f4xx_hal_tim.o
HAL_TIMEx_CommutCallback                          build/stm32f4xx_hal_tim_ex.o
                                                  build/stm32f4xx_hal_tim.o
HAL_TIMEx_CommutHalfCpltCallback                  build/stm32f4xx_hal_tim_ex.o
HAL_TIMEx_ConfigBreakDeadTime                     build/stm32f4xx_hal_tim_ex.o
HAL_TIMEx_ConfigCommutEvent                       build/stm32f4xx_hal_tim_ex.o
HAL_TIMEx_ConfigCommutEvent_DMA                   build/stm32f4xx_hal_tim_ex.o
HAL_TIMEx_ConfigCommutEvent_IT                    build/stm32f4xx_hal_tim_ex.o
HAL_TIMEx_GetChannelNState                        build/stm32f4xx_hal_tim_ex.o
HAL_TIMEx_HallSensor_DeInit                       build/stm32f4xx_hal_tim_ex.o
HAL_TIMEx_HallSensor_GetState                     build/stm32f4xx_hal_tim_ex.o
HAL_TIMEx_HallSensor_Init                         build/stm32f4xx_hal_tim_ex.o
HAL_TIMEx_HallSensor_MspDeInit                    build/stm32f4xx_hal_tim_ex.o
HAL_TIMEx_HallSensor_MspInit                      build/stm32f4xx_hal_tim_ex.o
HAL_TIMEx_HallSensor_Start                        build/stm32f4xx_hal_tim_ex.o
HAL_TIMEx_HallSensor_Start_DMA                    build/stm32f4xx_hal_tim_ex.o
HAL_TIMEx_HallSensor_Start_IT                     build/stm32f4xx_hal_tim_ex.o
HAL_TIMEx_HallSensor_Stop                         build/stm32f4xx_hal_tim_ex.o
HAL_TIMEx_HallSensor_Stop_DMA                     build/stm32f4xx_hal_tim_ex.o
HAL_TIMEx_HallSensor_Stop_IT                      build/stm32f4xx_hal_tim_ex.o
HAL_TIMEx_MasterConfigSynchronization             build/stm32f4xx_hal_tim_ex.o
                                                  build/tim.o
HAL_TIMEx_OCN_Start                               build/stm32f4xx_hal_tim_ex.o
HAL_TIMEx_OCN_Start_DMA                           build/stm32f4xx_hal_tim_ex.o
HAL_TIMEx_OCN_Start_IT                            build/stm32f4xx_hal_tim_ex.o
HAL_TIMEx_OCN_Stop                                build/stm32f4xx_hal_tim_ex.o
HAL_TIMEx_OCN_Stop_DMA                            build/stm32f4xx_hal_tim_ex.o
HAL_TIMEx_OCN_Stop_IT                             build/stm32f4xx_hal_tim_ex.o
HAL_TIMEx_OnePulseN_Start                         build/stm32f4xx_hal_tim_ex.o
HAL_TIMEx_OnePulseN_Start_IT                      build/stm32f4xx_hal_tim_ex.o
HAL_TIMEx_OnePulseN_Stop                          build/stm32f4xx_hal_tim_ex.o
HAL_TIMEx_OnePulseN_Stop_IT                       build/stm32f4xx_hal_tim_ex.o
HAL_TIMEx_PWMN_Start                              build/stm32f4xx_hal_tim_ex.o
HAL_TIMEx_PWMN_Start_DMA                          build/stm32f4xx_hal_tim_ex.o
HAL_TIMEx_PWMN_Start_IT                           build/stm32f4xx_hal_tim_ex.o
HAL_TIMEx_PWMN_Stop                               build/stm32f4xx_hal_tim_ex.o
HAL_TIMEx_PWMN_Stop_DMA                           build/stm32f4xx_hal_tim_ex.o
HAL_TIMEx_PWMN_Stop_IT                            build/stm32f4xx_hal_tim_ex.o
HAL_TIMEx_RemapConfig                             build/stm32f4xx_hal_tim_ex.o
HAL_TIM_Base_DeInit                               build/stm32f4xx_hal_tim.o
HAL_TIM_Base_GetState                             build/stm32f4xx_hal_tim.o
HAL_TIM_Base_Init                                 build/stm32f4xx_hal_tim.o
                                                  build/stm32f4xx_hal_timebase_tim.o
                                                  build/tim.o
HAL_TIM_Base_MspDeInit                            build/tim.o
HAL_TIM_Base_MspInit                              build/tim.o
HAL_TIM_Base_Start                                build/stm32f4xx_hal_tim.o
HAL_TIM_Base_Start_DMA                            build/stm32f4xx_hal_tim.o
HAL_TIM_Base_Start_IT                             build/stm32f4xx_hal_tim.o
                                                  build/stm32f4xx_hal_timebase_tim.o
                                                  build/main.o
HAL_TIM_Base_Stop                                 build/stm32f4xx_hal_tim.o
HAL_TIM_Base_Stop_DMA                             build/stm32f4xx_hal_tim.o
HAL_TIM_Base_Stop_IT                              build/stm32f4xx_hal_tim.o
HAL_TIM_ConfigClockSource                         build/stm32f4xx_hal_tim.o
                                                  build/tim.o
HAL_TIM_ConfigOCrefClear                          build/stm32f4xx_hal_tim.o
HAL_TIM_ConfigTI1Input                            build/stm32f4xx_hal_tim.o
HAL_TIM_DMABurstState                             build/stm32f4xx_hal_tim.o
HAL_TIM_DMABurst_MultiReadStart                   build/stm32f4xx_hal_tim.o
HAL_TIM_DMABurst_MultiWriteStart                  build/stm32f4xx_hal_tim.o
HAL_TIM_DMABurst_ReadStart                        build/stm32f4xx_hal_tim.o
HAL_TIM_DMABurst_ReadStop                         build/stm32f4xx_hal_tim.o
HAL_TIM_DMABurst_WriteStart                       build/stm32f4xx_hal_tim.o
HAL_TIM_DMABurst_WriteStop                        build/stm32f4xx_hal_tim.o
HAL_TIM_Encoder_DeInit                            build/stm32f4xx_hal_tim.o
HAL_TIM_Encoder_GetState                          build/stm32f4xx_hal_tim.o
HAL_TIM_Encoder_Init                              build/stm32f4xx_hal_tim.o
HAL_TIM_Encoder_MspDeInit                         build/stm32f4xx_hal_tim.o
HAL_TIM_Encoder_MspInit                           build/stm32f4xx_hal_tim.o
HAL_TIM_Encoder_Start                             build/stm32f4xx_hal_tim.o
HAL_TIM_Encoder_Start_DMA                         build/stm32f4xx_hal_tim.o
HAL_TIM_Encoder_Start_IT                          build/stm32f4xx_hal_tim.o
HAL_TIM_Encoder_Stop                              build/stm32f4xx_hal_tim.o
HAL_TIM_Encoder_Stop_DMA                          build/stm32f4xx_hal_tim.o
HAL_TIM_Encoder_Stop_IT                           build/stm32f4xx_hal_tim.o
HAL_TIM_ErrorCallback                             build/stm32f4xx_hal_tim.o
                                                  build/stm32f4xx_hal_tim_ex.o
HAL_TIM_GenerateEvent                             build/stm32f4xx_hal_tim.o
HAL_TIM_GetActiveChannel                          build/stm32f4xx_hal_tim.o
HAL_TIM_GetChannelState                           build/stm32f4xx_hal_tim.o
HAL_TIM_IC_CaptureCallback                        build/stm32f4xx_hal_tim.o
HAL_TIM_IC_CaptureHalfCpltCallback                build/stm32f4xx_hal_tim.o
HAL_TIM_IC_ConfigChannel                          build/stm32f4xx_hal_tim.o
HAL_TIM_IC_DeInit                                 build/stm32f4xx_hal_tim.o
HAL_TIM_IC_GetState                               build/stm32f4xx_hal_tim.o
HAL_TIM_IC_Init                                   build/stm32f4xx_hal_tim.o
HAL_TIM_IC_MspDeInit                              build/stm32f4xx_hal_tim.o
HAL_TIM_IC_MspInit                                build/stm32f4xx_hal_tim.o
HAL_TIM_IC_Start                                  build/stm32f4xx_hal_tim.o
HAL_TIM_IC_Start_DMA                              build/stm32f4xx_hal_tim.o
HAL_TIM_IC_Start_IT                               build/stm32f4xx_hal_tim.o
HAL_TIM_IC_Stop                                   build/stm32f4xx_hal_tim.o
HAL_TIM_IC_Stop_DMA                               build/stm32f4xx_hal_tim.o
HAL_TIM_IC_Stop_IT                                build/stm32f4xx_hal_tim.o
HAL_TIM_IRQHandler                                build/stm32f4xx_hal_tim.o
                                                  build/stm32f4xx_it.o
HAL_TIM_MspPostInit                               build/tim.o
HAL_TIM_OC_ConfigChannel                          build/stm32f4xx_hal_tim.o
HAL_TIM_OC_DeInit                                 build/stm32f4xx_hal_tim.o
HAL_TIM_OC_DelayElapsedCallback                   build/stm32f4xx_hal_tim.o
HAL_TIM_OC_GetState                               build/stm32f4xx_hal_tim.o
HAL_TIM_OC_Init                                   build/stm32f4xx_hal_tim.o
HAL_TIM_OC_MspDeInit                              build/stm32f4xx_hal_tim.o
HAL_TIM_OC_MspInit                                build/stm32f4xx_hal_tim.o
HAL_TIM_OC_Start                                  build/stm32f4xx_hal_tim.o
HAL_TIM_OC_Start_DMA                              build/stm32f4xx_hal_tim.o
HAL_TIM_OC_Start_IT                               build/stm32f4xx_hal_tim.o
HAL_TIM_OC_Stop                                   build/stm32f4xx_hal_tim.o
HAL_TIM_OC_Stop_DMA                               build/stm32f4xx_hal_tim.o
HAL_TIM_OC_Stop_IT                                build/stm32f4xx_hal_tim.o
HAL_TIM_OnePulse_ConfigChannel                    build/stm32f4xx_hal_tim.o
HAL_TIM_OnePulse_DeInit                           build/stm32f4xx_hal_tim.o
HAL_TIM_OnePulse_GetState                         build/stm32f4xx_hal_tim.o
HAL_TIM_OnePulse_Init                             build/stm32f4xx_hal_tim.o
HAL_TIM_OnePulse_MspDeInit                        build/stm32f4xx_hal_tim.o
HAL_TIM_OnePulse_MspInit                          build/stm32f4xx_hal_tim.o
HAL_TIM_OnePulse_Start                            build/stm32f4xx_hal_tim.o
HAL_TIM_OnePulse_Start_IT                         build/stm32f4xx_hal_tim.o
HAL_TIM_OnePulse_Stop                             build/stm32f4xx_hal_tim.o
HAL_TIM_OnePulse_Stop_IT                          build/stm32f4xx_hal_tim.o
HAL_TIM_PWM_ConfigChannel                         build/stm32f4xx_hal_tim.o
                                                  build/tim.o
HAL_TIM_PWM_DeInit                                build/stm32f4xx_hal_tim.o
HAL_TIM_PWM_GetState                              build/stm32f4xx_hal_tim.o
HAL_TIM_PWM_Init                                  build/stm32f4xx_hal_tim.o
                                                  build/tim.o
HAL_TIM_PWM_MspDeInit                             build/stm32f4xx_hal_tim.o
HAL_TIM_PWM_MspInit                               build/stm32f4xx_hal_tim.o
HAL_TIM_PWM_PulseFinishedCallback                 build/stm32f4xx_hal_tim.o
                                                  build/stm32f4xx_hal_tim_ex.o
HAL_TIM_PWM_PulseFinishedHalfCpltCallback         build/stm32f4xx_hal_tim.o
HAL_TIM_PWM_Start                                 build/stm32f4xx_hal_tim.o
                                                  build/main.o
HAL_TIM_PWM_Start_DMA                             build/stm32f4xx_hal_tim.o
HAL_TIM_PWM_Start_IT                              build/stm32f4xx_hal_tim.o
HAL_TIM_PWM_Stop                                  build/stm32f4xx_hal_tim.o
HAL_TIM_PWM_Stop_DMA                              build/stm32f4xx_hal_tim.o
HAL_TIM_PWM_Stop_IT                               build/stm32f4xx_hal_tim.o
HAL_TIM_PeriodElapsedCallback                     build/main.o
HAL_TIM_PeriodElapsedHalfCpltCallback             build/stm32f4xx_hal_tim.o
HAL_TIM_ReadCapturedValue                         build/stm32f4xx_hal_tim.o
HAL_TIM_SlaveConfigSynchro                        build/stm32f4xx_hal_tim.o
HAL_TIM_SlaveConfigSynchro_IT                     build/stm32f4xx_hal_tim.o
HAL_TIM_TriggerCallback                           build/stm32f4xx_hal_tim.o
HAL_TIM_TriggerHalfCpltCallback                   build/stm32f4xx_hal_tim.o
HAL_UARTEx_GetRxEventType                         build/stm32f4xx_hal_uart.o
HAL_UARTEx_ReceiveToIdle                          build/stm32f4xx_hal_uart.o
HAL_UARTEx_ReceiveToIdle_DMA                      build/stm32f4xx_hal_uart.o
HAL_UARTEx_ReceiveToIdle_IT                       build/stm32f4xx_hal_uart.o
HAL_UARTEx_RxEventCallback                        build/stm32f4xx_hal_uart.o
HAL_UART_Abort                                    build/stm32f4xx_hal_uart.o
HAL_UART_AbortCpltCallback                        build/stm32f4xx_hal_uart.o
HAL_UART_AbortReceive                             build/stm32f4xx_hal_uart.o
HAL_UART_AbortReceiveCpltCallback                 build/stm32f4xx_hal_uart.o
HAL_UART_AbortReceive_IT                          build/stm32f4xx_hal_uart.o
HAL_UART_AbortTransmit                            build/stm32f4xx_hal_uart.o
HAL_UART_AbortTransmitCpltCallback                build/stm32f4xx_hal_uart.o
HAL_UART_AbortTransmit_IT                         build/stm32f4xx_hal_uart.o
HAL_UART_Abort_IT                                 build/stm32f4xx_hal_uart.o
HAL_UART_DMAPause                                 build/stm32f4xx_hal_uart.o
HAL_UART_DMAResume                                build/stm32f4xx_hal_uart.o
HAL_UART_DMAStop                                  build/stm32f4xx_hal_uart.o
HAL_UART_DeInit                                   build/stm32f4xx_hal_uart.o
HAL_UART_ErrorCallback                            build/stm32f4xx_hal_uart.o
HAL_UART_GetError                                 build/stm32f4xx_hal_uart.o
HAL_UART_GetState                                 build/stm32f4xx_hal_uart.o
HAL_UART_IRQHandler                               build/stm32f4xx_hal_uart.o
                                                  build/stm32f4xx_it.o
HAL_UART_Init                                     build/stm32f4xx_hal_uart.o
                                                  build/usart.o
HAL_UART_MspDeInit                                build/usart.o
HAL_UART_MspInit                                  build/usart.o
HAL_UART_Receive                                  build/stm32f4xx_hal_uart.o
HAL_UART_Receive_DMA                              build/stm32f4xx_hal_uart.o
HAL_UART_Receive_IT                               build/stm32f4xx_hal_uart.o
HAL_UART_RxCpltCallback                           build/stm32f4xx_hal_uart.o
HAL_UART_RxHalfCpltCallback                       build/stm32f4xx_hal_uart.o
HAL_UART_Transmit                                 build/stm32f4xx_hal_uart.o
HAL_UART_Transmit_DMA                             build/stm32f4xx_hal_uart.o
                                                  build/usart.o
HAL_UART_Transmit_IT                              build/stm32f4xx_hal_uart.o
HAL_UART_TxCpltCallback                           build/stm32f4xx_hal_uart.o
HAL_UART_TxHalfCpltCallback                       build/stm32f4xx_hal_uart.o
HASH_RNG_IRQHandler                               build/startup_stm32f429xx.o
HallTask                                          build/freertos.o
HallTask_Handler                                  build/freertos.o
HardFault_Handler                                 build/stm32f4xx_it.o
I2C1_ER_IRQHandler                                build/startup_stm32f429xx.o
I2C1_EV_IRQHandler                                build/startup_stm32f429xx.o
I2C2_ER_IRQHandler                                build/startup_stm32f429xx.o
I2C2_EV_IRQHandler                                build/startup_stm32f429xx.o
I2C3_ER_IRQHandler                                build/startup_stm32f429xx.o
I2C3_EV_IRQHandler                                build/startup_stm32f429xx.o
LCD                                               build/spi.o
LCDViewTask                                       build/freertos.o
LCDViewTask_Handler                               build/freertos.o
LCD_Buff                                          build/spi.o
LCD_Clear                                         build/spi.o
                                                  build/freertos.o
LCD_ClearRect                                     build/spi.o
LCD_DisplayChar                                   build/spi.o
LCD_DisplayDecimals                               build/spi.o
                                                  build/freertos.o
LCD_DisplayNumber                                 build/spi.o
                                                  build/freertos.o
LCD_DisplayString                                 build/spi.o
                                                  build/freertos.o
LCD_DrawPoint                                     build/spi.o
LCD_SetAddress                                    build/spi.o
LCD_SetAsciiFont                                  build/spi.o
LCD_SetBackColor                                  build/spi.o
                                                  build/freertos.o
LCD_SetColor                                      build/spi.o
                                                  build/freertos.o
LCD_SetDirection                                  build/spi.o
                                                  build/freertos.o
LCD_ShowNumMode                                   build/spi.o
                                                  build/freertos.o
LCD_Test_Clear                                    build/freertos.o
LCD_Test_Variable                                 build/freertos.o
LCD_WriteBuff                                     build/spi.o
LCD_WriteCommand                                  build/spi.o
LCD_WriteData_16bit                               build/spi.o
LCD_WriteData_8bit                                build/spi.o
LTDC_ER_IRQHandler                                build/startup_stm32f429xx.o
LTDC_IRQHandler                                   build/startup_stm32f429xx.o
MX_DMA_Init                                       build/dma.o
                                                  build/main.o
MX_FREERTOS_Init                                  build/freertos.o
                                                  build/main.o
MX_GPIO_Init                                      build/gpio.o
                                                  build/main.o
MX_I2C2_Init                                      build/i2c.o
                                                  build/main.o
MX_SPI3_Init                                      build/spi.o
MX_TIM4_Init                                      build/tim.o
                                                  build/main.o
MX_TIM5_Init                                      build/tim.o
                                                  build/main.o
MX_USART1_UART_Init                               build/usart.o
                                                  build/main.o
MemManage_Handler                                 build/stm32f4xx_it.o
MotorTask                                         build/freertos.o
MotorTask_Handler                                 build/freertos.o
NMI_Handler                                       build/stm32f4xx_it.o
OTG_FS_IRQHandler                                 build/startup_stm32f429xx.o
OTG_FS_WKUP_IRQHandler                            build/startup_stm32f429xx.o
OTG_HS_EP1_IN_IRQHandler                          build/startup_stm32f429xx.o
OTG_HS_EP1_OUT_IRQHandler                         build/startup_stm32f429xx.o
OTG_HS_IRQHandler                                 build/startup_stm32f429xx.o
OTG_HS_WKUP_IRQHandler                            build/startup_stm32f429xx.o
PVD_IRQHandler                                    build/startup_stm32f429xx.o
PendSV_Handler                                    build/port.o
RCC_IRQHandler                                    build/startup_stm32f429xx.o
RTC_Alarm_IRQHandler                              build/startup_stm32f429xx.o
RTC_WKUP_IRQHandler                               build/startup_stm32f429xx.o
Reset_Handler                                     build/startup_stm32f429xx.o
SAI1_IRQHandler                                   build/startup_stm32f429xx.o
SDIO_IRQHandler                                   build/startup_stm32f429xx.o
SPI1_IRQHandler                                   build/startup_stm32f429xx.o
SPI2_IRQHandler                                   build/startup_stm32f429xx.o
SPI3_IRQHandler                                   build/startup_stm32f429xx.o
SPI4_IRQHandler                                   build/startup_stm32f429xx.o
SPI5_IRQHandler                                   build/startup_stm32f429xx.o
SPI6_IRQHandler                                   build/startup_stm32f429xx.o
SPI_LCD_Init                                      build/spi.o
                                                  build/main.o
SVC_Handler                                       build/port.o
StartTask                                         build/freertos.o
SysTick_Handler                                   build/cmsis_os2.o
SystemClock_Config                                build/main.o
SystemCoreClock                                   build/system_stm32f4xx.o
                                                  build/stm32f4xx_hal_i2c.o
                                                  build/cmsis_os2.o
                                                  build/port.o
                                                  build/stm32f4xx_hal_spi.o
                                                  build/stm32f4xx_hal.o
                                                  build/stm32f4xx_hal_dma.o
                                                  build/stm32f4xx_hal_rcc_ex.o
                                                  build/stm32f4xx_hal_rcc.o
SystemCoreClockUpdate                             build/system_stm32f4xx.o
SystemInit                                        build/system_stm32f4xx.o
                                                  build/startup_stm32f429xx.o
TAMP_STAMP_IRQHandler                             build/startup_stm32f429xx.o
TIM1_BRK_TIM9_IRQHandler                          build/startup_stm32f429xx.o
TIM1_CC_IRQHandler                                build/startup_stm32f429xx.o
TIM1_TRG_COM_TIM11_IRQHandler                     build/startup_stm32f429xx.o
TIM1_UP_TIM10_IRQHandler                          build/stm32f4xx_it.o
TIM2_IRQHandler                                   build/startup_stm32f429xx.o
TIM3_IRQHandler                                   build/startup_stm32f429xx.o
TIM4_IRQHandler                                   build/stm32f4xx_it.o
TIM5_IRQHandler                                   build/stm32f4xx_it.o
TIM6_DAC_IRQHandler                               build/startup_stm32f429xx.o
TIM7_IRQHandler                                   build/startup_stm32f429xx.o
TIM8_BRK_TIM12_IRQHandler                         build/startup_stm32f429xx.o
TIM8_CC_IRQHandler                                build/startup_stm32f429xx.o
TIM8_TRG_COM_TIM14_IRQHandler                     build/startup_stm32f429xx.o
TIM8_UP_TIM13_IRQHandler                          build/startup_stm32f429xx.o
TIMEx_DMACommutationCplt                          build/stm32f4xx_hal_tim_ex.o
                                                  build/stm32f4xx_hal_tim.o
TIMEx_DMACommutationHalfCplt                      build/stm32f4xx_hal_tim_ex.o
                                                  build/stm32f4xx_hal_tim.o
TIM_Base_SetConfig                                build/stm32f4xx_hal_tim.o
                                                  build/stm32f4xx_hal_tim_ex.o
TIM_CCxChannelCmd                                 build/stm32f4xx_hal_tim.o
                                                  build/stm32f4xx_hal_tim_ex.o
TIM_DMACaptureCplt                                build/stm32f4xx_hal_tim.o
                                                  build/stm32f4xx_hal_tim_ex.o
TIM_DMACaptureHalfCplt                            build/stm32f4xx_hal_tim.o
                                                  build/stm32f4xx_hal_tim_ex.o
TIM_DMADelayPulseHalfCplt                         build/stm32f4xx_hal_tim.o
                                                  build/stm32f4xx_hal_tim_ex.o
TIM_DMAError                                      build/stm32f4xx_hal_tim.o
                                                  build/stm32f4xx_hal_tim_ex.o
TIM_ETR_SetConfig                                 build/stm32f4xx_hal_tim.o
TIM_OC2_SetConfig                                 build/stm32f4xx_hal_tim.o
                                                  build/stm32f4xx_hal_tim_ex.o
TIM_TI1_SetConfig                                 build/stm32f4xx_hal_tim.o
                                                  build/stm32f4xx_hal_tim_ex.o
UART4_IRQHandler                                  build/startup_stm32f429xx.o
UART5_IRQHandler                                  build/startup_stm32f429xx.o
UART7_IRQHandler                                  build/startup_stm32f429xx.o
UART8_IRQHandler                                  build/startup_stm32f429xx.o
UART_Start_Receive_DMA                            build/stm32f4xx_hal_uart.o
UART_Start_Receive_IT                             build/stm32f4xx_hal_uart.o
USART1_IRQHandler                                 build/stm32f4xx_it.o
USART2_IRQHandler                                 build/startup_stm32f429xx.o
USART3_IRQHandler                                 build/startup_stm32f429xx.o
USART6_IRQHandler                                 build/startup_stm32f429xx.o
Ua                                                build/motor.o
Ualpha                                            build/motor.o
UartTxBuf                                         build/usart.o
Ub                                                build/motor.o
Ubeta                                             build/motor.o
Uc                                                build/motor.o
UsageFault_Handler                                build/stm32f4xx_it.o
Usart1Printf                                      build/usart.o
                                                  build/freertos.o
WWDG_IRQHandler                                   build/startup_stm32f429xx.o
WeightsQ15_128                                    build/arm_common_tables.o
WeightsQ15_2048                                   build/arm_common_tables.o
WeightsQ15_512                                    build/arm_common_tables.o
WeightsQ15_8192                                   build/arm_common_tables.o
WeightsQ31_128                                    build/arm_common_tables.o
WeightsQ31_2048                                   build/arm_common_tables.o
WeightsQ31_512                                    build/arm_common_tables.o
WeightsQ31_8192                                   build/arm_common_tables.o
Weights_128                                       build/arm_common_tables.o
Weights_2048                                      build/arm_common_tables.o
Weights_512                                       build/arm_common_tables.o
Weights_8192                                      build/arm_common_tables.o
__adddf3                                          d:/gcc-arm-none-eabi-10.3-2021.10/bin/../lib/gcc/arm-none-eabi/10.3.1/thumb/v7e-m+fp/hard\libgcc.a(_arm_addsubdf3.o)
__aeabi_cdcmpeq                                   d:/gcc-arm-none-eabi-10.3-2021.10/bin/../lib/gcc/arm-none-eabi/10.3.1/thumb/v7e-m+fp/hard\libgcc.a(_arm_cmpdf2.o)
__aeabi_cdcmple                                   d:/gcc-arm-none-eabi-10.3-2021.10/bin/../lib/gcc/arm-none-eabi/10.3.1/thumb/v7e-m+fp/hard\libgcc.a(_arm_cmpdf2.o)
__aeabi_cdrcmple                                  d:/gcc-arm-none-eabi-10.3-2021.10/bin/../lib/gcc/arm-none-eabi/10.3.1/thumb/v7e-m+fp/hard\libgcc.a(_arm_cmpdf2.o)
__aeabi_d2f                                       d:/gcc-arm-none-eabi-10.3-2021.10/bin/../lib/gcc/arm-none-eabi/10.3.1/thumb/v7e-m+fp/hard\libgcc.a(_arm_truncdfsf2.o)
                                                  build/freertos.o
                                                  build/bsp_as5600.o
                                                  build/motor.o
__aeabi_d2iz                                      d:/gcc-arm-none-eabi-10.3-2021.10/bin/../lib/gcc/arm-none-eabi/10.3.1/thumb/v7e-m+fp/hard\libgcc.a(_arm_fixdfsi.o)
                                                  d:/gcc-arm-none-eabi-10.3-2021.10/bin/../lib/gcc/arm-none-eabi/10.3.1/../../../../arm-none-eabi/lib/thumb/v7e-m+fp/hard\libm.a(lib_a-k_sin.o)
                                                  d:/gcc-arm-none-eabi-10.3-2021.10/bin/../lib/gcc/arm-none-eabi/10.3.1/../../../../arm-none-eabi/lib/thumb/v7e-m+fp/hard\libm.a(lib_a-k_rem_pio2.o)
                                                  d:/gcc-arm-none-eabi-10.3-2021.10/bin/../lib/gcc/arm-none-eabi/10.3.1/../../../../arm-none-eabi/lib/thumb/v7e-m+fp/hard\libm.a(lib_a-k_cos.o)
                                                  d:/gcc-arm-none-eabi-10.3-2021.10/bin/../lib/gcc/arm-none-eabi/10.3.1/../../../../arm-none-eabi/lib/thumb/v7e-m+fp/hard\libm.a(lib_a-e_rem_pio2.o)
                                                  build/spi.o
__aeabi_dadd                                      d:/gcc-arm-none-eabi-10.3-2021.10/bin/../lib/gcc/arm-none-eabi/10.3.1/thumb/v7e-m+fp/hard\libgcc.a(_arm_addsubdf3.o)
                                                  d:/gcc-arm-none-eabi-10.3-2021.10/bin/../lib/gcc/arm-none-eabi/10.3.1/../../../../arm-none-eabi/lib/thumb/v7e-m+fp/hard\libm.a(lib_a-s_scalbn.o)
                                                  d:/gcc-arm-none-eabi-10.3-2021.10/bin/../lib/gcc/arm-none-eabi/10.3.1/../../../../arm-none-eabi/lib/thumb/v7e-m+fp/hard\libm.a(lib_a-s_floor.o)
                                                  d:/gcc-arm-none-eabi-10.3-2021.10/bin/../lib/gcc/arm-none-eabi/10.3.1/../../../../arm-none-eabi/lib/thumb/v7e-m+fp/hard\libm.a(lib_a-k_sin.o)
                                                  d:/gcc-arm-none-eabi-10.3-2021.10/bin/../lib/gcc/arm-none-eabi/10.3.1/../../../../arm-none-eabi/lib/thumb/v7e-m+fp/hard\libm.a(lib_a-k_rem_pio2.o)
                                                  d:/gcc-arm-none-eabi-10.3-2021.10/bin/../lib/gcc/arm-none-eabi/10.3.1/../../../../arm-none-eabi/lib/thumb/v7e-m+fp/hard\libm.a(lib_a-k_cos.o)
                                                  d:/gcc-arm-none-eabi-10.3-2021.10/bin/../lib/gcc/arm-none-eabi/10.3.1/../../../../arm-none-eabi/lib/thumb/v7e-m+fp/hard\libm.a(lib_a-e_rem_pio2.o)
                                                  d:/gcc-arm-none-eabi-10.3-2021.10/bin/../lib/gcc/arm-none-eabi/10.3.1/../../../../arm-none-eabi/lib/thumb/v7e-m+fp/hard\libm.a(lib_a-s_round.o)
                                                  build/freertos.o
                                                  build/bsp_as5600.o
                                                  build/motor.o
__aeabi_dcmpeq                                    d:/gcc-arm-none-eabi-10.3-2021.10/bin/../lib/gcc/arm-none-eabi/10.3.1/thumb/v7e-m+fp/hard\libgcc.a(_arm_cmpdf2.o)
                                                  d:/gcc-arm-none-eabi-10.3-2021.10/bin/../lib/gcc/arm-none-eabi/10.3.1/../../../../arm-none-eabi/lib/thumb/v7e-m+fp/hard\libm.a(lib_a-k_rem_pio2.o)
                                                  d:/gcc-arm-none-eabi-10.3-2021.10/bin/../lib/gcc/arm-none-eabi/10.3.1/../../../../arm-none-eabi/lib/thumb/v7e-m+fp/hard\libm.a(lib_a-e_rem_pio2.o)
                                                  d:/gcc-arm-none-eabi-10.3-2021.10/bin/../lib/gcc/arm-none-eabi/10.3.1/../../../../arm-none-eabi/lib/thumb/v7e-m+fp/hard\libm.a(lib_a-w_fmod.o)
__aeabi_dcmpge                                    d:/gcc-arm-none-eabi-10.3-2021.10/bin/../lib/gcc/arm-none-eabi/10.3.1/thumb/v7e-m+fp/hard\libgcc.a(_arm_cmpdf2.o)
                                                  d:/gcc-arm-none-eabi-10.3-2021.10/bin/../lib/gcc/arm-none-eabi/10.3.1/../../../../arm-none-eabi/lib/thumb/v7e-m+fp/hard\libm.a(lib_a-k_rem_pio2.o)
__aeabi_dcmpgt                                    d:/gcc-arm-none-eabi-10.3-2021.10/bin/../lib/gcc/arm-none-eabi/10.3.1/thumb/v7e-m+fp/hard\libgcc.a(_arm_cmpdf2.o)
                                                  d:/gcc-arm-none-eabi-10.3-2021.10/bin/../lib/gcc/arm-none-eabi/10.3.1/../../../../arm-none-eabi/lib/thumb/v7e-m+fp/hard\libm.a(lib_a-s_floor.o)
                                                  build/bsp_as5600.o
__aeabi_dcmple                                    d:/gcc-arm-none-eabi-10.3-2021.10/bin/../lib/gcc/arm-none-eabi/10.3.1/thumb/v7e-m+fp/hard\libgcc.a(_arm_cmpdf2.o)
__aeabi_dcmplt                                    d:/gcc-arm-none-eabi-10.3-2021.10/bin/../lib/gcc/arm-none-eabi/10.3.1/thumb/v7e-m+fp/hard\libgcc.a(_arm_cmpdf2.o)
__aeabi_dcmpun                                    d:/gcc-arm-none-eabi-10.3-2021.10/bin/../lib/gcc/arm-none-eabi/10.3.1/thumb/v7e-m+fp/hard\libgcc.a(_arm_unorddf2.o)
                                                  d:/gcc-arm-none-eabi-10.3-2021.10/bin/../lib/gcc/arm-none-eabi/10.3.1/../../../../arm-none-eabi/lib/thumb/v7e-m+fp/hard\libm.a(lib_a-w_fmod.o)
__aeabi_ddiv                                      d:/gcc-arm-none-eabi-10.3-2021.10/bin/../lib/gcc/arm-none-eabi/10.3.1/thumb/v7e-m+fp/hard\libgcc.a(_arm_muldivdf3.o)
                                                  d:/gcc-arm-none-eabi-10.3-2021.10/bin/../lib/gcc/arm-none-eabi/10.3.1/../../../../arm-none-eabi/lib/thumb/v7e-m+fp/hard\libm.a(lib_a-e_fmod.o)
                                                  d:/gcc-arm-none-eabi-10.3-2021.10/bin/../lib/gcc/arm-none-eabi/10.3.1/../../../../arm-none-eabi/lib/thumb/v7e-m+fp/hard\libm.a(lib_a-w_fmod.o)
                                                  build/freertos.o
__aeabi_dmul                                      d:/gcc-arm-none-eabi-10.3-2021.10/bin/../lib/gcc/arm-none-eabi/10.3.1/thumb/v7e-m+fp/hard\libgcc.a(_arm_muldivdf3.o)
                                                  d:/gcc-arm-none-eabi-10.3-2021.10/bin/../lib/gcc/arm-none-eabi/10.3.1/thumb/v7e-m+fp/hard\libgcc.a(_arm_muldf3.o)
                                                  d:/gcc-arm-none-eabi-10.3-2021.10/bin/../lib/gcc/arm-none-eabi/10.3.1/../../../../arm-none-eabi/lib/thumb/v7e-m+fp/hard\libm.a(lib_a-s_scalbn.o)
                                                  d:/gcc-arm-none-eabi-10.3-2021.10/bin/../lib/gcc/arm-none-eabi/10.3.1/../../../../arm-none-eabi/lib/thumb/v7e-m+fp/hard\libm.a(lib_a-k_sin.o)
                                                  d:/gcc-arm-none-eabi-10.3-2021.10/bin/../lib/gcc/arm-none-eabi/10.3.1/../../../../arm-none-eabi/lib/thumb/v7e-m+fp/hard\libm.a(lib_a-k_rem_pio2.o)
                                                  d:/gcc-arm-none-eabi-10.3-2021.10/bin/../lib/gcc/arm-none-eabi/10.3.1/../../../../arm-none-eabi/lib/thumb/v7e-m+fp/hard\libm.a(lib_a-k_cos.o)
                                                  d:/gcc-arm-none-eabi-10.3-2021.10/bin/../lib/gcc/arm-none-eabi/10.3.1/../../../../arm-none-eabi/lib/thumb/v7e-m+fp/hard\libm.a(lib_a-e_rem_pio2.o)
                                                  d:/gcc-arm-none-eabi-10.3-2021.10/bin/../lib/gcc/arm-none-eabi/10.3.1/../../../../arm-none-eabi/lib/thumb/v7e-m+fp/hard\libm.a(lib_a-e_fmod.o)
                                                  build/freertos.o
                                                  build/spi.o
                                                  build/bsp_as5600.o
                                                  build/motor.o
__aeabi_drsub                                     d:/gcc-arm-none-eabi-10.3-2021.10/bin/../lib/gcc/arm-none-eabi/10.3.1/thumb/v7e-m+fp/hard\libgcc.a(_arm_addsubdf3.o)
__aeabi_dsub                                      d:/gcc-arm-none-eabi-10.3-2021.10/bin/../lib/gcc/arm-none-eabi/10.3.1/thumb/v7e-m+fp/hard\libgcc.a(_arm_addsubdf3.o)
                                                  d:/gcc-arm-none-eabi-10.3-2021.10/bin/../lib/gcc/arm-none-eabi/10.3.1/../../../../arm-none-eabi/lib/thumb/v7e-m+fp/hard\libm.a(lib_a-k_sin.o)
                                                  d:/gcc-arm-none-eabi-10.3-2021.10/bin/../lib/gcc/arm-none-eabi/10.3.1/../../../../arm-none-eabi/lib/thumb/v7e-m+fp/hard\libm.a(lib_a-k_rem_pio2.o)
                                                  d:/gcc-arm-none-eabi-10.3-2021.10/bin/../lib/gcc/arm-none-eabi/10.3.1/../../../../arm-none-eabi/lib/thumb/v7e-m+fp/hard\libm.a(lib_a-k_cos.o)
                                                  d:/gcc-arm-none-eabi-10.3-2021.10/bin/../lib/gcc/arm-none-eabi/10.3.1/../../../../arm-none-eabi/lib/thumb/v7e-m+fp/hard\libm.a(lib_a-e_rem_pio2.o)
                                                  d:/gcc-arm-none-eabi-10.3-2021.10/bin/../lib/gcc/arm-none-eabi/10.3.1/../../../../arm-none-eabi/lib/thumb/v7e-m+fp/hard\libm.a(lib_a-s_sin.o)
                                                  d:/gcc-arm-none-eabi-10.3-2021.10/bin/../lib/gcc/arm-none-eabi/10.3.1/../../../../arm-none-eabi/lib/thumb/v7e-m+fp/hard\libm.a(lib_a-s_cos.o)
                                                  build/freertos.o
                                                  build/motor.o
__aeabi_f2d                                       d:/gcc-arm-none-eabi-10.3-2021.10/bin/../lib/gcc/arm-none-eabi/10.3.1/thumb/v7e-m+fp/hard\libgcc.a(_arm_addsubdf3.o)
                                                  build/freertos.o
                                                  build/spi.o
                                                  build/bsp_as5600.o
                                                  build/motor.o
__aeabi_i2d                                       d:/gcc-arm-none-eabi-10.3-2021.10/bin/../lib/gcc/arm-none-eabi/10.3.1/thumb/v7e-m+fp/hard\libgcc.a(_arm_addsubdf3.o)
                                                  d:/gcc-arm-none-eabi-10.3-2021.10/bin/../lib/gcc/arm-none-eabi/10.3.1/../../../../arm-none-eabi/lib/thumb/v7e-m+fp/hard\libm.a(lib_a-k_rem_pio2.o)
                                                  d:/gcc-arm-none-eabi-10.3-2021.10/bin/../lib/gcc/arm-none-eabi/10.3.1/../../../../arm-none-eabi/lib/thumb/v7e-m+fp/hard\libm.a(lib_a-e_rem_pio2.o)
                                                  build/freertos.o
__aeabi_idiv0                                     d:/gcc-arm-none-eabi-10.3-2021.10/bin/../lib/gcc/arm-none-eabi/10.3.1/thumb/v7e-m+fp/hard\libgcc.a(_dvmd_tls.o)
__aeabi_l2d                                       d:/gcc-arm-none-eabi-10.3-2021.10/bin/../lib/gcc/arm-none-eabi/10.3.1/thumb/v7e-m+fp/hard\libgcc.a(_arm_addsubdf3.o)
__aeabi_ldiv0                                     d:/gcc-arm-none-eabi-10.3-2021.10/bin/../lib/gcc/arm-none-eabi/10.3.1/thumb/v7e-m+fp/hard\libgcc.a(_dvmd_tls.o)
                                                  d:/gcc-arm-none-eabi-10.3-2021.10/bin/../lib/gcc/arm-none-eabi/10.3.1/thumb/v7e-m+fp/hard\libgcc.a(_aeabi_uldivmod.o)
__aeabi_ui2d                                      d:/gcc-arm-none-eabi-10.3-2021.10/bin/../lib/gcc/arm-none-eabi/10.3.1/thumb/v7e-m+fp/hard\libgcc.a(_arm_addsubdf3.o)
__aeabi_ul2d                                      d:/gcc-arm-none-eabi-10.3-2021.10/bin/../lib/gcc/arm-none-eabi/10.3.1/thumb/v7e-m+fp/hard\libgcc.a(_arm_addsubdf3.o)
__aeabi_uldivmod                                  d:/gcc-arm-none-eabi-10.3-2021.10/bin/../lib/gcc/arm-none-eabi/10.3.1/thumb/v7e-m+fp/hard\libgcc.a(_aeabi_uldivmod.o)
                                                  build/stm32f4xx_hal_uart.o
                                                  build/stm32f4xx_hal_rcc.o
__bss_end__                                       d:/gcc-arm-none-eabi-10.3-2021.10/bin/../lib/gcc/arm-none-eabi/10.3.1/../../../../arm-none-eabi/lib/thumb/v7e-m+fp/hard/crt0.o
__bss_start__                                     d:/gcc-arm-none-eabi-10.3-2021.10/bin/../lib/gcc/arm-none-eabi/10.3.1/../../../../arm-none-eabi/lib/thumb/v7e-m+fp/hard/crt0.o
__call_exitprocs                                  d:/gcc-arm-none-eabi-10.3-2021.10/bin/../lib/gcc/arm-none-eabi/10.3.1/../../../../arm-none-eabi/lib/thumb/v7e-m+fp/hard\libc_nano.a(lib_a-exit.o)
__cmpdf2                                          d:/gcc-arm-none-eabi-10.3-2021.10/bin/../lib/gcc/arm-none-eabi/10.3.1/thumb/v7e-m+fp/hard\libgcc.a(_arm_cmpdf2.o)
__deregister_frame_info                           d:/gcc-arm-none-eabi-10.3-2021.10/bin/../lib/gcc/arm-none-eabi/10.3.1/thumb/v7e-m+fp/hard/crtbegin.o
__divdf3                                          d:/gcc-arm-none-eabi-10.3-2021.10/bin/../lib/gcc/arm-none-eabi/10.3.1/thumb/v7e-m+fp/hard\libgcc.a(_arm_muldivdf3.o)
__dso_handle                                      d:/gcc-arm-none-eabi-10.3-2021.10/bin/../lib/gcc/arm-none-eabi/10.3.1/thumb/v7e-m+fp/hard/crtbegin.o
__eqdf2                                           d:/gcc-arm-none-eabi-10.3-2021.10/bin/../lib/gcc/arm-none-eabi/10.3.1/thumb/v7e-m+fp/hard\libgcc.a(_arm_cmpdf2.o)
__errno                                           d:/gcc-arm-none-eabi-10.3-2021.10/bin/../lib/gcc/arm-none-eabi/10.3.1/../../../../arm-none-eabi/lib/thumb/v7e-m+fp/hard\libc_nano.a(lib_a-errno.o)
                                                  d:/gcc-arm-none-eabi-10.3-2021.10/bin/../lib/gcc/arm-none-eabi/10.3.1/../../../../arm-none-eabi/lib/thumb/v7e-m+fp/hard\libm.a(lib_a-w_fmod.o)
__extendsfdf2                                     d:/gcc-arm-none-eabi-10.3-2021.10/bin/../lib/gcc/arm-none-eabi/10.3.1/thumb/v7e-m+fp/hard\libgcc.a(_arm_addsubdf3.o)
__fixdfsi                                         d:/gcc-arm-none-eabi-10.3-2021.10/bin/../lib/gcc/arm-none-eabi/10.3.1/thumb/v7e-m+fp/hard\libgcc.a(_arm_fixdfsi.o)
__floatdidf                                       d:/gcc-arm-none-eabi-10.3-2021.10/bin/../lib/gcc/arm-none-eabi/10.3.1/thumb/v7e-m+fp/hard\libgcc.a(_arm_addsubdf3.o)
__floatsidf                                       d:/gcc-arm-none-eabi-10.3-2021.10/bin/../lib/gcc/arm-none-eabi/10.3.1/thumb/v7e-m+fp/hard\libgcc.a(_arm_addsubdf3.o)
__floatundidf                                     d:/gcc-arm-none-eabi-10.3-2021.10/bin/../lib/gcc/arm-none-eabi/10.3.1/thumb/v7e-m+fp/hard\libgcc.a(_arm_addsubdf3.o)
__floatunsidf                                     d:/gcc-arm-none-eabi-10.3-2021.10/bin/../lib/gcc/arm-none-eabi/10.3.1/thumb/v7e-m+fp/hard\libgcc.a(_arm_addsubdf3.o)
__gedf2                                           d:/gcc-arm-none-eabi-10.3-2021.10/bin/../lib/gcc/arm-none-eabi/10.3.1/thumb/v7e-m+fp/hard\libgcc.a(_arm_cmpdf2.o)
__gtdf2                                           d:/gcc-arm-none-eabi-10.3-2021.10/bin/../lib/gcc/arm-none-eabi/10.3.1/thumb/v7e-m+fp/hard\libgcc.a(_arm_cmpdf2.o)
__ieee754_fmod                                    d:/gcc-arm-none-eabi-10.3-2021.10/bin/../lib/gcc/arm-none-eabi/10.3.1/../../../../arm-none-eabi/lib/thumb/v7e-m+fp/hard\libm.a(lib_a-e_fmod.o)
                                                  d:/gcc-arm-none-eabi-10.3-2021.10/bin/../lib/gcc/arm-none-eabi/10.3.1/../../../../arm-none-eabi/lib/thumb/v7e-m+fp/hard\libm.a(lib_a-w_fmod.o)
__ieee754_rem_pio2                                d:/gcc-arm-none-eabi-10.3-2021.10/bin/../lib/gcc/arm-none-eabi/10.3.1/../../../../arm-none-eabi/lib/thumb/v7e-m+fp/hard\libm.a(lib_a-e_rem_pio2.o)
                                                  d:/gcc-arm-none-eabi-10.3-2021.10/bin/../lib/gcc/arm-none-eabi/10.3.1/../../../../arm-none-eabi/lib/thumb/v7e-m+fp/hard\libm.a(lib_a-s_sin.o)
                                                  d:/gcc-arm-none-eabi-10.3-2021.10/bin/../lib/gcc/arm-none-eabi/10.3.1/../../../../arm-none-eabi/lib/thumb/v7e-m+fp/hard\libm.a(lib_a-s_cos.o)
__init_array_end                                  d:/gcc-arm-none-eabi-10.3-2021.10/bin/../lib/gcc/arm-none-eabi/10.3.1/../../../../arm-none-eabi/lib/thumb/v7e-m+fp/hard\libc_nano.a(lib_a-init.o)
__init_array_start                                d:/gcc-arm-none-eabi-10.3-2021.10/bin/../lib/gcc/arm-none-eabi/10.3.1/../../../../arm-none-eabi/lib/thumb/v7e-m+fp/hard\libc_nano.a(lib_a-init.o)
__kernel_cos                                      d:/gcc-arm-none-eabi-10.3-2021.10/bin/../lib/gcc/arm-none-eabi/10.3.1/../../../../arm-none-eabi/lib/thumb/v7e-m+fp/hard\libm.a(lib_a-k_cos.o)
                                                  d:/gcc-arm-none-eabi-10.3-2021.10/bin/../lib/gcc/arm-none-eabi/10.3.1/../../../../arm-none-eabi/lib/thumb/v7e-m+fp/hard\libm.a(lib_a-s_sin.o)
                                                  d:/gcc-arm-none-eabi-10.3-2021.10/bin/../lib/gcc/arm-none-eabi/10.3.1/../../../../arm-none-eabi/lib/thumb/v7e-m+fp/hard\libm.a(lib_a-s_cos.o)
__kernel_rem_pio2                                 d:/gcc-arm-none-eabi-10.3-2021.10/bin/../lib/gcc/arm-none-eabi/10.3.1/../../../../arm-none-eabi/lib/thumb/v7e-m+fp/hard\libm.a(lib_a-k_rem_pio2.o)
                                                  d:/gcc-arm-none-eabi-10.3-2021.10/bin/../lib/gcc/arm-none-eabi/10.3.1/../../../../arm-none-eabi/lib/thumb/v7e-m+fp/hard\libm.a(lib_a-e_rem_pio2.o)
__kernel_sin                                      d:/gcc-arm-none-eabi-10.3-2021.10/bin/../lib/gcc/arm-none-eabi/10.3.1/../../../../arm-none-eabi/lib/thumb/v7e-m+fp/hard\libm.a(lib_a-k_sin.o)
                                                  d:/gcc-arm-none-eabi-10.3-2021.10/bin/../lib/gcc/arm-none-eabi/10.3.1/../../../../arm-none-eabi/lib/thumb/v7e-m+fp/hard\libm.a(lib_a-s_sin.o)
                                                  d:/gcc-arm-none-eabi-10.3-2021.10/bin/../lib/gcc/arm-none-eabi/10.3.1/../../../../arm-none-eabi/lib/thumb/v7e-m+fp/hard\libm.a(lib_a-s_cos.o)
__ledf2                                           d:/gcc-arm-none-eabi-10.3-2021.10/bin/../lib/gcc/arm-none-eabi/10.3.1/thumb/v7e-m+fp/hard\libgcc.a(_arm_cmpdf2.o)
__libc_fini_array                                 d:/gcc-arm-none-eabi-10.3-2021.10/bin/../lib/gcc/arm-none-eabi/10.3.1/../../../../arm-none-eabi/lib/thumb/v7e-m+fp/hard/crt0.o
__libc_init_array                                 d:/gcc-arm-none-eabi-10.3-2021.10/bin/../lib/gcc/arm-none-eabi/10.3.1/../../../../arm-none-eabi/lib/thumb/v7e-m+fp/hard\libc_nano.a(lib_a-init.o)
                                                  build/startup_stm32f429xx.o
                                                  d:/gcc-arm-none-eabi-10.3-2021.10/bin/../lib/gcc/arm-none-eabi/10.3.1/../../../../arm-none-eabi/lib/thumb/v7e-m+fp/hard/crt0.o
__lock___arc4random_mutex                         d:/gcc-arm-none-eabi-10.3-2021.10/bin/../lib/gcc/arm-none-eabi/10.3.1/../../../../arm-none-eabi/lib/thumb/v7e-m+fp/hard\libc_nano.a(lib_a-lock.o)
__lock___at_quick_exit_mutex                      d:/gcc-arm-none-eabi-10.3-2021.10/bin/../lib/gcc/arm-none-eabi/10.3.1/../../../../arm-none-eabi/lib/thumb/v7e-m+fp/hard\libc_nano.a(lib_a-lock.o)
__lock___atexit_recursive_mutex                   d:/gcc-arm-none-eabi-10.3-2021.10/bin/../lib/gcc/arm-none-eabi/10.3.1/../../../../arm-none-eabi/lib/thumb/v7e-m+fp/hard\libc_nano.a(lib_a-lock.o)
__lock___dd_hash_mutex                            d:/gcc-arm-none-eabi-10.3-2021.10/bin/../lib/gcc/arm-none-eabi/10.3.1/../../../../arm-none-eabi/lib/thumb/v7e-m+fp/hard\libc_nano.a(lib_a-lock.o)
__lock___env_recursive_mutex                      d:/gcc-arm-none-eabi-10.3-2021.10/bin/../lib/gcc/arm-none-eabi/10.3.1/../../../../arm-none-eabi/lib/thumb/v7e-m+fp/hard\libc_nano.a(lib_a-lock.o)
__lock___malloc_recursive_mutex                   d:/gcc-arm-none-eabi-10.3-2021.10/bin/../lib/gcc/arm-none-eabi/10.3.1/../../../../arm-none-eabi/lib/thumb/v7e-m+fp/hard\libc_nano.a(lib_a-lock.o)
                                                  d:/gcc-arm-none-eabi-10.3-2021.10/bin/../lib/gcc/arm-none-eabi/10.3.1/../../../../arm-none-eabi/lib/thumb/v7e-m+fp/hard\libc_nano.a(lib_a-mlock.o)
__lock___sfp_recursive_mutex                      d:/gcc-arm-none-eabi-10.3-2021.10/bin/../lib/gcc/arm-none-eabi/10.3.1/../../../../arm-none-eabi/lib/thumb/v7e-m+fp/hard\libc_nano.a(lib_a-lock.o)
__lock___sinit_recursive_mutex                    d:/gcc-arm-none-eabi-10.3-2021.10/bin/../lib/gcc/arm-none-eabi/10.3.1/../../../../arm-none-eabi/lib/thumb/v7e-m+fp/hard\libc_nano.a(lib_a-lock.o)
__lock___tz_mutex                                 d:/gcc-arm-none-eabi-10.3-2021.10/bin/../lib/gcc/arm-none-eabi/10.3.1/../../../../arm-none-eabi/lib/thumb/v7e-m+fp/hard\libc_nano.a(lib_a-lock.o)
__ltdf2                                           d:/gcc-arm-none-eabi-10.3-2021.10/bin/../lib/gcc/arm-none-eabi/10.3.1/thumb/v7e-m+fp/hard\libgcc.a(_arm_cmpdf2.o)
__malloc_free_list                                d:/gcc-arm-none-eabi-10.3-2021.10/bin/../lib/gcc/arm-none-eabi/10.3.1/../../../../arm-none-eabi/lib/thumb/v7e-m+fp/hard\libc_nano.a(lib_a-nano-mallocr.o)
                                                  d:/gcc-arm-none-eabi-10.3-2021.10/bin/../lib/gcc/arm-none-eabi/10.3.1/../../../../arm-none-eabi/lib/thumb/v7e-m+fp/hard\libc_nano.a(lib_a-nano-freer.o)
__malloc_lock                                     d:/gcc-arm-none-eabi-10.3-2021.10/bin/../lib/gcc/arm-none-eabi/10.3.1/../../../../arm-none-eabi/lib/thumb/v7e-m+fp/hard\libc_nano.a(lib_a-mlock.o)
                                                  d:/gcc-arm-none-eabi-10.3-2021.10/bin/../lib/gcc/arm-none-eabi/10.3.1/../../../../arm-none-eabi/lib/thumb/v7e-m+fp/hard\libc_nano.a(lib_a-nano-mallocr.o)
                                                  d:/gcc-arm-none-eabi-10.3-2021.10/bin/../lib/gcc/arm-none-eabi/10.3.1/../../../../arm-none-eabi/lib/thumb/v7e-m+fp/hard\libc_nano.a(lib_a-nano-freer.o)
__malloc_sbrk_start                               d:/gcc-arm-none-eabi-10.3-2021.10/bin/../lib/gcc/arm-none-eabi/10.3.1/../../../../arm-none-eabi/lib/thumb/v7e-m+fp/hard\libc_nano.a(lib_a-nano-mallocr.o)
__malloc_unlock                                   d:/gcc-arm-none-eabi-10.3-2021.10/bin/../lib/gcc/arm-none-eabi/10.3.1/../../../../arm-none-eabi/lib/thumb/v7e-m+fp/hard\libc_nano.a(lib_a-mlock.o)
                                                  d:/gcc-arm-none-eabi-10.3-2021.10/bin/../lib/gcc/arm-none-eabi/10.3.1/../../../../arm-none-eabi/lib/thumb/v7e-m+fp/hard\libc_nano.a(lib_a-nano-mallocr.o)
                                                  d:/gcc-arm-none-eabi-10.3-2021.10/bin/../lib/gcc/arm-none-eabi/10.3.1/../../../../arm-none-eabi/lib/thumb/v7e-m+fp/hard\libc_nano.a(lib_a-nano-freer.o)
__muldf3                                          d:/gcc-arm-none-eabi-10.3-2021.10/bin/../lib/gcc/arm-none-eabi/10.3.1/thumb/v7e-m+fp/hard\libgcc.a(_arm_muldivdf3.o)
                                                  d:/gcc-arm-none-eabi-10.3-2021.10/bin/../lib/gcc/arm-none-eabi/10.3.1/thumb/v7e-m+fp/hard\libgcc.a(_arm_muldf3.o)
__nedf2                                           d:/gcc-arm-none-eabi-10.3-2021.10/bin/../lib/gcc/arm-none-eabi/10.3.1/thumb/v7e-m+fp/hard\libgcc.a(_arm_cmpdf2.o)
__preinit_array_end                               d:/gcc-arm-none-eabi-10.3-2021.10/bin/../lib/gcc/arm-none-eabi/10.3.1/../../../../arm-none-eabi/lib/thumb/v7e-m+fp/hard\libc_nano.a(lib_a-init.o)
__preinit_array_start                             d:/gcc-arm-none-eabi-10.3-2021.10/bin/../lib/gcc/arm-none-eabi/10.3.1/../../../../arm-none-eabi/lib/thumb/v7e-m+fp/hard\libc_nano.a(lib_a-init.o)
__register_frame_info                             d:/gcc-arm-none-eabi-10.3-2021.10/bin/../lib/gcc/arm-none-eabi/10.3.1/thumb/v7e-m+fp/hard/crtbegin.o
__retarget_lock_acquire                           d:/gcc-arm-none-eabi-10.3-2021.10/bin/../lib/gcc/arm-none-eabi/10.3.1/../../../../arm-none-eabi/lib/thumb/v7e-m+fp/hard\libc_nano.a(lib_a-lock.o)
__retarget_lock_acquire_recursive                 d:/gcc-arm-none-eabi-10.3-2021.10/bin/../lib/gcc/arm-none-eabi/10.3.1/../../../../arm-none-eabi/lib/thumb/v7e-m+fp/hard\libc_nano.a(lib_a-lock.o)
                                                  d:/gcc-arm-none-eabi-10.3-2021.10/bin/../lib/gcc/arm-none-eabi/10.3.1/../../../../arm-none-eabi/lib/thumb/v7e-m+fp/hard\libc_nano.a(lib_a-mlock.o)
__retarget_lock_close                             d:/gcc-arm-none-eabi-10.3-2021.10/bin/../lib/gcc/arm-none-eabi/10.3.1/../../../../arm-none-eabi/lib/thumb/v7e-m+fp/hard\libc_nano.a(lib_a-lock.o)
__retarget_lock_close_recursive                   d:/gcc-arm-none-eabi-10.3-2021.10/bin/../lib/gcc/arm-none-eabi/10.3.1/../../../../arm-none-eabi/lib/thumb/v7e-m+fp/hard\libc_nano.a(lib_a-lock.o)
__retarget_lock_init                              d:/gcc-arm-none-eabi-10.3-2021.10/bin/../lib/gcc/arm-none-eabi/10.3.1/../../../../arm-none-eabi/lib/thumb/v7e-m+fp/hard\libc_nano.a(lib_a-lock.o)
__retarget_lock_init_recursive                    d:/gcc-arm-none-eabi-10.3-2021.10/bin/../lib/gcc/arm-none-eabi/10.3.1/../../../../arm-none-eabi/lib/thumb/v7e-m+fp/hard\libc_nano.a(lib_a-lock.o)
__retarget_lock_release                           d:/gcc-arm-none-eabi-10.3-2021.10/bin/../lib/gcc/arm-none-eabi/10.3.1/../../../../arm-none-eabi/lib/thumb/v7e-m+fp/hard\libc_nano.a(lib_a-lock.o)
__retarget_lock_release_recursive                 d:/gcc-arm-none-eabi-10.3-2021.10/bin/../lib/gcc/arm-none-eabi/10.3.1/../../../../arm-none-eabi/lib/thumb/v7e-m+fp/hard\libc_nano.a(lib_a-lock.o)
                                                  d:/gcc-arm-none-eabi-10.3-2021.10/bin/../lib/gcc/arm-none-eabi/10.3.1/../../../../arm-none-eabi/lib/thumb/v7e-m+fp/hard\libc_nano.a(lib_a-mlock.o)
__retarget_lock_try_acquire                       d:/gcc-arm-none-eabi-10.3-2021.10/bin/../lib/gcc/arm-none-eabi/10.3.1/../../../../arm-none-eabi/lib/thumb/v7e-m+fp/hard\libc_nano.a(lib_a-lock.o)
__retarget_lock_try_acquire_recursive             d:/gcc-arm-none-eabi-10.3-2021.10/bin/../lib/gcc/arm-none-eabi/10.3.1/../../../../arm-none-eabi/lib/thumb/v7e-m+fp/hard\libc_nano.a(lib_a-lock.o)
__sf_fake_stderr                                  d:/gcc-arm-none-eabi-10.3-2021.10/bin/../lib/gcc/arm-none-eabi/10.3.1/../../../../arm-none-eabi/lib/thumb/v7e-m+fp/hard\libc_nano.a(lib_a-impure.o)
__sf_fake_stdin                                   d:/gcc-arm-none-eabi-10.3-2021.10/bin/../lib/gcc/arm-none-eabi/10.3.1/../../../../arm-none-eabi/lib/thumb/v7e-m+fp/hard\libc_nano.a(lib_a-impure.o)
__sf_fake_stdout                                  d:/gcc-arm-none-eabi-10.3-2021.10/bin/../lib/gcc/arm-none-eabi/10.3.1/../../../../arm-none-eabi/lib/thumb/v7e-m+fp/hard\libc_nano.a(lib_a-impure.o)
__ssprint_r                                       d:/gcc-arm-none-eabi-10.3-2021.10/bin/../lib/gcc/arm-none-eabi/10.3.1/../../../../arm-none-eabi/lib/thumb/v7e-m+fp/hard\libc_nano.a(lib_a-nano-svfprintf.o)
__ssputs_r                                        d:/gcc-arm-none-eabi-10.3-2021.10/bin/../lib/gcc/arm-none-eabi/10.3.1/../../../../arm-none-eabi/lib/thumb/v7e-m+fp/hard\libc_nano.a(lib_a-nano-svfprintf.o)
__stack                                           d:/gcc-arm-none-eabi-10.3-2021.10/bin/../lib/gcc/arm-none-eabi/10.3.1/../../../../arm-none-eabi/lib/thumb/v7e-m+fp/hard/crt0.o
__subdf3                                          d:/gcc-arm-none-eabi-10.3-2021.10/bin/../lib/gcc/arm-none-eabi/10.3.1/thumb/v7e-m+fp/hard\libgcc.a(_arm_addsubdf3.o)
__truncdfsf2                                      d:/gcc-arm-none-eabi-10.3-2021.10/bin/../lib/gcc/arm-none-eabi/10.3.1/thumb/v7e-m+fp/hard\libgcc.a(_arm_truncdfsf2.o)
__udivmoddi4                                      d:/gcc-arm-none-eabi-10.3-2021.10/bin/../lib/gcc/arm-none-eabi/10.3.1/thumb/v7e-m+fp/hard\libgcc.a(_udivmoddi4.o)
                                                  d:/gcc-arm-none-eabi-10.3-2021.10/bin/../lib/gcc/arm-none-eabi/10.3.1/thumb/v7e-m+fp/hard\libgcc.a(_aeabi_uldivmod.o)
__unorddf2                                        d:/gcc-arm-none-eabi-10.3-2021.10/bin/../lib/gcc/arm-none-eabi/10.3.1/thumb/v7e-m+fp/hard\libgcc.a(_arm_unorddf2.o)
_ebss                                             build/startup_stm32f429xx.o
_edata                                            build/startup_stm32f429xx.o
_electricalAngle                                  build/motor.o
_estack                                           build/startup_stm32f429xx.o
_exit                                             d:/gcc-arm-none-eabi-10.3-2021.10/bin/../lib/gcc/arm-none-eabi/10.3.1/../../../../arm-none-eabi/lib/thumb/v7e-m+fp/hard\libnosys.a(_exit.o)
                                                  d:/gcc-arm-none-eabi-10.3-2021.10/bin/../lib/gcc/arm-none-eabi/10.3.1/../../../../arm-none-eabi/lib/thumb/v7e-m+fp/hard\libc_nano.a(lib_a-exit.o)
_fini                                             d:/gcc-arm-none-eabi-10.3-2021.10/bin/../lib/gcc/arm-none-eabi/10.3.1/thumb/v7e-m+fp/hard/crti.o
_free_r                                           d:/gcc-arm-none-eabi-10.3-2021.10/bin/../lib/gcc/arm-none-eabi/10.3.1/../../../../arm-none-eabi/lib/thumb/v7e-m+fp/hard\libc_nano.a(lib_a-nano-freer.o)
                                                  d:/gcc-arm-none-eabi-10.3-2021.10/bin/../lib/gcc/arm-none-eabi/10.3.1/../../../../arm-none-eabi/lib/thumb/v7e-m+fp/hard\libc_nano.a(lib_a-reent.o)
                                                  d:/gcc-arm-none-eabi-10.3-2021.10/bin/../lib/gcc/arm-none-eabi/10.3.1/../../../../arm-none-eabi/lib/thumb/v7e-m+fp/hard\libc_nano.a(lib_a-nano-reallocr.o)
                                                  d:/gcc-arm-none-eabi-10.3-2021.10/bin/../lib/gcc/arm-none-eabi/10.3.1/../../../../arm-none-eabi/lib/thumb/v7e-m+fp/hard\libc_nano.a(lib_a-nano-svfprintf.o)
_global_impure_ptr                                d:/gcc-arm-none-eabi-10.3-2021.10/bin/../lib/gcc/arm-none-eabi/10.3.1/../../../../arm-none-eabi/lib/thumb/v7e-m+fp/hard\libc_nano.a(lib_a-impure.o)
                                                  d:/gcc-arm-none-eabi-10.3-2021.10/bin/../lib/gcc/arm-none-eabi/10.3.1/../../../../arm-none-eabi/lib/thumb/v7e-m+fp/hard\libc_nano.a(lib_a-exit.o)
_impure_ptr                                       d:/gcc-arm-none-eabi-10.3-2021.10/bin/../lib/gcc/arm-none-eabi/10.3.1/../../../../arm-none-eabi/lib/thumb/v7e-m+fp/hard\libc_nano.a(lib_a-impure.o)
                                                  d:/gcc-arm-none-eabi-10.3-2021.10/bin/../lib/gcc/arm-none-eabi/10.3.1/../../../../arm-none-eabi/lib/thumb/v7e-m+fp/hard\libc_nano.a(lib_a-errno.o)
                                                  d:/gcc-arm-none-eabi-10.3-2021.10/bin/../lib/gcc/arm-none-eabi/10.3.1/../../../../arm-none-eabi/lib/thumb/v7e-m+fp/hard\libc_nano.a(lib_a-reent.o)
                                                  d:/gcc-arm-none-eabi-10.3-2021.10/bin/../lib/gcc/arm-none-eabi/10.3.1/../../../../arm-none-eabi/lib/thumb/v7e-m+fp/hard\libc_nano.a(lib_a-vsnprintf.o)
                                                  d:/gcc-arm-none-eabi-10.3-2021.10/bin/../lib/gcc/arm-none-eabi/10.3.1/../../../../arm-none-eabi/lib/thumb/v7e-m+fp/hard\libc_nano.a(lib_a-sprintf.o)
_init                                             d:/gcc-arm-none-eabi-10.3-2021.10/bin/../lib/gcc/arm-none-eabi/10.3.1/thumb/v7e-m+fp/hard/crti.o
                                                  d:/gcc-arm-none-eabi-10.3-2021.10/bin/../lib/gcc/arm-none-eabi/10.3.1/../../../../arm-none-eabi/lib/thumb/v7e-m+fp/hard\libc_nano.a(lib_a-init.o)
_mainCRTStartup                                   d:/gcc-arm-none-eabi-10.3-2021.10/bin/../lib/gcc/arm-none-eabi/10.3.1/../../../../arm-none-eabi/lib/thumb/v7e-m+fp/hard/crt0.o
_malloc_r                                         d:/gcc-arm-none-eabi-10.3-2021.10/bin/../lib/gcc/arm-none-eabi/10.3.1/../../../../arm-none-eabi/lib/thumb/v7e-m+fp/hard\libc_nano.a(lib_a-nano-mallocr.o)
                                                  d:/gcc-arm-none-eabi-10.3-2021.10/bin/../lib/gcc/arm-none-eabi/10.3.1/../../../../arm-none-eabi/lib/thumb/v7e-m+fp/hard\libc_nano.a(lib_a-nano-reallocr.o)
                                                  d:/gcc-arm-none-eabi-10.3-2021.10/bin/../lib/gcc/arm-none-eabi/10.3.1/../../../../arm-none-eabi/lib/thumb/v7e-m+fp/hard\libc_nano.a(lib_a-nano-svfprintf.o)
_malloc_usable_size_r                             d:/gcc-arm-none-eabi-10.3-2021.10/bin/../lib/gcc/arm-none-eabi/10.3.1/../../../../arm-none-eabi/lib/thumb/v7e-m+fp/hard\libc_nano.a(lib_a-nano-msizer.o)
                                                  d:/gcc-arm-none-eabi-10.3-2021.10/bin/../lib/gcc/arm-none-eabi/10.3.1/../../../../arm-none-eabi/lib/thumb/v7e-m+fp/hard\libc_nano.a(lib_a-nano-reallocr.o)
_normalizeAngle                                   build/motor.o
_printf_common                                    d:/gcc-arm-none-eabi-10.3-2021.10/bin/../lib/gcc/arm-none-eabi/10.3.1/../../../../arm-none-eabi/lib/thumb/v7e-m+fp/hard\libc_nano.a(lib_a-nano-vfprintf_i.o)
_printf_float                                     d:/gcc-arm-none-eabi-10.3-2021.10/bin/../lib/gcc/arm-none-eabi/10.3.1/../../../../arm-none-eabi/lib/thumb/v7e-m+fp/hard\libc_nano.a(lib_a-nano-svfprintf.o)
_printf_i                                         d:/gcc-arm-none-eabi-10.3-2021.10/bin/../lib/gcc/arm-none-eabi/10.3.1/../../../../arm-none-eabi/lib/thumb/v7e-m+fp/hard\libc_nano.a(lib_a-nano-vfprintf_i.o)
                                                  d:/gcc-arm-none-eabi-10.3-2021.10/bin/../lib/gcc/arm-none-eabi/10.3.1/../../../../arm-none-eabi/lib/thumb/v7e-m+fp/hard\libc_nano.a(lib_a-nano-svfprintf.o)
_realloc_r                                        d:/gcc-arm-none-eabi-10.3-2021.10/bin/../lib/gcc/arm-none-eabi/10.3.1/../../../../arm-none-eabi/lib/thumb/v7e-m+fp/hard\libc_nano.a(lib_a-nano-reallocr.o)
                                                  d:/gcc-arm-none-eabi-10.3-2021.10/bin/../lib/gcc/arm-none-eabi/10.3.1/../../../../arm-none-eabi/lib/thumb/v7e-m+fp/hard\libc_nano.a(lib_a-nano-svfprintf.o)
_reclaim_reent                                    d:/gcc-arm-none-eabi-10.3-2021.10/bin/../lib/gcc/arm-none-eabi/10.3.1/../../../../arm-none-eabi/lib/thumb/v7e-m+fp/hard\libc_nano.a(lib_a-reent.o)
_sbrk                                             d:/gcc-arm-none-eabi-10.3-2021.10/bin/../lib/gcc/arm-none-eabi/10.3.1/../../../../arm-none-eabi/lib/thumb/v7e-m+fp/hard\libnosys.a(sbrk.o)
                                                  d:/gcc-arm-none-eabi-10.3-2021.10/bin/../lib/gcc/arm-none-eabi/10.3.1/../../../../arm-none-eabi/lib/thumb/v7e-m+fp/hard\libc_nano.a(lib_a-sbrkr.o)
_sbrk_r                                           d:/gcc-arm-none-eabi-10.3-2021.10/bin/../lib/gcc/arm-none-eabi/10.3.1/../../../../arm-none-eabi/lib/thumb/v7e-m+fp/hard\libc_nano.a(lib_a-sbrkr.o)
                                                  d:/gcc-arm-none-eabi-10.3-2021.10/bin/../lib/gcc/arm-none-eabi/10.3.1/../../../../arm-none-eabi/lib/thumb/v7e-m+fp/hard\libc_nano.a(lib_a-nano-mallocr.o)
_sbss                                             build/startup_stm32f429xx.o
_sdata                                            build/startup_stm32f429xx.o
_sidata                                           build/startup_stm32f429xx.o
_siprintf_r                                       d:/gcc-arm-none-eabi-10.3-2021.10/bin/../lib/gcc/arm-none-eabi/10.3.1/../../../../arm-none-eabi/lib/thumb/v7e-m+fp/hard\libc_nano.a(lib_a-sprintf.o)
_sprintf_r                                        d:/gcc-arm-none-eabi-10.3-2021.10/bin/../lib/gcc/arm-none-eabi/10.3.1/../../../../arm-none-eabi/lib/thumb/v7e-m+fp/hard\libc_nano.a(lib_a-sprintf.o)
_stack_init                                       d:/gcc-arm-none-eabi-10.3-2021.10/bin/../lib/gcc/arm-none-eabi/10.3.1/../../../../arm-none-eabi/lib/thumb/v7e-m+fp/hard/crt0.o
_start                                            d:/gcc-arm-none-eabi-10.3-2021.10/bin/../lib/gcc/arm-none-eabi/10.3.1/../../../../arm-none-eabi/lib/thumb/v7e-m+fp/hard/crt0.o
_svfiprintf_r                                     d:/gcc-arm-none-eabi-10.3-2021.10/bin/../lib/gcc/arm-none-eabi/10.3.1/../../../../arm-none-eabi/lib/thumb/v7e-m+fp/hard\libc_nano.a(lib_a-nano-svfprintf.o)
_svfprintf_r                                      d:/gcc-arm-none-eabi-10.3-2021.10/bin/../lib/gcc/arm-none-eabi/10.3.1/../../../../arm-none-eabi/lib/thumb/v7e-m+fp/hard\libc_nano.a(lib_a-nano-svfprintf.o)
                                                  d:/gcc-arm-none-eabi-10.3-2021.10/bin/../lib/gcc/arm-none-eabi/10.3.1/../../../../arm-none-eabi/lib/thumb/v7e-m+fp/hard\libc_nano.a(lib_a-vsnprintf.o)
                                                  d:/gcc-arm-none-eabi-10.3-2021.10/bin/../lib/gcc/arm-none-eabi/10.3.1/../../../../arm-none-eabi/lib/thumb/v7e-m+fp/hard\libc_nano.a(lib_a-sprintf.o)
_vsniprintf_r                                     d:/gcc-arm-none-eabi-10.3-2021.10/bin/../lib/gcc/arm-none-eabi/10.3.1/../../../../arm-none-eabi/lib/thumb/v7e-m+fp/hard\libc_nano.a(lib_a-vsnprintf.o)
_vsnprintf_r                                      d:/gcc-arm-none-eabi-10.3-2021.10/bin/../lib/gcc/arm-none-eabi/10.3.1/../../../../arm-none-eabi/lib/thumb/v7e-m+fp/hard\libc_nano.a(lib_a-vsnprintf.o)
angle                                             build/freertos.o
angle_frac                                        build/freertos.o
angle_int                                         build/freertos.o
angle_prev                                        build/freertos.o
armBitRevIndexTable1024                           build/arm_common_tables.o
armBitRevIndexTable128                            build/arm_common_tables.o
armBitRevIndexTable16                             build/arm_common_tables.o
armBitRevIndexTable2048                           build/arm_common_tables.o
armBitRevIndexTable256                            build/arm_common_tables.o
armBitRevIndexTable32                             build/arm_common_tables.o
armBitRevIndexTable4096                           build/arm_common_tables.o
armBitRevIndexTable512                            build/arm_common_tables.o
armBitRevIndexTable64                             build/arm_common_tables.o
armBitRevIndexTableF64_1024                       build/arm_common_tables.o
armBitRevIndexTableF64_128                        build/arm_common_tables.o
armBitRevIndexTableF64_16                         build/arm_common_tables.o
armBitRevIndexTableF64_2048                       build/arm_common_tables.o
armBitRevIndexTableF64_256                        build/arm_common_tables.o
armBitRevIndexTableF64_32                         build/arm_common_tables.o
armBitRevIndexTableF64_4096                       build/arm_common_tables.o
armBitRevIndexTableF64_512                        build/arm_common_tables.o
armBitRevIndexTableF64_64                         build/arm_common_tables.o
armBitRevIndexTable_fixed_1024                    build/arm_common_tables.o
armBitRevIndexTable_fixed_128                     build/arm_common_tables.o
armBitRevIndexTable_fixed_16                      build/arm_common_tables.o
armBitRevIndexTable_fixed_2048                    build/arm_common_tables.o
armBitRevIndexTable_fixed_256                     build/arm_common_tables.o
armBitRevIndexTable_fixed_32                      build/arm_common_tables.o
armBitRevIndexTable_fixed_4096                    build/arm_common_tables.o
armBitRevIndexTable_fixed_512                     build/arm_common_tables.o
armBitRevIndexTable_fixed_64                      build/arm_common_tables.o
armBitRevTable                                    build/arm_common_tables.o
armRecipTableQ15                                  build/arm_common_tables.o
armRecipTableQ31                                  build/arm_common_tables.o
arm_sin_f32                                       build/arm_sin_f32.o
atexit                                            d:/gcc-arm-none-eabi-10.3-2021.10/bin/../lib/gcc/arm-none-eabi/10.3.1/../../../../arm-none-eabi/lib/thumb/v7e-m+fp/hard/crt0.o
bsp_as5600GetAngle                                build/bsp_as5600.o
                                                  build/freertos.o
bsp_as5600GetRawAngle                             build/bsp_as5600.o
bsp_as5600Init                                    build/bsp_as5600.o
                                                  build/main.o
cleanup_glue                                      d:/gcc-arm-none-eabi-10.3-2021.10/bin/../lib/gcc/arm-none-eabi/10.3.1/../../../../arm-none-eabi/lib/thumb/v7e-m+fp/hard\libc_nano.a(lib_a-reent.o)
cos                                               d:/gcc-arm-none-eabi-10.3-2021.10/bin/../lib/gcc/arm-none-eabi/10.3.1/../../../../arm-none-eabi/lib/thumb/v7e-m+fp/hard\libm.a(lib_a-s_cos.o)
                                                  build/motor.o
cos_factorsQ15_128                                build/arm_common_tables.o
cos_factorsQ15_2048                               build/arm_common_tables.o
cos_factorsQ15_512                                build/arm_common_tables.o
cos_factorsQ15_8192                               build/arm_common_tables.o
cos_factorsQ31_128                                build/arm_common_tables.o
cos_factorsQ31_2048                               build/arm_common_tables.o
cos_factorsQ31_512                                build/arm_common_tables.o
cos_factorsQ31_8192                               build/arm_common_tables.o
cos_factors_128                                   build/arm_common_tables.o
cos_factors_2048                                  build/arm_common_tables.o
cos_factors_512                                   build/arm_common_tables.o
cos_factors_8192                                  build/arm_common_tables.o
d_angle                                           build/freertos.o
dc_a                                              build/motor.o
dc_b                                              build/motor.o
dc_c                                              build/motor.o
eTaskGetState                                     build/tasks.o
                                                  build/cmsis_os2.o
end                                               d:/gcc-arm-none-eabi-10.3-2021.10/bin/../lib/gcc/arm-none-eabi/10.3.1/../../../../arm-none-eabi/lib/thumb/v7e-m+fp/hard\libnosys.a(sbrk.o)
errno                                             d:/gcc-arm-none-eabi-10.3-2021.10/bin/../lib/gcc/arm-none-eabi/10.3.1/../../../../arm-none-eabi/lib/thumb/v7e-m+fp/hard\libc_nano.a(lib_a-reent.o)
                                                  d:/gcc-arm-none-eabi-10.3-2021.10/bin/../lib/gcc/arm-none-eabi/10.3.1/../../../../arm-none-eabi/lib/thumb/v7e-m+fp/hard\libc_nano.a(lib_a-sbrkr.o)
exit                                              d:/gcc-arm-none-eabi-10.3-2021.10/bin/../lib/gcc/arm-none-eabi/10.3.1/../../../../arm-none-eabi/lib/thumb/v7e-m+fp/hard\libc_nano.a(lib_a-exit.o)
                                                  d:/gcc-arm-none-eabi-10.3-2021.10/bin/../lib/gcc/arm-none-eabi/10.3.1/../../../../arm-none-eabi/lib/thumb/v7e-m+fp/hard/crt0.o
fabs                                              d:/gcc-arm-none-eabi-10.3-2021.10/bin/../lib/gcc/arm-none-eabi/10.3.1/../../../../arm-none-eabi/lib/thumb/v7e-m+fp/hard\libm.a(lib_a-s_fabs.o)
                                                  d:/gcc-arm-none-eabi-10.3-2021.10/bin/../lib/gcc/arm-none-eabi/10.3.1/../../../../arm-none-eabi/lib/thumb/v7e-m+fp/hard\libm.a(lib_a-e_rem_pio2.o)
floor                                             d:/gcc-arm-none-eabi-10.3-2021.10/bin/../lib/gcc/arm-none-eabi/10.3.1/../../../../arm-none-eabi/lib/thumb/v7e-m+fp/hard\libm.a(lib_a-s_floor.o)
                                                  d:/gcc-arm-none-eabi-10.3-2021.10/bin/../lib/gcc/arm-none-eabi/10.3.1/../../../../arm-none-eabi/lib/thumb/v7e-m+fp/hard\libm.a(lib_a-k_rem_pio2.o)
fmod                                              d:/gcc-arm-none-eabi-10.3-2021.10/bin/../lib/gcc/arm-none-eabi/10.3.1/../../../../arm-none-eabi/lib/thumb/v7e-m+fp/hard\libm.a(lib_a-w_fmod.o)
                                                  build/freertos.o
                                                  build/motor.o
g_pfnVectors                                      build/startup_stm32f429xx.o
hardware_init_hook                                d:/gcc-arm-none-eabi-10.3-2021.10/bin/../lib/gcc/arm-none-eabi/10.3.1/../../../../arm-none-eabi/lib/thumb/v7e-m+fp/hard/crt0.o
hdma_spi3_tx                                      build/spi.o
                                                  build/stm32f4xx_it.o
hdma_usart1_rx                                    build/usart.o
                                                  build/stm32f4xx_it.o
hdma_usart1_tx                                    build/usart.o
                                                  build/stm32f4xx_it.o
hi2c2                                             build/i2c.o
                                                  build/bsp_as5600.o
hspi3                                             build/spi.o
htim1                                             build/stm32f4xx_hal_timebase_tim.o
                                                  build/stm32f4xx_it.o
htim4                                             build/tim.o
                                                  build/stm32f4xx_it.o
                                                  build/motor.o
                                                  build/main.o
htim5                                             build/tim.o
                                                  build/stm32f4xx_it.o
huart1                                            build/usart.o
                                                  build/stm32f4xx_it.o
main                                              build/main.o
                                                  build/startup_stm32f429xx.o
                                                  d:/gcc-arm-none-eabi-10.3-2021.10/bin/../lib/gcc/arm-none-eabi/10.3.1/../../../../arm-none-eabi/lib/thumb/v7e-m+fp/hard/crt0.o
memchr                                            d:/gcc-arm-none-eabi-10.3-2021.10/bin/../lib/gcc/arm-none-eabi/10.3.1/../../../../arm-none-eabi/lib/thumb/v7e-m+fp/hard\libc_nano.a(lib_a-memchr.o)
                                                  d:/gcc-arm-none-eabi-10.3-2021.10/bin/../lib/gcc/arm-none-eabi/10.3.1/../../../../arm-none-eabi/lib/thumb/v7e-m+fp/hard\libc_nano.a(lib_a-nano-vfprintf_i.o)
                                                  d:/gcc-arm-none-eabi-10.3-2021.10/bin/../lib/gcc/arm-none-eabi/10.3.1/../../../../arm-none-eabi/lib/thumb/v7e-m+fp/hard\libc_nano.a(lib_a-nano-svfprintf.o)
memcpy                                            d:/gcc-arm-none-eabi-10.3-2021.10/bin/../lib/gcc/arm-none-eabi/10.3.1/../../../../arm-none-eabi/lib/thumb/v7e-m+fp/hard\libc_nano.a(lib_a-memcpy-stub.o)
                                                  d:/gcc-arm-none-eabi-10.3-2021.10/bin/../lib/gcc/arm-none-eabi/10.3.1/../../../../arm-none-eabi/lib/thumb/v7e-m+fp/hard\libc_nano.a(lib_a-nano-reallocr.o)
                                                  d:/gcc-arm-none-eabi-10.3-2021.10/bin/../lib/gcc/arm-none-eabi/10.3.1/../../../../arm-none-eabi/lib/thumb/v7e-m+fp/hard\libc_nano.a(lib_a-nano-svfprintf.o)
                                                  build/cmsis_os2.o
                                                  build/stream_buffer.o
                                                  build/queue.o
memmove                                           d:/gcc-arm-none-eabi-10.3-2021.10/bin/../lib/gcc/arm-none-eabi/10.3.1/../../../../arm-none-eabi/lib/thumb/v7e-m+fp/hard\libc_nano.a(lib_a-memmove.o)
                                                  d:/gcc-arm-none-eabi-10.3-2021.10/bin/../lib/gcc/arm-none-eabi/10.3.1/../../../../arm-none-eabi/lib/thumb/v7e-m+fp/hard\libc_nano.a(lib_a-nano-svfprintf.o)
memset                                            d:/gcc-arm-none-eabi-10.3-2021.10/bin/../lib/gcc/arm-none-eabi/10.3.1/../../../../arm-none-eabi/lib/thumb/v7e-m+fp/hard\libc_nano.a(lib_a-memset.o)
                                                  build/tasks.o
                                                  build/stream_buffer.o
                                                  build/main.o
                                                  d:/gcc-arm-none-eabi-10.3-2021.10/bin/../lib/gcc/arm-none-eabi/10.3.1/../../../../arm-none-eabi/lib/thumb/v7e-m+fp/hard/crt0.o
micros                                            build/stm32f4xx_it.o
                                                  build/motor.o
micros_counter                                    build/stm32f4xx_it.o
open_loop_timestamp                               build/motor.o
osDelay                                           build/cmsis_os2.o
osDelayUntil                                      build/cmsis_os2.o
osEventFlagsClear                                 build/cmsis_os2.o
osEventFlagsDelete                                build/cmsis_os2.o
osEventFlagsGet                                   build/cmsis_os2.o
osEventFlagsNew                                   build/cmsis_os2.o
osEventFlagsSet                                   build/cmsis_os2.o
osEventFlagsWait                                  build/cmsis_os2.o
osKernelGetInfo                                   build/cmsis_os2.o
osKernelGetState                                  build/cmsis_os2.o
osKernelGetSysTimerCount                          build/cmsis_os2.o
osKernelGetSysTimerFreq                           build/cmsis_os2.o
osKernelGetTickCount                              build/cmsis_os2.o
osKernelGetTickFreq                               build/cmsis_os2.o
osKernelInitialize                                build/cmsis_os2.o
                                                  build/main.o
osKernelLock                                      build/cmsis_os2.o
osKernelRestoreLock                               build/cmsis_os2.o
osKernelStart                                     build/cmsis_os2.o
                                                  build/main.o
osKernelUnlock                                    build/cmsis_os2.o
osMemoryPoolAlloc                                 build/cmsis_os2.o
osMemoryPoolDelete                                build/cmsis_os2.o
osMemoryPoolFree                                  build/cmsis_os2.o
osMemoryPoolGetBlockSize                          build/cmsis_os2.o
osMemoryPoolGetCapacity                           build/cmsis_os2.o
osMemoryPoolGetCount                              build/cmsis_os2.o
osMemoryPoolGetName                               build/cmsis_os2.o
osMemoryPoolGetSpace                              build/cmsis_os2.o
osMemoryPoolNew                                   build/cmsis_os2.o
osMessageQueueDelete                              build/cmsis_os2.o
osMessageQueueGet                                 build/cmsis_os2.o
osMessageQueueGetCapacity                         build/cmsis_os2.o
osMessageQueueGetCount                            build/cmsis_os2.o
osMessageQueueGetMsgSize                          build/cmsis_os2.o
osMessageQueueGetSpace                            build/cmsis_os2.o
osMessageQueueNew                                 build/cmsis_os2.o
osMessageQueuePut                                 build/cmsis_os2.o
osMessageQueueReset                               build/cmsis_os2.o
osMutexAcquire                                    build/cmsis_os2.o
osMutexDelete                                     build/cmsis_os2.o
osMutexGetOwner                                   build/cmsis_os2.o
osMutexNew                                        build/cmsis_os2.o
osMutexRelease                                    build/cmsis_os2.o
osSemaphoreAcquire                                build/cmsis_os2.o
osSemaphoreDelete                                 build/cmsis_os2.o
osSemaphoreGetCount                               build/cmsis_os2.o
osSemaphoreNew                                    build/cmsis_os2.o
osSemaphoreRelease                                build/cmsis_os2.o
osThreadEnumerate                                 build/cmsis_os2.o
osThreadExit                                      build/cmsis_os2.o
osThreadFlagsClear                                build/cmsis_os2.o
osThreadFlagsGet                                  build/cmsis_os2.o
osThreadFlagsSet                                  build/cmsis_os2.o
osThreadFlagsWait                                 build/cmsis_os2.o
osThreadGetCount                                  build/cmsis_os2.o
osThreadGetId                                     build/cmsis_os2.o
osThreadGetName                                   build/cmsis_os2.o
osThreadGetPriority                               build/cmsis_os2.o
osThreadGetStackSpace                             build/cmsis_os2.o
osThreadGetState                                  build/cmsis_os2.o
osThreadNew                                       build/cmsis_os2.o
                                                  build/freertos.o
osThreadResume                                    build/cmsis_os2.o
osThreadSetPriority                               build/cmsis_os2.o
osThreadSuspend                                   build/cmsis_os2.o
osThreadTerminate                                 build/cmsis_os2.o
                                                  build/freertos.o
osThreadYield                                     build/cmsis_os2.o
osTimerDelete                                     build/cmsis_os2.o
osTimerGetName                                    build/cmsis_os2.o
osTimerIsRunning                                  build/cmsis_os2.o
osTimerNew                                        build/cmsis_os2.o
osTimerStart                                      build/cmsis_os2.o
osTimerStop                                       build/cmsis_os2.o
pFlash                                            build/stm32f4xx_hal_flash.o
                                                  build/stm32f4xx_hal_flash_ex.o
pcQueueGetName                                    build/queue.o
pcTaskGetName                                     build/tasks.o
                                                  build/cmsis_os2.o
pcTimerGetName                                    build/timers.o
                                                  build/cmsis_os2.o
pvPortMalloc                                      build/heap_4.o
                                                  build/cmsis_os2.o
                                                  build/timers.o
                                                  build/tasks.o
                                                  build/stream_buffer.o
                                                  build/queue.o
                                                  build/event_groups.o
pvTaskIncrementMutexHeldCount                     build/tasks.o
                                                  build/queue.o
pvTimerGetTimerID                                 build/timers.o
                                                  build/cmsis_os2.o
pxCurrentTCB                                      build/tasks.o
                                                  build/port.o
pxPortInitialiseStack                             build/port.o
                                                  build/tasks.o
realCoefA                                         build/arm_common_tables.o
realCoefAQ15                                      build/arm_common_tables.o
realCoefAQ31                                      build/arm_common_tables.o
realCoefB                                         build/arm_common_tables.o
realCoefBQ15                                      build/arm_common_tables.o
realCoefBQ31                                      build/arm_common_tables.o
round                                             d:/gcc-arm-none-eabi-10.3-2021.10/bin/../lib/gcc/arm-none-eabi/10.3.1/../../../../arm-none-eabi/lib/thumb/v7e-m+fp/hard\libm.a(lib_a-s_round.o)
                                                  build/spi.o
scalbn                                            d:/gcc-arm-none-eabi-10.3-2021.10/bin/../lib/gcc/arm-none-eabi/10.3.1/../../../../arm-none-eabi/lib/thumb/v7e-m+fp/hard\libm.a(lib_a-s_scalbn.o)
                                                  d:/gcc-arm-none-eabi-10.3-2021.10/bin/../lib/gcc/arm-none-eabi/10.3.1/../../../../arm-none-eabi/lib/thumb/v7e-m+fp/hard\libm.a(lib_a-k_rem_pio2.o)
sendFlg                                           build/spi.o
                                                  build/dma.o
setPhaseVoltage                                   build/motor.o
setPwm                                            build/motor.o
shaft_angle                                       build/motor.o
sin                                               d:/gcc-arm-none-eabi-10.3-2021.10/bin/../lib/gcc/arm-none-eabi/10.3.1/../../../../arm-none-eabi/lib/thumb/v7e-m+fp/hard\libm.a(lib_a-s_sin.o)
                                                  build/motor.o
sinTable_f32                                      build/arm_common_tables.o
                                                  build/arm_sin_f32.o
sinTable_q15                                      build/arm_common_tables.o
sinTable_q31                                      build/arm_common_tables.o
siprintf                                          d:/gcc-arm-none-eabi-10.3-2021.10/bin/../lib/gcc/arm-none-eabi/10.3.1/../../../../arm-none-eabi/lib/thumb/v7e-m+fp/hard\libc_nano.a(lib_a-sprintf.o)
software_init_hook                                d:/gcc-arm-none-eabi-10.3-2021.10/bin/../lib/gcc/arm-none-eabi/10.3.1/../../../../arm-none-eabi/lib/thumb/v7e-m+fp/hard/crt0.o
sprintf                                           d:/gcc-arm-none-eabi-10.3-2021.10/bin/../lib/gcc/arm-none-eabi/10.3.1/../../../../arm-none-eabi/lib/thumb/v7e-m+fp/hard\libc_nano.a(lib_a-sprintf.o)
                                                  build/spi.o
sqrt_initial_lut_q15                              build/arm_common_tables.o
sqrt_initial_lut_q31                              build/arm_common_tables.o
startTaskHandle                                   build/freertos.o
startTask_attributes                              build/freertos.o
strcpy                                            d:/gcc-arm-none-eabi-10.3-2021.10/bin/../lib/gcc/arm-none-eabi/10.3.1/../../../../arm-none-eabi/lib/thumb/v7e-m+fp/hard\libc_nano.a(lib_a-strcpy.o)
                                                  build/spi.o
strlen                                            d:/gcc-arm-none-eabi-10.3-2021.10/bin/../lib/gcc/arm-none-eabi/10.3.1/../../../../arm-none-eabi/lib/thumb/v7e-m+fp/hard\libc_nano.a(lib_a-strlen.o)
                                                  build/spi.o
twiddleCoefF64_1024                               build/arm_common_tables.o
twiddleCoefF64_128                                build/arm_common_tables.o
twiddleCoefF64_16                                 build/arm_common_tables.o
twiddleCoefF64_2048                               build/arm_common_tables.o
twiddleCoefF64_256                                build/arm_common_tables.o
twiddleCoefF64_32                                 build/arm_common_tables.o
twiddleCoefF64_4096                               build/arm_common_tables.o
twiddleCoefF64_512                                build/arm_common_tables.o
twiddleCoefF64_64                                 build/arm_common_tables.o
twiddleCoefF64_rfft_1024                          build/arm_common_tables.o
twiddleCoefF64_rfft_128                           build/arm_common_tables.o
twiddleCoefF64_rfft_2048                          build/arm_common_tables.o
twiddleCoefF64_rfft_256                           build/arm_common_tables.o
twiddleCoefF64_rfft_32                            build/arm_common_tables.o
twiddleCoefF64_rfft_4096                          build/arm_common_tables.o
twiddleCoefF64_rfft_512                           build/arm_common_tables.o
twiddleCoefF64_rfft_64                            build/arm_common_tables.o
twiddleCoef_1024                                  build/arm_common_tables.o
twiddleCoef_1024_q15                              build/arm_common_tables.o
twiddleCoef_1024_q31                              build/arm_common_tables.o
twiddleCoef_128                                   build/arm_common_tables.o
twiddleCoef_128_q15                               build/arm_common_tables.o
twiddleCoef_128_q31                               build/arm_common_tables.o
twiddleCoef_16                                    build/arm_common_tables.o
twiddleCoef_16_q15                                build/arm_common_tables.o
twiddleCoef_16_q31                                build/arm_common_tables.o
twiddleCoef_2048                                  build/arm_common_tables.o
twiddleCoef_2048_q15                              build/arm_common_tables.o
twiddleCoef_2048_q31                              build/arm_common_tables.o
twiddleCoef_256                                   build/arm_common_tables.o
twiddleCoef_256_q15                               build/arm_common_tables.o
twiddleCoef_256_q31                               build/arm_common_tables.o
twiddleCoef_32                                    build/arm_common_tables.o
twiddleCoef_32_q15                                build/arm_common_tables.o
twiddleCoef_32_q31                                build/arm_common_tables.o
twiddleCoef_4096                                  build/arm_common_tables.o
twiddleCoef_4096_q15                              build/arm_common_tables.o
twiddleCoef_4096_q31                              build/arm_common_tables.o
twiddleCoef_512                                   build/arm_common_tables.o
twiddleCoef_512_q15                               build/arm_common_tables.o
twiddleCoef_512_q31                               build/arm_common_tables.o
twiddleCoef_64                                    build/arm_common_tables.o
twiddleCoef_64_q15                                build/arm_common_tables.o
twiddleCoef_64_q31                                build/arm_common_tables.o
twiddleCoef_rfft_1024                             build/arm_common_tables.o
twiddleCoef_rfft_128                              build/arm_common_tables.o
twiddleCoef_rfft_2048                             build/arm_common_tables.o
twiddleCoef_rfft_256                              build/arm_common_tables.o
twiddleCoef_rfft_32                               build/arm_common_tables.o
twiddleCoef_rfft_4096                             build/arm_common_tables.o
twiddleCoef_rfft_512                              build/arm_common_tables.o
twiddleCoef_rfft_64                               build/arm_common_tables.o
ucQueueGetQueueType                               build/queue.o
ucStreamBufferGetStreamBufferType                 build/stream_buffer.o
ulTaskNotifyTake                                  build/tasks.o
ulTaskNotifyValueClear                            build/tasks.o
uwTick                                            build/stm32f4xx_hal.o
uwTickFreq                                        build/stm32f4xx_hal.o
uwTickPrio                                        build/stm32f4xx_hal.o
                                                  build/stm32f4xx_hal_timebase_tim.o
                                                  build/stm32f4xx_hal_rcc_ex.o
                                                  build/stm32f4xx_hal_rcc.o
uxEventGroupGetNumber                             build/event_groups.o
uxListRemove                                      build/list.o
                                                  build/timers.o
                                                  build/tasks.o
uxQueueGetQueueNumber                             build/queue.o
uxQueueMessagesWaiting                            build/queue.o
                                                  build/cmsis_os2.o
uxQueueMessagesWaitingFromISR                     build/queue.o
                                                  build/cmsis_os2.o
uxQueueSpacesAvailable                            build/queue.o
                                                  build/cmsis_os2.o
uxStreamBufferGetStreamBufferNumber               build/stream_buffer.o
uxTaskGetNumberOfTasks                            build/tasks.o
                                                  build/cmsis_os2.o
uxTaskGetStackHighWaterMark                       build/tasks.o
                                                  build/cmsis_os2.o
uxTaskGetSystemState                              build/tasks.o
                                                  build/cmsis_os2.o
uxTaskGetTaskNumber                               build/tasks.o
uxTaskPriorityGet                                 build/tasks.o
                                                  build/cmsis_os2.o
uxTaskPriorityGetFromISR                          build/tasks.o
uxTaskResetEventItemValue                         build/tasks.o
                                                  build/event_groups.o
uxTimerGetReloadMode                              build/timers.o
uxTimerGetTimerNumber                             build/timers.o
vApplicationGetIdleTaskMemory                     build/cmsis_os2.o
                                                  build/tasks.o
vApplicationGetTimerTaskMemory                    build/cmsis_os2.o
                                                  build/timers.o
vEventGroupClearBitsCallback                      build/event_groups.o
vEventGroupDelete                                 build/event_groups.o
                                                  build/cmsis_os2.o
vEventGroupSetBitsCallback                        build/event_groups.o
vEventGroupSetNumber                              build/event_groups.o
vListInitialise                                   build/list.o
                                                  build/timers.o
                                                  build/tasks.o
                                                  build/queue.o
                                                  build/event_groups.o
vListInitialiseItem                               build/list.o
                                                  build/timers.o
                                                  build/tasks.o
vListInsert                                       build/list.o
                                                  build/timers.o
                                                  build/tasks.o
vListInsertEnd                                    build/list.o
                                                  build/tasks.o
vPortEndScheduler                                 build/port.o
                                                  build/tasks.o
vPortEnterCritical                                build/port.o
                                                  build/cmsis_os2.o
                                                  build/heap_4.o
                                                  build/timers.o
                                                  build/tasks.o
                                                  build/stream_buffer.o
                                                  build/queue.o
                                                  build/event_groups.o
                                                  build/freertos.o
vPortExitCritical                                 build/port.o
                                                  build/cmsis_os2.o
                                                  build/heap_4.o
                                                  build/timers.o
                                                  build/tasks.o
                                                  build/stream_buffer.o
                                                  build/queue.o
                                                  build/event_groups.o
                                                  build/freertos.o
vPortFree                                         build/heap_4.o
                                                  build/cmsis_os2.o
                                                  build/timers.o
                                                  build/tasks.o
                                                  build/stream_buffer.o
                                                  build/queue.o
                                                  build/event_groups.o
vPortGetHeapStats                                 build/heap_4.o
vPortInitialiseBlocks                             build/heap_4.o
vPortSetupTimerInterrupt                          build/port.o
vPortValidateInterruptPriority                    build/port.o
                                                  build/tasks.o
                                                  build/queue.o
vQueueAddToRegistry                               build/queue.o
                                                  build/cmsis_os2.o
                                                  build/timers.o
vQueueDelete                                      build/queue.o
                                                  build/cmsis_os2.o
vQueueSetQueueNumber                              build/queue.o
vQueueUnregisterQueue                             build/queue.o
                                                  build/cmsis_os2.o
vQueueWaitForMessageRestricted                    build/queue.o
                                                  build/timers.o
vStreamBufferDelete                               build/stream_buffer.o
vStreamBufferSetStreamBufferNumber                build/stream_buffer.o
vTaskDelay                                        build/tasks.o
                                                  build/cmsis_os2.o
                                                  build/freertos.o
vTaskDelayUntil                                   build/tasks.o
                                                  build/cmsis_os2.o
vTaskDelete                                       build/tasks.o
                                                  build/cmsis_os2.o
vTaskEndScheduler                                 build/tasks.o
vTaskGetInfo                                      build/tasks.o
vTaskInternalSetTimeOutState                      build/tasks.o
                                                  build/queue.o
vTaskMissedYield                                  build/tasks.o
                                                  build/queue.o
vTaskNotifyGiveFromISR                            build/tasks.o
vTaskPlaceOnEventList                             build/tasks.o
                                                  build/queue.o
vTaskPlaceOnEventListRestricted                   build/tasks.o
                                                  build/queue.o
vTaskPlaceOnUnorderedEventList                    build/tasks.o
                                                  build/event_groups.o
vTaskPriorityDisinheritAfterTimeout               build/tasks.o
                                                  build/queue.o
vTaskPrioritySet                                  build/tasks.o
                                                  build/cmsis_os2.o
vTaskRemoveFromUnorderedEventList                 build/tasks.o
                                                  build/event_groups.o
vTaskResume                                       build/tasks.o
                                                  build/cmsis_os2.o
vTaskSetTaskNumber                                build/tasks.o
vTaskSetTimeOutState                              build/tasks.o
                                                  build/stream_buffer.o
vTaskStartScheduler                               build/tasks.o
                                                  build/cmsis_os2.o
vTaskSuspend                                      build/tasks.o
                                                  build/cmsis_os2.o
vTaskSuspendAll                                   build/tasks.o
                                                  build/cmsis_os2.o
                                                  build/heap_4.o
                                                  build/timers.o
                                                  build/stream_buffer.o
                                                  build/queue.o
                                                  build/event_groups.o
vTaskSwitchContext                                build/tasks.o
                                                  build/port.o
vTimerSetReloadMode                               build/timers.o
vTimerSetTimerID                                  build/timers.o
vTimerSetTimerNumber                              build/timers.o
velocityOpenloop                                  build/motor.o
                                                  build/freertos.o
voltage_power_supply                              build/motor.o
vsniprintf                                        d:/gcc-arm-none-eabi-10.3-2021.10/bin/../lib/gcc/arm-none-eabi/10.3.1/../../../../arm-none-eabi/lib/thumb/v7e-m+fp/hard\libc_nano.a(lib_a-vsnprintf.o)
vsnprintf                                         d:/gcc-arm-none-eabi-10.3-2021.10/bin/../lib/gcc/arm-none-eabi/10.3.1/../../../../arm-none-eabi/lib/thumb/v7e-m+fp/hard\libc_nano.a(lib_a-vsnprintf.o)
                                                  build/usart.o
w                                                 build/freertos.o
w_frac                                            build/freertos.o
w_int                                             build/freertos.o
xEventGroupClearBits                              build/event_groups.o
                                                  build/cmsis_os2.o
xEventGroupClearBitsFromISR                       build/event_groups.o
                                                  build/cmsis_os2.o
xEventGroupCreate                                 build/event_groups.o
                                                  build/cmsis_os2.o
xEventGroupCreateStatic                           build/event_groups.o
                                                  build/cmsis_os2.o
xEventGroupGetBitsFromISR                         build/event_groups.o
                                                  build/cmsis_os2.o
xEventGroupSetBits                                build/event_groups.o
                                                  build/cmsis_os2.o
xEventGroupSetBitsFromISR                         build/event_groups.o
                                                  build/cmsis_os2.o
xEventGroupSync                                   build/event_groups.o
xEventGroupWaitBits                               build/event_groups.o
                                                  build/cmsis_os2.o
xPortGetFreeHeapSize                              build/heap_4.o
xPortGetMinimumEverFreeHeapSize                   build/heap_4.o
xPortStartScheduler                               build/port.o
                                                  build/tasks.o
xPortSysTickHandler                               build/port.o
                                                  build/cmsis_os2.o
xQueueCreateCountingSemaphore                     build/queue.o
                                                  build/cmsis_os2.o
xQueueCreateCountingSemaphoreStatic               build/queue.o
                                                  build/cmsis_os2.o
xQueueCreateMutex                                 build/queue.o
                                                  build/cmsis_os2.o
xQueueCreateMutexStatic                           build/queue.o
                                                  build/cmsis_os2.o
xQueueGenericCreate                               build/queue.o
                                                  build/cmsis_os2.o
xQueueGenericCreateStatic                         build/queue.o
                                                  build/cmsis_os2.o
                                                  build/timers.o
xQueueGenericReset                                build/queue.o
                                                  build/cmsis_os2.o
xQueueGenericSend                                 build/queue.o
                                                  build/cmsis_os2.o
                                                  build/timers.o
xQueueGenericSendFromISR                          build/queue.o
                                                  build/cmsis_os2.o
                                                  build/timers.o
xQueueGetMutexHolder                              build/queue.o
                                                  build/cmsis_os2.o
xQueueGetMutexHolderFromISR                       build/queue.o
xQueueGiveFromISR                                 build/queue.o
                                                  build/cmsis_os2.o
xQueueGiveMutexRecursive                          build/queue.o
                                                  build/cmsis_os2.o
xQueueIsQueueEmptyFromISR                         build/queue.o
xQueueIsQueueFullFromISR                          build/queue.o
xQueuePeek                                        build/queue.o
xQueuePeekFromISR                                 build/queue.o
xQueueReceive                                     build/queue.o
                                                  build/cmsis_os2.o
                                                  build/timers.o
xQueueReceiveFromISR                              build/queue.o
                                                  build/cmsis_os2.o
xQueueRegistry                                    build/queue.o
xQueueSemaphoreTake                               build/queue.o
                                                  build/cmsis_os2.o
xQueueTakeMutexRecursive                          build/queue.o
                                                  build/cmsis_os2.o
xStreamBufferBytesAvailable                       build/stream_buffer.o
xStreamBufferGenericCreate                        build/stream_buffer.o
xStreamBufferGenericCreateStatic                  build/stream_buffer.o
xStreamBufferIsEmpty                              build/stream_buffer.o
xStreamBufferIsFull                               build/stream_buffer.o
xStreamBufferNextMessageLengthBytes               build/stream_buffer.o
xStreamBufferReceive                              build/stream_buffer.o
xStreamBufferReceiveCompletedFromISR              build/stream_buffer.o
xStreamBufferReceiveFromISR                       build/stream_buffer.o
xStreamBufferReset                                build/stream_buffer.o
xStreamBufferSend                                 build/stream_buffer.o
xStreamBufferSendCompletedFromISR                 build/stream_buffer.o
xStreamBufferSendFromISR                          build/stream_buffer.o
xStreamBufferSetTriggerLevel                      build/stream_buffer.o
xStreamBufferSpacesAvailable                      build/stream_buffer.o
xTaskCatchUpTicks                                 build/tasks.o
xTaskCheckForTimeOut                              build/tasks.o
                                                  build/stream_buffer.o
                                                  build/queue.o
xTaskCreate                                       build/tasks.o
                                                  build/cmsis_os2.o
                                                  build/freertos.o
xTaskCreateStatic                                 build/tasks.o
                                                  build/cmsis_os2.o
                                                  build/timers.o
xTaskGenericNotify                                build/tasks.o
                                                  build/cmsis_os2.o
                                                  build/stream_buffer.o
xTaskGenericNotifyFromISR                         build/tasks.o
                                                  build/cmsis_os2.o
                                                  build/stream_buffer.o
xTaskGetCurrentTaskHandle                         build/tasks.o
                                                  build/cmsis_os2.o
                                                  build/stream_buffer.o
                                                  build/queue.o
xTaskGetSchedulerState                            build/tasks.o
                                                  build/cmsis_os2.o
                                                  build/timers.o
                                                  build/queue.o
                                                  build/event_groups.o
xTaskGetTickCount                                 build/tasks.o
                                                  build/cmsis_os2.o
                                                  build/timers.o
xTaskGetTickCountFromISR                          build/tasks.o
                                                  build/cmsis_os2.o
xTaskIncrementTick                                build/tasks.o
                                                  build/port.o
xTaskNotifyStateClear                             build/tasks.o
                                                  build/stream_buffer.o
xTaskNotifyWait                                   build/tasks.o
                                                  build/cmsis_os2.o
                                                  build/stream_buffer.o
xTaskPriorityDisinherit                           build/tasks.o
                                                  build/queue.o
xTaskPriorityInherit                              build/tasks.o
                                                  build/queue.o
xTaskRemoveFromEventList                          build/tasks.o
                                                  build/queue.o
xTaskResumeAll                                    build/tasks.o
                                                  build/cmsis_os2.o
                                                  build/heap_4.o
                                                  build/timers.o
                                                  build/stream_buffer.o
                                                  build/queue.o
                                                  build/event_groups.o
xTaskResumeFromISR                                build/tasks.o
xTimerCreate                                      build/timers.o
                                                  build/cmsis_os2.o
xTimerCreateStatic                                build/timers.o
                                                  build/cmsis_os2.o
xTimerCreateTimerTask                             build/timers.o
                                                  build/tasks.o
xTimerGenericCommand                              build/timers.o
                                                  build/cmsis_os2.o
xTimerGetExpiryTime                               build/timers.o
xTimerGetPeriod                                   build/timers.o
xTimerGetTimerDaemonTaskHandle                    build/timers.o
xTimerIsTimerActive                               build/timers.o
                                                  build/cmsis_os2.o
xTimerPendFunctionCall                            build/timers.o
xTimerPendFunctionCallFromISR                     build/timers.o
                                                  build/event_groups.o
zero_electric_angle                               build/motor.o
