ARM GAS  C:\Users\23612\AppData\Local\Temp\cctfb4zR.s 			page 1


   1              		.cpu cortex-m4
   2              		.arch armv7e-m
   3              		.fpu fpv4-sp-d16
   4              		.eabi_attribute 27, 1
   5              		.eabi_attribute 28, 1
   6              		.eabi_attribute 20, 1
   7              		.eabi_attribute 21, 1
   8              		.eabi_attribute 23, 3
   9              		.eabi_attribute 24, 1
  10              		.eabi_attribute 25, 1
  11              		.eabi_attribute 26, 1
  12              		.eabi_attribute 30, 1
  13              		.eabi_attribute 34, 1
  14              		.eabi_attribute 18, 4
  15              		.file	"spi.c"
  16              		.text
  17              	.Ltext0:
  18              		.cfi_sections	.debug_frame
  19              		.section	.text.MX_SPI3_Init,"ax",%progbits
  20              		.align	1
  21              		.global	MX_SPI3_Init
  22              		.syntax unified
  23              		.thumb
  24              		.thumb_func
  26              	MX_SPI3_Init:
  27              	.LFB170:
  28              		.file 1 "Core/Src/spi.c"
   1:Core/Src/spi.c **** /* USER CODE BEGIN Header */
   2:Core/Src/spi.c **** /**
   3:Core/Src/spi.c ****   ******************************************************************************
   4:Core/Src/spi.c ****   * @file    spi.c
   5:Core/Src/spi.c ****   * @brief   This file provides code for the configuration
   6:Core/Src/spi.c ****   *          of the SPI instances.
   7:Core/Src/spi.c ****   ******************************************************************************
   8:Core/Src/spi.c ****   * @attention
   9:Core/Src/spi.c ****   *
  10:Core/Src/spi.c ****   * Copyright (c) 2024 STMicroelectronics.
  11:Core/Src/spi.c ****   * All rights reserved.
  12:Core/Src/spi.c ****   *
  13:Core/Src/spi.c ****   * This software is licensed under terms that can be found in the LICENSE file
  14:Core/Src/spi.c ****   * in the root directory of this software component.
  15:Core/Src/spi.c ****   * If no LICENSE file comes with this software, it is provided AS-IS.
  16:Core/Src/spi.c ****   *
  17:Core/Src/spi.c ****   ******************************************************************************
  18:Core/Src/spi.c ****   */
  19:Core/Src/spi.c **** /* USER CODE END Header */
  20:Core/Src/spi.c **** /* Includes ------------------------------------------------------------------*/
  21:Core/Src/spi.c **** #include "spi.h"
  22:Core/Src/spi.c **** 
  23:Core/Src/spi.c **** /* USER CODE BEGIN 0 */
  24:Core/Src/spi.c **** #define  LCD_SPI 	hspi3           // SPIÂ±?ÈÉ®ÂÆèÔºåÊñπ‰æø‰øÆÊîπÂíåÁßªÊ§ç
  25:Core/Src/spi.c **** 
  26:Core/Src/spi.c **** static pFONT	*LCD_AsciiFonts;		// Ëã±ÊñáÂ≠ó‰ΩìÔºåASCIIÂ≠óÁ¨¶Èõ?
  27:Core/Src/spi.c **** 
  28:Core/Src/spi.c **** // Âõ†‰∏∫ËøôÁ±ªSPIÁöÑÂ±èÂπïÔºåÊØèÊ¨°Êõ¥Êñ∞ÊòæÁ§∫Êó∂ÔºåÈú?Ë¶ÅÂÖàÈÖçÁΩÆÂùêÊ†áÂå∫Âüü„ÄÅÂÜçÂÜôÊòæÂ≠òÔºå
  29:Core/Src/spi.c **** // Âú®ÊòæÁ§∫Â≠óÁ¨¶Êó∂ÔºåÂ¶ÇÊûúÊòØ‰∏?‰∏™‰∏™ÁÇπÂéªÂÜôÂùêÊ†áÂÜôÊòæÂ≠òÔºå‰ºöÈùûÂ∏∏ÊÖ¢Ôºå
  30:Core/Src/spi.c **** // Âõ†Ê≠§Âº?Ëæü‰∏ÄÁâáÁºìÂÜ≤Âå∫ÔºåÂÖàÂ∞ÜÈúÄË¶ÅÊòæÁ§∫ÁöÑÊï∞ÊçÆÂÜôËøõÁºìÂÜ≤Âå∫ÔºåÊú?ÂêéÂÜçÊâπÈáèÂÜôÂÖ•
ARM GAS  C:\Users\23612\AppData\Local\Temp\cctfb4zR.s 			page 2


  31:Core/Src/spi.c **** // Áî®Êà∑ÂèØ‰ª•Ê†πÊçÆÂÆûÈôÖÊÉÖÂÜµÂéª‰øÆÊîπÊ≠§Â§ÑÁºìÂÜ≤Âå∫ÁöÑÂ§ßÂ∞èÔºå
  32:Core/Src/spi.c **** // ‰æãÂ¶ÇÔºåÁî®Êà∑ÈúÄË¶ÅÊòæÁ§?32*32ÁöÑÊ±âÂ≠óÊó∂ÔºåÈúÄË¶ÅÁöÑÂ§ßÂ∞è‰∏? 32*32*2 = 2048 Â≠óËäÇÔºàÊØè‰∏™
  33:Core/Src/spi.c **** uint16_t  LCD_Buff[DMA_SPI_BUF_SIZE];        // LCDÁºìÂÜ≤Âå∫Ôºå16‰ΩçÂÆΩÔºàÊØè‰∏™ÂÉèÁ¥†ÁÇπÂç?2Â≠óËäÇ
  34:Core/Src/spi.c **** 
  35:Core/Src/spi.c **** struct	LCD_Struct//LCDÁõ∏ÂÖ≥ÂèÇÊï∞ÁªìÊûÑ‰Ω?
  36:Core/Src/spi.c **** {
  37:Core/Src/spi.c **** 	uint16_t Color;  				//	LCDÂΩìÂâçÁîªÁ¨îÈ¢úËâ≤
  38:Core/Src/spi.c **** 	uint16_t BackColor;			//	ËÉåÊôØËâ?
  39:Core/Src/spi.c **** 	uint8_t  ShowNum_Mode;		// Êï∞Â≠óÊòæÁ§∫Ê®°Âºè
  40:Core/Src/spi.c **** 	uint8_t  Direction;			//	ÊòæÁ§∫ÊñπÂêë
  41:Core/Src/spi.c **** 	uint16_t Width;            // Â±èÂπïÂÉèÁ¥†ÈïøÂ∫¶
  42:Core/Src/spi.c **** 	uint16_t Height;           // Â±èÂπïÂÉèÁ¥†ÂÆΩÂ∫¶	
  43:Core/Src/spi.c **** 	uint8_t  X_Offset;         // XÂùêÊ†áÂÅèÁßªÔºåÁî®‰∫éËÆæÁΩÆÂ±èÂπïÊéßÂà∂Âô®ÁöÑÊòæÂ≠òÂÜôÂÖ•ÊñπÂº?
  44:Core/Src/spi.c **** 	uint8_t  Y_Offset;         // YÂùêÊ†áÂÅèÁßªÔºåÁî®‰∫éËÆæÁΩÆÂ±èÂπïÊéßÂà∂Âô®ÁöÑÊòæÂ≠òÂÜôÂÖ•ÊñπÂº?
  45:Core/Src/spi.c **** };
  46:Core/Src/spi.c **** struct LCD_Struct LCD;
  47:Core/Src/spi.c **** 
  48:Core/Src/spi.c **** volatile uint8_t sendFlg = 0;	// DMA‰º†ËæìÂÆåÊàêÊ†áÂøó
  49:Core/Src/spi.c **** /* USER CODE END 0 */
  50:Core/Src/spi.c **** 
  51:Core/Src/spi.c **** SPI_HandleTypeDef hspi3;
  52:Core/Src/spi.c **** DMA_HandleTypeDef hdma_spi3_tx;
  53:Core/Src/spi.c **** 
  54:Core/Src/spi.c **** /* SPI3 init function */
  55:Core/Src/spi.c **** void MX_SPI3_Init(void)
  56:Core/Src/spi.c **** {
  29              		.loc 1 56 1 view -0
  30              		.cfi_startproc
  31              		@ args = 0, pretend = 0, frame = 0
  32              		@ frame_needed = 0, uses_anonymous_args = 0
  33 0000 08B5     		push	{r3, lr}
  34              	.LCFI0:
  35              		.cfi_def_cfa_offset 8
  36              		.cfi_offset 3, -8
  37              		.cfi_offset 14, -4
  57:Core/Src/spi.c **** 
  58:Core/Src/spi.c ****   /* USER CODE BEGIN SPI3_Init 0 */
  59:Core/Src/spi.c **** 
  60:Core/Src/spi.c ****   /* USER CODE END SPI3_Init 0 */
  61:Core/Src/spi.c **** 
  62:Core/Src/spi.c ****   /* USER CODE BEGIN SPI3_Init 1 */
  63:Core/Src/spi.c **** 
  64:Core/Src/spi.c ****   /* USER CODE END SPI3_Init 1 */
  65:Core/Src/spi.c ****   hspi3.Instance = SPI3;
  38              		.loc 1 65 3 view .LVU1
  39              		.loc 1 65 18 is_stmt 0 view .LVU2
  40 0002 0D48     		ldr	r0, .L5
  41 0004 0D4B     		ldr	r3, .L5+4
  42 0006 0360     		str	r3, [r0]
  66:Core/Src/spi.c ****   hspi3.Init.Mode = SPI_MODE_MASTER;
  43              		.loc 1 66 3 is_stmt 1 view .LVU3
  44              		.loc 1 66 19 is_stmt 0 view .LVU4
  45 0008 4FF48273 		mov	r3, #260
  46 000c 4360     		str	r3, [r0, #4]
  67:Core/Src/spi.c ****   hspi3.Init.Direction = SPI_DIRECTION_2LINES;
  47              		.loc 1 67 3 is_stmt 1 view .LVU5
  48              		.loc 1 67 24 is_stmt 0 view .LVU6
ARM GAS  C:\Users\23612\AppData\Local\Temp\cctfb4zR.s 			page 3


  49 000e 0023     		movs	r3, #0
  50 0010 8360     		str	r3, [r0, #8]
  68:Core/Src/spi.c ****   hspi3.Init.DataSize = SPI_DATASIZE_8BIT;
  51              		.loc 1 68 3 is_stmt 1 view .LVU7
  52              		.loc 1 68 23 is_stmt 0 view .LVU8
  53 0012 C360     		str	r3, [r0, #12]
  69:Core/Src/spi.c ****   hspi3.Init.CLKPolarity = SPI_POLARITY_LOW;
  54              		.loc 1 69 3 is_stmt 1 view .LVU9
  55              		.loc 1 69 26 is_stmt 0 view .LVU10
  56 0014 0361     		str	r3, [r0, #16]
  70:Core/Src/spi.c ****   hspi3.Init.CLKPhase = SPI_PHASE_1EDGE;
  57              		.loc 1 70 3 is_stmt 1 view .LVU11
  58              		.loc 1 70 23 is_stmt 0 view .LVU12
  59 0016 4361     		str	r3, [r0, #20]
  71:Core/Src/spi.c ****   hspi3.Init.NSS = SPI_NSS_HARD_OUTPUT;
  60              		.loc 1 71 3 is_stmt 1 view .LVU13
  61              		.loc 1 71 18 is_stmt 0 view .LVU14
  62 0018 4FF48022 		mov	r2, #262144
  63 001c 8261     		str	r2, [r0, #24]
  72:Core/Src/spi.c ****   hspi3.Init.BaudRatePrescaler = SPI_BAUDRATEPRESCALER_2;
  64              		.loc 1 72 3 is_stmt 1 view .LVU15
  65              		.loc 1 72 32 is_stmt 0 view .LVU16
  66 001e C361     		str	r3, [r0, #28]
  73:Core/Src/spi.c ****   hspi3.Init.FirstBit = SPI_FIRSTBIT_MSB;
  67              		.loc 1 73 3 is_stmt 1 view .LVU17
  68              		.loc 1 73 23 is_stmt 0 view .LVU18
  69 0020 0362     		str	r3, [r0, #32]
  74:Core/Src/spi.c ****   hspi3.Init.TIMode = SPI_TIMODE_DISABLE;
  70              		.loc 1 74 3 is_stmt 1 view .LVU19
  71              		.loc 1 74 21 is_stmt 0 view .LVU20
  72 0022 4362     		str	r3, [r0, #36]
  75:Core/Src/spi.c ****   hspi3.Init.CRCCalculation = SPI_CRCCALCULATION_DISABLE;
  73              		.loc 1 75 3 is_stmt 1 view .LVU21
  74              		.loc 1 75 29 is_stmt 0 view .LVU22
  75 0024 8362     		str	r3, [r0, #40]
  76:Core/Src/spi.c ****   hspi3.Init.CRCPolynomial = 10;
  76              		.loc 1 76 3 is_stmt 1 view .LVU23
  77              		.loc 1 76 28 is_stmt 0 view .LVU24
  78 0026 0A23     		movs	r3, #10
  79 0028 C362     		str	r3, [r0, #44]
  77:Core/Src/spi.c ****   if (HAL_SPI_Init(&hspi3) != HAL_OK)
  80              		.loc 1 77 3 is_stmt 1 view .LVU25
  81              		.loc 1 77 7 is_stmt 0 view .LVU26
  82 002a FFF7FEFF 		bl	HAL_SPI_Init
  83              	.LVL0:
  84              		.loc 1 77 6 view .LVU27
  85 002e 00B9     		cbnz	r0, .L4
  86              	.L1:
  78:Core/Src/spi.c ****   {
  79:Core/Src/spi.c ****     Error_Handler();
  80:Core/Src/spi.c ****   }
  81:Core/Src/spi.c ****   /* USER CODE BEGIN SPI3_Init 2 */
  82:Core/Src/spi.c **** 
  83:Core/Src/spi.c ****   /* USER CODE END SPI3_Init 2 */
  84:Core/Src/spi.c **** 
  85:Core/Src/spi.c **** }
  87              		.loc 1 85 1 view .LVU28
ARM GAS  C:\Users\23612\AppData\Local\Temp\cctfb4zR.s 			page 4


  88 0030 08BD     		pop	{r3, pc}
  89              	.L4:
  79:Core/Src/spi.c ****   }
  90              		.loc 1 79 5 is_stmt 1 view .LVU29
  91 0032 FFF7FEFF 		bl	Error_Handler
  92              	.LVL1:
  93              		.loc 1 85 1 is_stmt 0 view .LVU30
  94 0036 FBE7     		b	.L1
  95              	.L6:
  96              		.align	2
  97              	.L5:
  98 0038 00000000 		.word	.LANCHOR0
  99 003c 003C0040 		.word	1073757184
 100              		.cfi_endproc
 101              	.LFE170:
 103              		.section	.text.HAL_SPI_MspInit,"ax",%progbits
 104              		.align	1
 105              		.global	HAL_SPI_MspInit
 106              		.syntax unified
 107              		.thumb
 108              		.thumb_func
 110              	HAL_SPI_MspInit:
 111              	.LVL2:
 112              	.LFB171:
  86:Core/Src/spi.c **** 
  87:Core/Src/spi.c **** void HAL_SPI_MspInit(SPI_HandleTypeDef* spiHandle)
  88:Core/Src/spi.c **** {
 113              		.loc 1 88 1 is_stmt 1 view -0
 114              		.cfi_startproc
 115              		@ args = 0, pretend = 0, frame = 40
 116              		@ frame_needed = 0, uses_anonymous_args = 0
 117              		.loc 1 88 1 is_stmt 0 view .LVU32
 118 0000 2DE9F041 		push	{r4, r5, r6, r7, r8, lr}
 119              	.LCFI1:
 120              		.cfi_def_cfa_offset 24
 121              		.cfi_offset 4, -24
 122              		.cfi_offset 5, -20
 123              		.cfi_offset 6, -16
 124              		.cfi_offset 7, -12
 125              		.cfi_offset 8, -8
 126              		.cfi_offset 14, -4
 127 0004 8AB0     		sub	sp, sp, #40
 128              	.LCFI2:
 129              		.cfi_def_cfa_offset 64
  89:Core/Src/spi.c **** 
  90:Core/Src/spi.c ****   GPIO_InitTypeDef GPIO_InitStruct = {0};
 130              		.loc 1 90 3 is_stmt 1 view .LVU33
 131              		.loc 1 90 20 is_stmt 0 view .LVU34
 132 0006 0023     		movs	r3, #0
 133 0008 0593     		str	r3, [sp, #20]
 134 000a 0693     		str	r3, [sp, #24]
 135 000c 0793     		str	r3, [sp, #28]
 136 000e 0893     		str	r3, [sp, #32]
 137 0010 0993     		str	r3, [sp, #36]
  91:Core/Src/spi.c ****   if(spiHandle->Instance==SPI3)
 138              		.loc 1 91 3 is_stmt 1 view .LVU35
 139              		.loc 1 91 15 is_stmt 0 view .LVU36
ARM GAS  C:\Users\23612\AppData\Local\Temp\cctfb4zR.s 			page 5


 140 0012 0268     		ldr	r2, [r0]
 141              		.loc 1 91 5 view .LVU37
 142 0014 434B     		ldr	r3, .L13
 143 0016 9A42     		cmp	r2, r3
 144 0018 02D0     		beq	.L11
 145              	.LVL3:
 146              	.L7:
  92:Core/Src/spi.c ****   {
  93:Core/Src/spi.c ****   /* USER CODE BEGIN SPI3_MspInit 0 */
  94:Core/Src/spi.c ****     GPIO_LDC_Backlight_CLK_ENABLE;   // ‰ΩøËÉΩ ËÉåÂÖâ        ÂºïËÑöÊó∂Èíü
  95:Core/Src/spi.c ****     GPIO_LDC_DC_CLK_ENABLE;          // ‰ΩøËÉΩ Êï∞ÊçÆÊåá‰ª§ÈÄâÊã© ÂºïËÑöÊó∂Èíü
  96:Core/Src/spi.c ****   /* USER CODE END SPI3_MspInit 0 */
  97:Core/Src/spi.c ****     /* SPI3 clock enable */
  98:Core/Src/spi.c ****     __HAL_RCC_SPI3_CLK_ENABLE();
  99:Core/Src/spi.c **** 
 100:Core/Src/spi.c ****     __HAL_RCC_GPIOA_CLK_ENABLE();
 101:Core/Src/spi.c ****     __HAL_RCC_GPIOC_CLK_ENABLE();
 102:Core/Src/spi.c ****     /**SPI3 GPIO Configuration
 103:Core/Src/spi.c ****     PA4     ------> SPI3_NSS
 104:Core/Src/spi.c ****     PC10     ------> SPI3_SCK
 105:Core/Src/spi.c ****     PC12     ------> SPI3_MOSI
 106:Core/Src/spi.c ****     */
 107:Core/Src/spi.c ****     GPIO_InitStruct.Pin = SPI3_CS_Pin;
 108:Core/Src/spi.c ****     GPIO_InitStruct.Mode = GPIO_MODE_AF_PP;
 109:Core/Src/spi.c ****     GPIO_InitStruct.Pull = GPIO_NOPULL;
 110:Core/Src/spi.c ****     GPIO_InitStruct.Speed = GPIO_SPEED_FREQ_VERY_HIGH;
 111:Core/Src/spi.c ****     GPIO_InitStruct.Alternate = GPIO_AF6_SPI3;
 112:Core/Src/spi.c ****     HAL_GPIO_Init(SPI3_CS_GPIO_Port, &GPIO_InitStruct);
 113:Core/Src/spi.c **** 
 114:Core/Src/spi.c ****     GPIO_InitStruct.Pin = SPI3_SCL_Pin|SPI3_SDA_Pin;
 115:Core/Src/spi.c ****     GPIO_InitStruct.Mode = GPIO_MODE_AF_PP;
 116:Core/Src/spi.c ****     GPIO_InitStruct.Pull = GPIO_NOPULL;
 117:Core/Src/spi.c ****     GPIO_InitStruct.Speed = GPIO_SPEED_FREQ_VERY_HIGH;
 118:Core/Src/spi.c ****     GPIO_InitStruct.Alternate = GPIO_AF6_SPI3;
 119:Core/Src/spi.c ****     HAL_GPIO_Init(GPIOC, &GPIO_InitStruct);
 120:Core/Src/spi.c **** 
 121:Core/Src/spi.c ****     /* SPI3 DMA Init */
 122:Core/Src/spi.c ****     /* SPI3_TX Init */
 123:Core/Src/spi.c ****     hdma_spi3_tx.Instance = DMA1_Stream5;
 124:Core/Src/spi.c ****     hdma_spi3_tx.Init.Channel = DMA_CHANNEL_0;
 125:Core/Src/spi.c ****     hdma_spi3_tx.Init.Direction = DMA_MEMORY_TO_PERIPH;
 126:Core/Src/spi.c ****     hdma_spi3_tx.Init.PeriphInc = DMA_PINC_DISABLE;
 127:Core/Src/spi.c ****     hdma_spi3_tx.Init.MemInc = DMA_MINC_ENABLE;
 128:Core/Src/spi.c ****     hdma_spi3_tx.Init.PeriphDataAlignment = DMA_PDATAALIGN_BYTE;
 129:Core/Src/spi.c ****     hdma_spi3_tx.Init.MemDataAlignment = DMA_MDATAALIGN_BYTE;
 130:Core/Src/spi.c ****     hdma_spi3_tx.Init.Mode = DMA_NORMAL;
 131:Core/Src/spi.c ****     hdma_spi3_tx.Init.Priority = DMA_PRIORITY_MEDIUM;
 132:Core/Src/spi.c ****     hdma_spi3_tx.Init.FIFOMode = DMA_FIFOMODE_DISABLE;
 133:Core/Src/spi.c ****     if (HAL_DMA_Init(&hdma_spi3_tx) != HAL_OK)
 134:Core/Src/spi.c ****     {
 135:Core/Src/spi.c ****       Error_Handler();
 136:Core/Src/spi.c ****     }
 137:Core/Src/spi.c **** 
 138:Core/Src/spi.c ****     __HAL_LINKDMA(spiHandle,hdmatx,hdma_spi3_tx);
 139:Core/Src/spi.c **** 
 140:Core/Src/spi.c ****   /* USER CODE BEGIN SPI3_MspInit 1 */
 141:Core/Src/spi.c ****     // ÂàùÂßãÂå? ËÉåÂÖâ ÂºïËÑö  
ARM GAS  C:\Users\23612\AppData\Local\Temp\cctfb4zR.s 			page 6


 142:Core/Src/spi.c **** 		GPIO_InitStruct.Pin 		= LCD_Backlight_PIN;				// ËÉåÂÖâ ÂºïËÑö
 143:Core/Src/spi.c **** 		GPIO_InitStruct.Mode 	= GPIO_MODE_OUTPUT_PP;			// Êé®ÊåΩËæìÂá∫Ê®°Âºè
 144:Core/Src/spi.c **** 		GPIO_InitStruct.Pull 	= GPIO_PULLDOWN;					// ‰∏ãÊãâÔºåÈªòËÆ§‰øùÊåÅ‰ΩéÁîµÂπ≥
 145:Core/Src/spi.c **** 		GPIO_InitStruct.Speed 	= GPIO_SPEED_FREQ_LOW;			// ÈÄüÂ∫¶Á≠âÁ∫ß‰Ω?
 146:Core/Src/spi.c **** 		HAL_GPIO_Init(LCD_Backlight_PORT, &GPIO_InitStruct);	// ÂàùÂßãÂå?  
 147:Core/Src/spi.c **** 
 148:Core/Src/spi.c ****     // ÂàùÂßãÂå? Êï∞ÊçÆÊåá‰ª§ÈÄâÊã© ÂºïËÑö  
 149:Core/Src/spi.c **** 		GPIO_InitStruct.Pin 		= LCD_DC_PIN;				      // Êï∞ÊçÆÊåá‰ª§ÈÄâÊã© ÂºïËÑö
 150:Core/Src/spi.c **** 		GPIO_InitStruct.Mode 	= GPIO_MODE_OUTPUT_PP;			// Êé®ÊåΩËæìÂá∫Ê®°Âºè
 151:Core/Src/spi.c **** 		GPIO_InitStruct.Pull 	= GPIO_NOPULL;						// Êó†‰∏ä‰∏ãÊãâ
 152:Core/Src/spi.c **** 		GPIO_InitStruct.Speed 	= GPIO_SPEED_FREQ_LOW;			// ÈÄüÂ∫¶Á≠âÁ∫ß‰Ω?
 153:Core/Src/spi.c **** 		HAL_GPIO_Init(LCD_DC_PORT, &GPIO_InitStruct);	      // ÂàùÂßãÂå? 
 154:Core/Src/spi.c ****   /* USER CODE END SPI3_MspInit 1 */
 155:Core/Src/spi.c ****   }
 156:Core/Src/spi.c **** }
 147              		.loc 1 156 1 view .LVU38
 148 001a 0AB0     		add	sp, sp, #40
 149              	.LCFI3:
 150              		.cfi_remember_state
 151              		.cfi_def_cfa_offset 24
 152              		@ sp needed
 153 001c BDE8F081 		pop	{r4, r5, r6, r7, r8, pc}
 154              	.LVL4:
 155              	.L11:
 156              	.LCFI4:
 157              		.cfi_restore_state
 158              		.loc 1 156 1 view .LVU39
 159 0020 0446     		mov	r4, r0
  94:Core/Src/spi.c ****     GPIO_LDC_DC_CLK_ENABLE;          // ‰ΩøËÉΩ Êï∞ÊçÆÊåá‰ª§ÈÄâÊã© ÂºïËÑöÊó∂Èíü
 160              		.loc 1 94 5 is_stmt 1 view .LVU40
 161              	.LBB2:
  94:Core/Src/spi.c ****     GPIO_LDC_DC_CLK_ENABLE;          // ‰ΩøËÉΩ Êï∞ÊçÆÊåá‰ª§ÈÄâÊã© ÂºïËÑöÊó∂Èíü
 162              		.loc 1 94 5 view .LVU41
 163 0022 0025     		movs	r5, #0
 164 0024 0095     		str	r5, [sp]
  94:Core/Src/spi.c ****     GPIO_LDC_DC_CLK_ENABLE;          // ‰ΩøËÉΩ Êï∞ÊçÆÊåá‰ª§ÈÄâÊã© ÂºïËÑöÊó∂Èíü
 165              		.loc 1 94 5 view .LVU42
 166 0026 03F5FE33 		add	r3, r3, #130048
 167 002a 1A6B     		ldr	r2, [r3, #48]
 168 002c 42F01002 		orr	r2, r2, #16
 169 0030 1A63     		str	r2, [r3, #48]
  94:Core/Src/spi.c ****     GPIO_LDC_DC_CLK_ENABLE;          // ‰ΩøËÉΩ Êï∞ÊçÆÊåá‰ª§ÈÄâÊã© ÂºïËÑöÊó∂Èíü
 170              		.loc 1 94 5 view .LVU43
 171 0032 1A6B     		ldr	r2, [r3, #48]
 172 0034 02F01002 		and	r2, r2, #16
 173 0038 0092     		str	r2, [sp]
  94:Core/Src/spi.c ****     GPIO_LDC_DC_CLK_ENABLE;          // ‰ΩøËÉΩ Êï∞ÊçÆÊåá‰ª§ÈÄâÊã© ÂºïËÑöÊó∂Èíü
 174              		.loc 1 94 5 view .LVU44
 175 003a 009A     		ldr	r2, [sp]
 176              	.LBE2:
  94:Core/Src/spi.c ****     GPIO_LDC_DC_CLK_ENABLE;          // ‰ΩøËÉΩ Êï∞ÊçÆÊåá‰ª§ÈÄâÊã© ÂºïËÑöÊó∂Èíü
 177              		.loc 1 94 5 view .LVU45
  95:Core/Src/spi.c ****   /* USER CODE END SPI3_MspInit 0 */
 178              		.loc 1 95 5 view .LVU46
 179              	.LBB3:
  95:Core/Src/spi.c ****   /* USER CODE END SPI3_MspInit 0 */
 180              		.loc 1 95 5 view .LVU47
ARM GAS  C:\Users\23612\AppData\Local\Temp\cctfb4zR.s 			page 7


 181 003c 0195     		str	r5, [sp, #4]
  95:Core/Src/spi.c ****   /* USER CODE END SPI3_MspInit 0 */
 182              		.loc 1 95 5 view .LVU48
 183 003e 1A6B     		ldr	r2, [r3, #48]
 184 0040 42F01002 		orr	r2, r2, #16
 185 0044 1A63     		str	r2, [r3, #48]
  95:Core/Src/spi.c ****   /* USER CODE END SPI3_MspInit 0 */
 186              		.loc 1 95 5 view .LVU49
 187 0046 1A6B     		ldr	r2, [r3, #48]
 188 0048 02F01002 		and	r2, r2, #16
 189 004c 0192     		str	r2, [sp, #4]
  95:Core/Src/spi.c ****   /* USER CODE END SPI3_MspInit 0 */
 190              		.loc 1 95 5 view .LVU50
 191 004e 019A     		ldr	r2, [sp, #4]
 192              	.LBE3:
  95:Core/Src/spi.c ****   /* USER CODE END SPI3_MspInit 0 */
 193              		.loc 1 95 5 view .LVU51
  98:Core/Src/spi.c **** 
 194              		.loc 1 98 5 view .LVU52
 195              	.LBB4:
  98:Core/Src/spi.c **** 
 196              		.loc 1 98 5 view .LVU53
 197 0050 0295     		str	r5, [sp, #8]
  98:Core/Src/spi.c **** 
 198              		.loc 1 98 5 view .LVU54
 199 0052 1A6C     		ldr	r2, [r3, #64]
 200 0054 42F40042 		orr	r2, r2, #32768
 201 0058 1A64     		str	r2, [r3, #64]
  98:Core/Src/spi.c **** 
 202              		.loc 1 98 5 view .LVU55
 203 005a 1A6C     		ldr	r2, [r3, #64]
 204 005c 02F40042 		and	r2, r2, #32768
 205 0060 0292     		str	r2, [sp, #8]
  98:Core/Src/spi.c **** 
 206              		.loc 1 98 5 view .LVU56
 207 0062 029A     		ldr	r2, [sp, #8]
 208              	.LBE4:
  98:Core/Src/spi.c **** 
 209              		.loc 1 98 5 view .LVU57
 100:Core/Src/spi.c ****     __HAL_RCC_GPIOC_CLK_ENABLE();
 210              		.loc 1 100 5 view .LVU58
 211              	.LBB5:
 100:Core/Src/spi.c ****     __HAL_RCC_GPIOC_CLK_ENABLE();
 212              		.loc 1 100 5 view .LVU59
 213 0064 0395     		str	r5, [sp, #12]
 100:Core/Src/spi.c ****     __HAL_RCC_GPIOC_CLK_ENABLE();
 214              		.loc 1 100 5 view .LVU60
 215 0066 1A6B     		ldr	r2, [r3, #48]
 216 0068 42F00102 		orr	r2, r2, #1
 217 006c 1A63     		str	r2, [r3, #48]
 100:Core/Src/spi.c ****     __HAL_RCC_GPIOC_CLK_ENABLE();
 218              		.loc 1 100 5 view .LVU61
 219 006e 1A6B     		ldr	r2, [r3, #48]
 220 0070 02F00102 		and	r2, r2, #1
 221 0074 0392     		str	r2, [sp, #12]
 100:Core/Src/spi.c ****     __HAL_RCC_GPIOC_CLK_ENABLE();
 222              		.loc 1 100 5 view .LVU62
ARM GAS  C:\Users\23612\AppData\Local\Temp\cctfb4zR.s 			page 8


 223 0076 039A     		ldr	r2, [sp, #12]
 224              	.LBE5:
 100:Core/Src/spi.c ****     __HAL_RCC_GPIOC_CLK_ENABLE();
 225              		.loc 1 100 5 view .LVU63
 101:Core/Src/spi.c ****     /**SPI3 GPIO Configuration
 226              		.loc 1 101 5 view .LVU64
 227              	.LBB6:
 101:Core/Src/spi.c ****     /**SPI3 GPIO Configuration
 228              		.loc 1 101 5 view .LVU65
 229 0078 0495     		str	r5, [sp, #16]
 101:Core/Src/spi.c ****     /**SPI3 GPIO Configuration
 230              		.loc 1 101 5 view .LVU66
 231 007a 1A6B     		ldr	r2, [r3, #48]
 232 007c 42F00402 		orr	r2, r2, #4
 233 0080 1A63     		str	r2, [r3, #48]
 101:Core/Src/spi.c ****     /**SPI3 GPIO Configuration
 234              		.loc 1 101 5 view .LVU67
 235 0082 1B6B     		ldr	r3, [r3, #48]
 236 0084 03F00403 		and	r3, r3, #4
 237 0088 0493     		str	r3, [sp, #16]
 101:Core/Src/spi.c ****     /**SPI3 GPIO Configuration
 238              		.loc 1 101 5 view .LVU68
 239 008a 049B     		ldr	r3, [sp, #16]
 240              	.LBE6:
 101:Core/Src/spi.c ****     /**SPI3 GPIO Configuration
 241              		.loc 1 101 5 view .LVU69
 107:Core/Src/spi.c ****     GPIO_InitStruct.Mode = GPIO_MODE_AF_PP;
 242              		.loc 1 107 5 view .LVU70
 107:Core/Src/spi.c ****     GPIO_InitStruct.Mode = GPIO_MODE_AF_PP;
 243              		.loc 1 107 25 is_stmt 0 view .LVU71
 244 008c 1023     		movs	r3, #16
 245 008e 0593     		str	r3, [sp, #20]
 108:Core/Src/spi.c ****     GPIO_InitStruct.Pull = GPIO_NOPULL;
 246              		.loc 1 108 5 is_stmt 1 view .LVU72
 108:Core/Src/spi.c ****     GPIO_InitStruct.Pull = GPIO_NOPULL;
 247              		.loc 1 108 26 is_stmt 0 view .LVU73
 248 0090 4FF00208 		mov	r8, #2
 249 0094 CDF81880 		str	r8, [sp, #24]
 109:Core/Src/spi.c ****     GPIO_InitStruct.Speed = GPIO_SPEED_FREQ_VERY_HIGH;
 250              		.loc 1 109 5 is_stmt 1 view .LVU74
 110:Core/Src/spi.c ****     GPIO_InitStruct.Alternate = GPIO_AF6_SPI3;
 251              		.loc 1 110 5 view .LVU75
 110:Core/Src/spi.c ****     GPIO_InitStruct.Alternate = GPIO_AF6_SPI3;
 252              		.loc 1 110 27 is_stmt 0 view .LVU76
 253 0098 0327     		movs	r7, #3
 254 009a 0897     		str	r7, [sp, #32]
 111:Core/Src/spi.c ****     HAL_GPIO_Init(SPI3_CS_GPIO_Port, &GPIO_InitStruct);
 255              		.loc 1 111 5 is_stmt 1 view .LVU77
 111:Core/Src/spi.c ****     HAL_GPIO_Init(SPI3_CS_GPIO_Port, &GPIO_InitStruct);
 256              		.loc 1 111 31 is_stmt 0 view .LVU78
 257 009c 0626     		movs	r6, #6
 258 009e 0996     		str	r6, [sp, #36]
 112:Core/Src/spi.c **** 
 259              		.loc 1 112 5 is_stmt 1 view .LVU79
 260 00a0 05A9     		add	r1, sp, #20
 261 00a2 2148     		ldr	r0, .L13+4
 262              	.LVL5:
ARM GAS  C:\Users\23612\AppData\Local\Temp\cctfb4zR.s 			page 9


 112:Core/Src/spi.c **** 
 263              		.loc 1 112 5 is_stmt 0 view .LVU80
 264 00a4 FFF7FEFF 		bl	HAL_GPIO_Init
 265              	.LVL6:
 114:Core/Src/spi.c ****     GPIO_InitStruct.Mode = GPIO_MODE_AF_PP;
 266              		.loc 1 114 5 is_stmt 1 view .LVU81
 114:Core/Src/spi.c ****     GPIO_InitStruct.Mode = GPIO_MODE_AF_PP;
 267              		.loc 1 114 25 is_stmt 0 view .LVU82
 268 00a8 4FF4A053 		mov	r3, #5120
 269 00ac 0593     		str	r3, [sp, #20]
 115:Core/Src/spi.c ****     GPIO_InitStruct.Pull = GPIO_NOPULL;
 270              		.loc 1 115 5 is_stmt 1 view .LVU83
 115:Core/Src/spi.c ****     GPIO_InitStruct.Pull = GPIO_NOPULL;
 271              		.loc 1 115 26 is_stmt 0 view .LVU84
 272 00ae CDF81880 		str	r8, [sp, #24]
 116:Core/Src/spi.c ****     GPIO_InitStruct.Speed = GPIO_SPEED_FREQ_VERY_HIGH;
 273              		.loc 1 116 5 is_stmt 1 view .LVU85
 116:Core/Src/spi.c ****     GPIO_InitStruct.Speed = GPIO_SPEED_FREQ_VERY_HIGH;
 274              		.loc 1 116 26 is_stmt 0 view .LVU86
 275 00b2 0795     		str	r5, [sp, #28]
 117:Core/Src/spi.c ****     GPIO_InitStruct.Alternate = GPIO_AF6_SPI3;
 276              		.loc 1 117 5 is_stmt 1 view .LVU87
 117:Core/Src/spi.c ****     GPIO_InitStruct.Alternate = GPIO_AF6_SPI3;
 277              		.loc 1 117 27 is_stmt 0 view .LVU88
 278 00b4 0897     		str	r7, [sp, #32]
 118:Core/Src/spi.c ****     HAL_GPIO_Init(GPIOC, &GPIO_InitStruct);
 279              		.loc 1 118 5 is_stmt 1 view .LVU89
 118:Core/Src/spi.c ****     HAL_GPIO_Init(GPIOC, &GPIO_InitStruct);
 280              		.loc 1 118 31 is_stmt 0 view .LVU90
 281 00b6 0996     		str	r6, [sp, #36]
 119:Core/Src/spi.c **** 
 282              		.loc 1 119 5 is_stmt 1 view .LVU91
 283 00b8 05A9     		add	r1, sp, #20
 284 00ba 1C48     		ldr	r0, .L13+8
 285 00bc FFF7FEFF 		bl	HAL_GPIO_Init
 286              	.LVL7:
 123:Core/Src/spi.c ****     hdma_spi3_tx.Init.Channel = DMA_CHANNEL_0;
 287              		.loc 1 123 5 view .LVU92
 123:Core/Src/spi.c ****     hdma_spi3_tx.Init.Channel = DMA_CHANNEL_0;
 288              		.loc 1 123 27 is_stmt 0 view .LVU93
 289 00c0 1B48     		ldr	r0, .L13+12
 290 00c2 1C4B     		ldr	r3, .L13+16
 291 00c4 0360     		str	r3, [r0]
 124:Core/Src/spi.c ****     hdma_spi3_tx.Init.Direction = DMA_MEMORY_TO_PERIPH;
 292              		.loc 1 124 5 is_stmt 1 view .LVU94
 124:Core/Src/spi.c ****     hdma_spi3_tx.Init.Direction = DMA_MEMORY_TO_PERIPH;
 293              		.loc 1 124 31 is_stmt 0 view .LVU95
 294 00c6 4560     		str	r5, [r0, #4]
 125:Core/Src/spi.c ****     hdma_spi3_tx.Init.PeriphInc = DMA_PINC_DISABLE;
 295              		.loc 1 125 5 is_stmt 1 view .LVU96
 125:Core/Src/spi.c ****     hdma_spi3_tx.Init.PeriphInc = DMA_PINC_DISABLE;
 296              		.loc 1 125 33 is_stmt 0 view .LVU97
 297 00c8 4023     		movs	r3, #64
 298 00ca 8360     		str	r3, [r0, #8]
 126:Core/Src/spi.c ****     hdma_spi3_tx.Init.MemInc = DMA_MINC_ENABLE;
 299              		.loc 1 126 5 is_stmt 1 view .LVU98
 126:Core/Src/spi.c ****     hdma_spi3_tx.Init.MemInc = DMA_MINC_ENABLE;
ARM GAS  C:\Users\23612\AppData\Local\Temp\cctfb4zR.s 			page 10


 300              		.loc 1 126 33 is_stmt 0 view .LVU99
 301 00cc C560     		str	r5, [r0, #12]
 127:Core/Src/spi.c ****     hdma_spi3_tx.Init.PeriphDataAlignment = DMA_PDATAALIGN_BYTE;
 302              		.loc 1 127 5 is_stmt 1 view .LVU100
 127:Core/Src/spi.c ****     hdma_spi3_tx.Init.PeriphDataAlignment = DMA_PDATAALIGN_BYTE;
 303              		.loc 1 127 30 is_stmt 0 view .LVU101
 304 00ce 4FF48063 		mov	r3, #1024
 305 00d2 0361     		str	r3, [r0, #16]
 128:Core/Src/spi.c ****     hdma_spi3_tx.Init.MemDataAlignment = DMA_MDATAALIGN_BYTE;
 306              		.loc 1 128 5 is_stmt 1 view .LVU102
 128:Core/Src/spi.c ****     hdma_spi3_tx.Init.MemDataAlignment = DMA_MDATAALIGN_BYTE;
 307              		.loc 1 128 43 is_stmt 0 view .LVU103
 308 00d4 4561     		str	r5, [r0, #20]
 129:Core/Src/spi.c ****     hdma_spi3_tx.Init.Mode = DMA_NORMAL;
 309              		.loc 1 129 5 is_stmt 1 view .LVU104
 129:Core/Src/spi.c ****     hdma_spi3_tx.Init.Mode = DMA_NORMAL;
 310              		.loc 1 129 40 is_stmt 0 view .LVU105
 311 00d6 8561     		str	r5, [r0, #24]
 130:Core/Src/spi.c ****     hdma_spi3_tx.Init.Priority = DMA_PRIORITY_MEDIUM;
 312              		.loc 1 130 5 is_stmt 1 view .LVU106
 130:Core/Src/spi.c ****     hdma_spi3_tx.Init.Priority = DMA_PRIORITY_MEDIUM;
 313              		.loc 1 130 28 is_stmt 0 view .LVU107
 314 00d8 C561     		str	r5, [r0, #28]
 131:Core/Src/spi.c ****     hdma_spi3_tx.Init.FIFOMode = DMA_FIFOMODE_DISABLE;
 315              		.loc 1 131 5 is_stmt 1 view .LVU108
 131:Core/Src/spi.c ****     hdma_spi3_tx.Init.FIFOMode = DMA_FIFOMODE_DISABLE;
 316              		.loc 1 131 32 is_stmt 0 view .LVU109
 317 00da 4FF48033 		mov	r3, #65536
 318 00de 0362     		str	r3, [r0, #32]
 132:Core/Src/spi.c ****     if (HAL_DMA_Init(&hdma_spi3_tx) != HAL_OK)
 319              		.loc 1 132 5 is_stmt 1 view .LVU110
 132:Core/Src/spi.c ****     if (HAL_DMA_Init(&hdma_spi3_tx) != HAL_OK)
 320              		.loc 1 132 32 is_stmt 0 view .LVU111
 321 00e0 4562     		str	r5, [r0, #36]
 133:Core/Src/spi.c ****     {
 322              		.loc 1 133 5 is_stmt 1 view .LVU112
 133:Core/Src/spi.c ****     {
 323              		.loc 1 133 9 is_stmt 0 view .LVU113
 324 00e2 FFF7FEFF 		bl	HAL_DMA_Init
 325              	.LVL8:
 133:Core/Src/spi.c ****     {
 326              		.loc 1 133 8 view .LVU114
 327 00e6 C8B9     		cbnz	r0, .L12
 328              	.L9:
 138:Core/Src/spi.c **** 
 329              		.loc 1 138 5 is_stmt 1 view .LVU115
 138:Core/Src/spi.c **** 
 330              		.loc 1 138 5 view .LVU116
 331 00e8 114B     		ldr	r3, .L13+12
 332 00ea A364     		str	r3, [r4, #72]
 138:Core/Src/spi.c **** 
 333              		.loc 1 138 5 view .LVU117
 334 00ec 9C63     		str	r4, [r3, #56]
 138:Core/Src/spi.c **** 
 335              		.loc 1 138 5 view .LVU118
 142:Core/Src/spi.c **** 		GPIO_InitStruct.Mode 	= GPIO_MODE_OUTPUT_PP;			// Êé®ÊåΩËæìÂá∫Ê®°Âºè
 336              		.loc 1 142 3 view .LVU119
ARM GAS  C:\Users\23612\AppData\Local\Temp\cctfb4zR.s 			page 11


 142:Core/Src/spi.c **** 		GPIO_InitStruct.Mode 	= GPIO_MODE_OUTPUT_PP;			// Êé®ÊåΩËæìÂá∫Ê®°Âºè
 337              		.loc 1 142 25 is_stmt 0 view .LVU120
 338 00ee 0823     		movs	r3, #8
 339 00f0 0593     		str	r3, [sp, #20]
 143:Core/Src/spi.c **** 		GPIO_InitStruct.Pull 	= GPIO_PULLDOWN;					// ‰∏ãÊãâÔºåÈªòËÆ§‰øùÊåÅ‰ΩéÁîµÂπ≥
 340              		.loc 1 143 3 is_stmt 1 view .LVU121
 143:Core/Src/spi.c **** 		GPIO_InitStruct.Pull 	= GPIO_PULLDOWN;					// ‰∏ãÊãâÔºåÈªòËÆ§‰øùÊåÅ‰ΩéÁîµÂπ≥
 341              		.loc 1 143 25 is_stmt 0 view .LVU122
 342 00f2 0126     		movs	r6, #1
 343 00f4 0696     		str	r6, [sp, #24]
 144:Core/Src/spi.c **** 		GPIO_InitStruct.Speed 	= GPIO_SPEED_FREQ_LOW;			// ÈÄüÂ∫¶Á≠âÁ∫ß‰Ω?
 344              		.loc 1 144 3 is_stmt 1 view .LVU123
 144:Core/Src/spi.c **** 		GPIO_InitStruct.Speed 	= GPIO_SPEED_FREQ_LOW;			// ÈÄüÂ∫¶Á≠âÁ∫ß‰Ω?
 345              		.loc 1 144 25 is_stmt 0 view .LVU124
 346 00f6 0223     		movs	r3, #2
 347 00f8 0793     		str	r3, [sp, #28]
 145:Core/Src/spi.c **** 		HAL_GPIO_Init(LCD_Backlight_PORT, &GPIO_InitStruct);	// ÂàùÂßãÂå?  
 348              		.loc 1 145 3 is_stmt 1 view .LVU125
 145:Core/Src/spi.c **** 		HAL_GPIO_Init(LCD_Backlight_PORT, &GPIO_InitStruct);	// ÂàùÂßãÂå?  
 349              		.loc 1 145 26 is_stmt 0 view .LVU126
 350 00fa 0024     		movs	r4, #0
 351              	.LVL9:
 145:Core/Src/spi.c **** 		HAL_GPIO_Init(LCD_Backlight_PORT, &GPIO_InitStruct);	// ÂàùÂßãÂå?  
 352              		.loc 1 145 26 view .LVU127
 353 00fc 0894     		str	r4, [sp, #32]
 146:Core/Src/spi.c **** 
 354              		.loc 1 146 3 is_stmt 1 view .LVU128
 355 00fe 0E4D     		ldr	r5, .L13+20
 356 0100 05A9     		add	r1, sp, #20
 357 0102 2846     		mov	r0, r5
 358 0104 FFF7FEFF 		bl	HAL_GPIO_Init
 359              	.LVL10:
 149:Core/Src/spi.c **** 		GPIO_InitStruct.Mode 	= GPIO_MODE_OUTPUT_PP;			// Êé®ÊåΩËæìÂá∫Ê®°Âºè
 360              		.loc 1 149 3 view .LVU129
 149:Core/Src/spi.c **** 		GPIO_InitStruct.Mode 	= GPIO_MODE_OUTPUT_PP;			// Êé®ÊåΩËæìÂá∫Ê®°Âºè
 361              		.loc 1 149 25 is_stmt 0 view .LVU130
 362 0108 1023     		movs	r3, #16
 363 010a 0593     		str	r3, [sp, #20]
 150:Core/Src/spi.c **** 		GPIO_InitStruct.Pull 	= GPIO_NOPULL;						// Êó†‰∏ä‰∏ãÊãâ
 364              		.loc 1 150 3 is_stmt 1 view .LVU131
 150:Core/Src/spi.c **** 		GPIO_InitStruct.Pull 	= GPIO_NOPULL;						// Êó†‰∏ä‰∏ãÊãâ
 365              		.loc 1 150 25 is_stmt 0 view .LVU132
 366 010c 0696     		str	r6, [sp, #24]
 151:Core/Src/spi.c **** 		GPIO_InitStruct.Speed 	= GPIO_SPEED_FREQ_LOW;			// ÈÄüÂ∫¶Á≠âÁ∫ß‰Ω?
 367              		.loc 1 151 3 is_stmt 1 view .LVU133
 151:Core/Src/spi.c **** 		GPIO_InitStruct.Speed 	= GPIO_SPEED_FREQ_LOW;			// ÈÄüÂ∫¶Á≠âÁ∫ß‰Ω?
 368              		.loc 1 151 25 is_stmt 0 view .LVU134
 369 010e 0794     		str	r4, [sp, #28]
 152:Core/Src/spi.c **** 		HAL_GPIO_Init(LCD_DC_PORT, &GPIO_InitStruct);	      // ÂàùÂßãÂå? 
 370              		.loc 1 152 3 is_stmt 1 view .LVU135
 152:Core/Src/spi.c **** 		HAL_GPIO_Init(LCD_DC_PORT, &GPIO_InitStruct);	      // ÂàùÂßãÂå? 
 371              		.loc 1 152 26 is_stmt 0 view .LVU136
 372 0110 0894     		str	r4, [sp, #32]
 153:Core/Src/spi.c ****   /* USER CODE END SPI3_MspInit 1 */
 373              		.loc 1 153 3 is_stmt 1 view .LVU137
 374 0112 05A9     		add	r1, sp, #20
 375 0114 2846     		mov	r0, r5
ARM GAS  C:\Users\23612\AppData\Local\Temp\cctfb4zR.s 			page 12


 376 0116 FFF7FEFF 		bl	HAL_GPIO_Init
 377              	.LVL11:
 378              		.loc 1 156 1 is_stmt 0 view .LVU138
 379 011a 7EE7     		b	.L7
 380              	.LVL12:
 381              	.L12:
 135:Core/Src/spi.c ****     }
 382              		.loc 1 135 7 is_stmt 1 view .LVU139
 383 011c FFF7FEFF 		bl	Error_Handler
 384              	.LVL13:
 385 0120 E2E7     		b	.L9
 386              	.L14:
 387 0122 00BF     		.align	2
 388              	.L13:
 389 0124 003C0040 		.word	1073757184
 390 0128 00000240 		.word	1073872896
 391 012c 00080240 		.word	1073874944
 392 0130 00000000 		.word	.LANCHOR1
 393 0134 88600240 		.word	1073897608
 394 0138 00100240 		.word	1073876992
 395              		.cfi_endproc
 396              	.LFE171:
 398              		.section	.text.HAL_SPI_MspDeInit,"ax",%progbits
 399              		.align	1
 400              		.global	HAL_SPI_MspDeInit
 401              		.syntax unified
 402              		.thumb
 403              		.thumb_func
 405              	HAL_SPI_MspDeInit:
 406              	.LVL14:
 407              	.LFB172:
 157:Core/Src/spi.c **** 
 158:Core/Src/spi.c **** void HAL_SPI_MspDeInit(SPI_HandleTypeDef* spiHandle)
 159:Core/Src/spi.c **** {
 408              		.loc 1 159 1 view -0
 409              		.cfi_startproc
 410              		@ args = 0, pretend = 0, frame = 0
 411              		@ frame_needed = 0, uses_anonymous_args = 0
 160:Core/Src/spi.c **** 
 161:Core/Src/spi.c ****   if(spiHandle->Instance==SPI3)
 412              		.loc 1 161 3 view .LVU141
 413              		.loc 1 161 15 is_stmt 0 view .LVU142
 414 0000 0268     		ldr	r2, [r0]
 415              		.loc 1 161 5 view .LVU143
 416 0002 0C4B     		ldr	r3, .L22
 417 0004 9A42     		cmp	r2, r3
 418 0006 00D0     		beq	.L21
 419 0008 7047     		bx	lr
 420              	.L21:
 159:Core/Src/spi.c **** 
 421              		.loc 1 159 1 view .LVU144
 422 000a 10B5     		push	{r4, lr}
 423              	.LCFI5:
 424              		.cfi_def_cfa_offset 8
 425              		.cfi_offset 4, -8
 426              		.cfi_offset 14, -4
 427 000c 0446     		mov	r4, r0
ARM GAS  C:\Users\23612\AppData\Local\Temp\cctfb4zR.s 			page 13


 162:Core/Src/spi.c ****   {
 163:Core/Src/spi.c ****   /* USER CODE BEGIN SPI3_MspDeInit 0 */
 164:Core/Src/spi.c **** 
 165:Core/Src/spi.c ****   /* USER CODE END SPI3_MspDeInit 0 */
 166:Core/Src/spi.c ****     /* Peripheral clock disable */
 167:Core/Src/spi.c ****     __HAL_RCC_SPI3_CLK_DISABLE();
 428              		.loc 1 167 5 is_stmt 1 view .LVU145
 429 000e 0A4A     		ldr	r2, .L22+4
 430 0010 136C     		ldr	r3, [r2, #64]
 431 0012 23F40043 		bic	r3, r3, #32768
 432 0016 1364     		str	r3, [r2, #64]
 168:Core/Src/spi.c **** 
 169:Core/Src/spi.c ****     /**SPI3 GPIO Configuration
 170:Core/Src/spi.c ****     PA4     ------> SPI3_NSS
 171:Core/Src/spi.c ****     PC10     ------> SPI3_SCK
 172:Core/Src/spi.c ****     PC12     ------> SPI3_MOSI
 173:Core/Src/spi.c ****     */
 174:Core/Src/spi.c ****     HAL_GPIO_DeInit(SPI3_CS_GPIO_Port, SPI3_CS_Pin);
 433              		.loc 1 174 5 view .LVU146
 434 0018 1021     		movs	r1, #16
 435 001a 0848     		ldr	r0, .L22+8
 436              	.LVL15:
 437              		.loc 1 174 5 is_stmt 0 view .LVU147
 438 001c FFF7FEFF 		bl	HAL_GPIO_DeInit
 439              	.LVL16:
 175:Core/Src/spi.c **** 
 176:Core/Src/spi.c ****     HAL_GPIO_DeInit(GPIOC, SPI3_SCL_Pin|SPI3_SDA_Pin);
 440              		.loc 1 176 5 is_stmt 1 view .LVU148
 441 0020 4FF4A051 		mov	r1, #5120
 442 0024 0648     		ldr	r0, .L22+12
 443 0026 FFF7FEFF 		bl	HAL_GPIO_DeInit
 444              	.LVL17:
 177:Core/Src/spi.c **** 
 178:Core/Src/spi.c ****     /* SPI3 DMA DeInit */
 179:Core/Src/spi.c ****     HAL_DMA_DeInit(spiHandle->hdmatx);
 445              		.loc 1 179 5 view .LVU149
 446 002a A06C     		ldr	r0, [r4, #72]
 447 002c FFF7FEFF 		bl	HAL_DMA_DeInit
 448              	.LVL18:
 180:Core/Src/spi.c ****   /* USER CODE BEGIN SPI3_MspDeInit 1 */
 181:Core/Src/spi.c **** 
 182:Core/Src/spi.c ****   /* USER CODE END SPI3_MspDeInit 1 */
 183:Core/Src/spi.c ****   }
 184:Core/Src/spi.c **** }
 449              		.loc 1 184 1 is_stmt 0 view .LVU150
 450 0030 10BD     		pop	{r4, pc}
 451              	.LVL19:
 452              	.L23:
 453              		.loc 1 184 1 view .LVU151
 454 0032 00BF     		.align	2
 455              	.L22:
 456 0034 003C0040 		.word	1073757184
 457 0038 00380240 		.word	1073887232
 458 003c 00000240 		.word	1073872896
 459 0040 00080240 		.word	1073874944
 460              		.cfi_endproc
 461              	.LFE172:
ARM GAS  C:\Users\23612\AppData\Local\Temp\cctfb4zR.s 			page 14


 463              		.section	.text.LCD_WriteCommand,"ax",%progbits
 464              		.align	1
 465              		.global	LCD_WriteCommand
 466              		.syntax unified
 467              		.thumb
 468              		.thumb_func
 470              	LCD_WriteCommand:
 471              	.LVL20:
 472              	.LFB173:
 185:Core/Src/spi.c **** 
 186:Core/Src/spi.c **** /* USER CODE BEGIN 1 */
 187:Core/Src/spi.c **** /*****************************************************************************************
 188:Core/Src/spi.c **** *	Âá? Êï? Âê?: LCD_WriteCMD
 189:Core/Src/spi.c **** *	ÂÖ•Âè£ÂèÇÊï∞: CMD - Èú?Ë¶ÅÂÜôÂÖ•ÁöÑÊéßÂà∂Êåá‰ª§
 190:Core/Src/spi.c **** *	Ëø? Âõ? ÂÄ?: Êó?
 191:Core/Src/spi.c **** *	ÂáΩÊï∞ÂäüËÉΩ: Áî®‰∫éÂÜôÂÖ•ÊéßÂà∂Â≠?
 192:Core/Src/spi.c **** *	ËØ?    Êò?: Êó?
 193:Core/Src/spi.c **** ******************************************************************************************/
 194:Core/Src/spi.c **** void  LCD_WriteCommand(uint8_t lcd_command)
 195:Core/Src/spi.c **** {
 473              		.loc 1 195 1 is_stmt 1 view -0
 474              		.cfi_startproc
 475              		@ args = 0, pretend = 0, frame = 8
 476              		@ frame_needed = 0, uses_anonymous_args = 0
 477              		.loc 1 195 1 is_stmt 0 view .LVU153
 478 0000 00B5     		push	{lr}
 479              	.LCFI6:
 480              		.cfi_def_cfa_offset 4
 481              		.cfi_offset 14, -4
 482 0002 83B0     		sub	sp, sp, #12
 483              	.LCFI7:
 484              		.cfi_def_cfa_offset 16
 485 0004 8DF80700 		strb	r0, [sp, #7]
 196:Core/Src/spi.c ****    LCD_DC_Command;     // Êï∞ÊçÆÊåá‰ª§ÈÄâÊã© ÂºïËÑöËæìÂá∫‰ΩéÁîµÂπ≥Ôºå‰ª£Ë°®Êú¨Ê¨°‰º†Ëæì Êåá‰ª§
 486              		.loc 1 196 4 is_stmt 1 view .LVU154
 487 0008 0022     		movs	r2, #0
 488 000a 1021     		movs	r1, #16
 489 000c 0648     		ldr	r0, .L26
 490              	.LVL21:
 491              		.loc 1 196 4 is_stmt 0 view .LVU155
 492 000e FFF7FEFF 		bl	HAL_GPIO_WritePin
 493              	.LVL22:
 494              		.loc 1 196 18 is_stmt 1 view .LVU156
 197:Core/Src/spi.c **** 
 198:Core/Src/spi.c ****    HAL_SPI_Transmit(&LCD_SPI, &lcd_command, 1, 1000) ;
 495              		.loc 1 198 4 view .LVU157
 496 0012 4FF47A73 		mov	r3, #1000
 497 0016 0122     		movs	r2, #1
 498 0018 0DF10701 		add	r1, sp, #7
 499 001c 0348     		ldr	r0, .L26+4
 500 001e FFF7FEFF 		bl	HAL_SPI_Transmit
 501              	.LVL23:
 199:Core/Src/spi.c **** }
 502              		.loc 1 199 1 is_stmt 0 view .LVU158
 503 0022 03B0     		add	sp, sp, #12
 504              	.LCFI8:
 505              		.cfi_def_cfa_offset 4
ARM GAS  C:\Users\23612\AppData\Local\Temp\cctfb4zR.s 			page 15


 506              		@ sp needed
 507 0024 5DF804FB 		ldr	pc, [sp], #4
 508              	.L27:
 509              		.align	2
 510              	.L26:
 511 0028 00100240 		.word	1073876992
 512 002c 00000000 		.word	.LANCHOR0
 513              		.cfi_endproc
 514              	.LFE173:
 516              		.section	.text.LCD_WriteData_8bit,"ax",%progbits
 517              		.align	1
 518              		.global	LCD_WriteData_8bit
 519              		.syntax unified
 520              		.thumb
 521              		.thumb_func
 523              	LCD_WriteData_8bit:
 524              	.LVL24:
 525              	.LFB174:
 200:Core/Src/spi.c **** 
 201:Core/Src/spi.c **** /**************************************************************************************************
 202:Core/Src/spi.c **** *	Âá? Êï? Âê?: LCD_WriteData_8bit
 203:Core/Src/spi.c **** *
 204:Core/Src/spi.c **** *	ÂÖ•Âè£ÂèÇÊï∞: lcd_data - Èú?Ë¶ÅÂÜôÂÖ•ÁöÑÊï∞ÊçÆÔº?8‰Ω?
 205:Core/Src/spi.c **** *
 206:Core/Src/spi.c **** *	ÂáΩÊï∞ÂäüËÉΩ: ÂÜôÂÖ•8‰ΩçÊï∞Êç?
 207:Core/Src/spi.c **** *	
 208:Core/Src/spi.c **** ***************************************************************************************************
 209:Core/Src/spi.c **** void  LCD_WriteData_8bit(uint8_t lcd_data)
 210:Core/Src/spi.c **** {
 526              		.loc 1 210 1 is_stmt 1 view -0
 527              		.cfi_startproc
 528              		@ args = 0, pretend = 0, frame = 8
 529              		@ frame_needed = 0, uses_anonymous_args = 0
 530              		.loc 1 210 1 is_stmt 0 view .LVU160
 531 0000 00B5     		push	{lr}
 532              	.LCFI9:
 533              		.cfi_def_cfa_offset 4
 534              		.cfi_offset 14, -4
 535 0002 83B0     		sub	sp, sp, #12
 536              	.LCFI10:
 537              		.cfi_def_cfa_offset 16
 538 0004 8DF80700 		strb	r0, [sp, #7]
 211:Core/Src/spi.c ****    LCD_DC_Data;     // Êï∞ÊçÆÊåá‰ª§ÈÄâÊã© ÂºïËÑöËæìÂá∫È´òÁîµÂπ≥Ôºå‰ª£Ë°®Êú¨Ê¨°‰º†Ëæì Êï∞ÊçÆ
 539              		.loc 1 211 4 is_stmt 1 view .LVU161
 540 0008 0122     		movs	r2, #1
 541 000a 1021     		movs	r1, #16
 542 000c 0648     		ldr	r0, .L30
 543              	.LVL25:
 544              		.loc 1 211 4 is_stmt 0 view .LVU162
 545 000e FFF7FEFF 		bl	HAL_GPIO_WritePin
 546              	.LVL26:
 547              		.loc 1 211 15 is_stmt 1 view .LVU163
 212:Core/Src/spi.c **** 
 213:Core/Src/spi.c ****    HAL_SPI_Transmit(&LCD_SPI, &lcd_data, 1, 1000) ; // ÂêØÂä®SPI‰º†Ëæì
 548              		.loc 1 213 4 view .LVU164
 549 0012 4FF47A73 		mov	r3, #1000
 550 0016 0122     		movs	r2, #1
ARM GAS  C:\Users\23612\AppData\Local\Temp\cctfb4zR.s 			page 16


 551 0018 0DF10701 		add	r1, sp, #7
 552 001c 0348     		ldr	r0, .L30+4
 553 001e FFF7FEFF 		bl	HAL_SPI_Transmit
 554              	.LVL27:
 214:Core/Src/spi.c **** }
 555              		.loc 1 214 1 is_stmt 0 view .LVU165
 556 0022 03B0     		add	sp, sp, #12
 557              	.LCFI11:
 558              		.cfi_def_cfa_offset 4
 559              		@ sp needed
 560 0024 5DF804FB 		ldr	pc, [sp], #4
 561              	.L31:
 562              		.align	2
 563              	.L30:
 564 0028 00100240 		.word	1073876992
 565 002c 00000000 		.word	.LANCHOR0
 566              		.cfi_endproc
 567              	.LFE174:
 569              		.section	.text.LCD_WriteData_16bit,"ax",%progbits
 570              		.align	1
 571              		.global	LCD_WriteData_16bit
 572              		.syntax unified
 573              		.thumb
 574              		.thumb_func
 576              	LCD_WriteData_16bit:
 577              	.LVL28:
 578              	.LFB175:
 215:Core/Src/spi.c **** 
 216:Core/Src/spi.c **** /**************************************************************************************************
 217:Core/Src/spi.c **** *	Âá? Êï? Âê?: LCD_WriteData_16bit
 218:Core/Src/spi.c **** *
 219:Core/Src/spi.c **** *	ÂÖ•Âè£ÂèÇÊï∞: lcd_data - Èú?Ë¶ÅÂÜôÂÖ•ÁöÑÊï∞ÊçÆÔº?16‰Ω?
 220:Core/Src/spi.c **** *
 221:Core/Src/spi.c **** *	ÂáΩÊï∞ÂäüËÉΩ: ÂÜôÂÖ•16‰ΩçÊï∞Êç?
 222:Core/Src/spi.c **** *	
 223:Core/Src/spi.c **** ***************************************************************************************************
 224:Core/Src/spi.c **** void  LCD_WriteData_16bit(uint16_t lcd_data)
 225:Core/Src/spi.c **** {
 579              		.loc 1 225 1 is_stmt 1 view -0
 580              		.cfi_startproc
 581              		@ args = 0, pretend = 0, frame = 8
 582              		@ frame_needed = 0, uses_anonymous_args = 0
 583              		.loc 1 225 1 is_stmt 0 view .LVU167
 584 0000 00B5     		push	{lr}
 585              	.LCFI12:
 586              		.cfi_def_cfa_offset 4
 587              		.cfi_offset 14, -4
 588 0002 83B0     		sub	sp, sp, #12
 589              	.LCFI13:
 590              		.cfi_def_cfa_offset 16
 226:Core/Src/spi.c ****    uint8_t lcd_data_buff[2];    // Êï∞ÊçÆÂèëÈ?ÅÂå∫
 591              		.loc 1 226 4 is_stmt 1 view .LVU168
 227:Core/Src/spi.c ****    lcd_data_buff[0] = lcd_data>>8;  // Â∞ÜÊï∞ÊçÆÊãÜÂà?
 592              		.loc 1 227 4 view .LVU169
 593              		.loc 1 227 21 is_stmt 0 view .LVU170
 594 0004 030A     		lsrs	r3, r0, #8
 595 0006 8DF80430 		strb	r3, [sp, #4]
ARM GAS  C:\Users\23612\AppData\Local\Temp\cctfb4zR.s 			page 17


 228:Core/Src/spi.c ****    lcd_data_buff[1] = lcd_data;
 596              		.loc 1 228 4 is_stmt 1 view .LVU171
 597              		.loc 1 228 21 is_stmt 0 view .LVU172
 598 000a 8DF80500 		strb	r0, [sp, #5]
 229:Core/Src/spi.c ****    LCD_DC_Data;      // Êï∞ÊçÆÊåá‰ª§ÈÄâÊã© ÂºïËÑöËæìÂá∫È´òÁîµÂπ≥Ôºå‰ª£Ë°®Êú¨Ê¨°‰º†Ëæì Êï∞ÊçÆ
 599              		.loc 1 229 4 is_stmt 1 view .LVU173
 600 000e 0122     		movs	r2, #1
 601 0010 1021     		movs	r1, #16
 602 0012 0948     		ldr	r0, .L35
 603              	.LVL29:
 604              		.loc 1 229 4 is_stmt 0 view .LVU174
 605 0014 FFF7FEFF 		bl	HAL_GPIO_WritePin
 606              	.LVL30:
 607              		.loc 1 229 15 is_stmt 1 view .LVU175
 230:Core/Src/spi.c ****  
 231:Core/Src/spi.c **** 	HAL_SPI_Transmit_DMA(&LCD_SPI, lcd_data_buff, 2);	// ÂêØÂä®SPI‰º†Ëæì
 608              		.loc 1 231 2 view .LVU176
 609 0018 0222     		movs	r2, #2
 610 001a 01A9     		add	r1, sp, #4
 611 001c 0748     		ldr	r0, .L35+4
 612 001e FFF7FEFF 		bl	HAL_SPI_Transmit_DMA
 613              	.LVL31:
 232:Core/Src/spi.c **** 	WaitSendOver();
 614              		.loc 1 232 2 view .LVU177
 615              	.L33:
 616              		.loc 1 232 2 discriminator 1 view .LVU178
 617              		.loc 1 232 2 discriminator 1 view .LVU179
 618 0022 074B     		ldr	r3, .L35+8
 619 0024 1B78     		ldrb	r3, [r3]	@ zero_extendqisi2
 620 0026 002B     		cmp	r3, #0
 621 0028 FBD0     		beq	.L33
 622              		.loc 1 232 2 discriminator 2 view .LVU180
 623 002a 054B     		ldr	r3, .L35+8
 624 002c 0022     		movs	r2, #0
 625 002e 1A70     		strb	r2, [r3]
 626              		.loc 1 232 16 discriminator 2 view .LVU181
 233:Core/Src/spi.c **** }
 627              		.loc 1 233 1 is_stmt 0 discriminator 2 view .LVU182
 628 0030 03B0     		add	sp, sp, #12
 629              	.LCFI14:
 630              		.cfi_def_cfa_offset 4
 631              		@ sp needed
 632 0032 5DF804FB 		ldr	pc, [sp], #4
 633              	.L36:
 634 0036 00BF     		.align	2
 635              	.L35:
 636 0038 00100240 		.word	1073876992
 637 003c 00000000 		.word	.LANCHOR0
 638 0040 00000000 		.word	.LANCHOR2
 639              		.cfi_endproc
 640              	.LFE175:
 642              		.section	.text.LCD_WriteBuff,"ax",%progbits
 643              		.align	1
 644              		.global	LCD_WriteBuff
 645              		.syntax unified
 646              		.thumb
 647              		.thumb_func
ARM GAS  C:\Users\23612\AppData\Local\Temp\cctfb4zR.s 			page 18


 649              	LCD_WriteBuff:
 650              	.LVL32:
 651              	.LFB176:
 234:Core/Src/spi.c **** 
 235:Core/Src/spi.c **** /**************************************************************************************************
 236:Core/Src/spi.c **** *	Âá? Êï? Âê?: LCD_WriteBuff
 237:Core/Src/spi.c **** *
 238:Core/Src/spi.c **** *	ÂÖ•Âè£ÂèÇÊï∞: DataBuff - Êï∞ÊçÆÂå∫ÔºåDataSize - Êï∞ÊçÆÈïøÂ∫¶
 239:Core/Src/spi.c **** *
 240:Core/Src/spi.c **** *	ÂáΩÊï∞ÂäüËÉΩ: ÊâπÈáèÂÜôÂÖ•Êï∞ÊçÆÂà∞Â±èÂπ?
 241:Core/Src/spi.c **** *	
 242:Core/Src/spi.c **** ***************************************************************************************************
 243:Core/Src/spi.c **** void  LCD_WriteBuff(uint16_t *DataBuff, uint16_t DataSize)
 244:Core/Src/spi.c **** {
 652              		.loc 1 244 1 is_stmt 1 view -0
 653              		.cfi_startproc
 654              		@ args = 0, pretend = 0, frame = 0
 655              		@ frame_needed = 0, uses_anonymous_args = 0
 656              		.loc 1 244 1 is_stmt 0 view .LVU184
 657 0000 38B5     		push	{r3, r4, r5, lr}
 658              	.LCFI15:
 659              		.cfi_def_cfa_offset 16
 660              		.cfi_offset 3, -16
 661              		.cfi_offset 4, -12
 662              		.cfi_offset 5, -8
 663              		.cfi_offset 14, -4
 664 0002 0546     		mov	r5, r0
 665 0004 0C46     		mov	r4, r1
 245:Core/Src/spi.c **** 	LCD_DC_Data;     // Êï∞ÊçÆÊåá‰ª§ÈÄâÊã© ÂºïËÑöËæìÂá∫È´òÁîµÂπ≥Ôºå‰ª£Ë°®Êú¨Ê¨°‰º†Ëæì Êï∞ÊçÆ	
 666              		.loc 1 245 2 is_stmt 1 view .LVU185
 667 0006 0122     		movs	r2, #1
 668 0008 1021     		movs	r1, #16
 669              	.LVL33:
 670              		.loc 1 245 2 is_stmt 0 view .LVU186
 671 000a 0848     		ldr	r0, .L40
 672              	.LVL34:
 673              		.loc 1 245 2 view .LVU187
 674 000c FFF7FEFF 		bl	HAL_GPIO_WritePin
 675              	.LVL35:
 676              		.loc 1 245 13 is_stmt 1 view .LVU188
 246:Core/Src/spi.c **** 	HAL_SPI_Transmit_DMA(&LCD_SPI, (uint8_t *)DataBuff, DataSize*2);	// ÂêØÂä®SPI‰º†Ëæì
 677              		.loc 1 246 2 view .LVU189
 678 0010 6200     		lsls	r2, r4, #1
 679 0012 92B2     		uxth	r2, r2
 680 0014 2946     		mov	r1, r5
 681 0016 0648     		ldr	r0, .L40+4
 682 0018 FFF7FEFF 		bl	HAL_SPI_Transmit_DMA
 683              	.LVL36:
 247:Core/Src/spi.c **** 	WaitSendOver();
 684              		.loc 1 247 2 view .LVU190
 685              	.L38:
 686              		.loc 1 247 2 discriminator 1 view .LVU191
 687              		.loc 1 247 2 discriminator 1 view .LVU192
 688 001c 054B     		ldr	r3, .L40+8
 689 001e 1B78     		ldrb	r3, [r3]	@ zero_extendqisi2
 690 0020 002B     		cmp	r3, #0
 691 0022 FBD0     		beq	.L38
ARM GAS  C:\Users\23612\AppData\Local\Temp\cctfb4zR.s 			page 19


 692              		.loc 1 247 2 discriminator 2 view .LVU193
 693 0024 034B     		ldr	r3, .L40+8
 694 0026 0022     		movs	r2, #0
 695 0028 1A70     		strb	r2, [r3]
 696              		.loc 1 247 16 discriminator 2 view .LVU194
 248:Core/Src/spi.c **** }
 697              		.loc 1 248 1 is_stmt 0 discriminator 2 view .LVU195
 698 002a 38BD     		pop	{r3, r4, r5, pc}
 699              	.LVL37:
 700              	.L41:
 701              		.loc 1 248 1 discriminator 2 view .LVU196
 702              		.align	2
 703              	.L40:
 704 002c 00100240 		.word	1073876992
 705 0030 00000000 		.word	.LANCHOR0
 706 0034 00000000 		.word	.LANCHOR2
 707              		.cfi_endproc
 708              	.LFE176:
 710              		.section	.text.LCD_SetAddress,"ax",%progbits
 711              		.align	1
 712              		.global	LCD_SetAddress
 713              		.syntax unified
 714              		.thumb
 715              		.thumb_func
 717              	LCD_SetAddress:
 718              	.LVL38:
 719              	.LFB178:
 249:Core/Src/spi.c **** 
 250:Core/Src/spi.c **** /**************************************************************************************************
 251:Core/Src/spi.c **** *	Âá? Êï? Âê?: SPI_LCD_Init
 252:Core/Src/spi.c **** *
 253:Core/Src/spi.c **** *	ÂáΩÊï∞ÂäüËÉΩ: ÂàùÂßãÂåñSPI‰ª•ÂèäÂ±èÂπïÊéßÂà∂Âô®ÁöÑÂêÑÁßçÂèÇÊï∞
 254:Core/Src/spi.c **** *	
 255:Core/Src/spi.c **** ***************************************************************************************************
 256:Core/Src/spi.c **** void SPI_LCD_Init(void)
 257:Core/Src/spi.c **** {
 258:Core/Src/spi.c ****    	MX_SPI3_Init();               // ÂàùÂßãÂåñSPIÂíåÊéßÂà∂ÂºïËÑ?
 259:Core/Src/spi.c ****     HAL_Delay(10);               // Â±èÂπïÂàöÂÆåÊàêÂ§ç‰ΩçÊó∂ÔºàÂåÖÊã¨‰∏äÁîµÂ§ç‰ΩçÔºâÔºåÈúÄË¶ÅÁ≠âÂæ?
 260:Core/Src/spi.c **** 
 261:Core/Src/spi.c ****  	LCD_WriteCommand(0x36);       // ÊòæÂ≠òËÆøÈóÆÊéßÂà∂ Êåá‰ª§ÔºåÁî®‰∫éËÆæÁΩÆËÆøÈóÆÊòæÂ≠òÁöÑÊñπÂºè
 262:Core/Src/spi.c **** 	LCD_WriteData_8bit(0x00);     // ÈÖçÁΩÆÊà? ‰ªé‰∏äÂà∞‰∏ã„ÄÅ‰ªéÂ∑¶Âà∞Âè≥ÔºåRGBÂÉèÁ¥†Ê†ºÂºè
 263:Core/Src/spi.c **** 
 264:Core/Src/spi.c **** 	LCD_WriteCommand(0x3A);			// Êé•Âè£ÂÉèÁ¥†Ê†ºÂºè Êåá‰ª§ÔºåÁî®‰∫éËÆæÁΩÆ‰ΩøÁî? 12‰Ωç„??16‰ΩçËøòÊò?18‰
 265:Core/Src/spi.c **** 	LCD_WriteData_8bit(0x05);     // Ê≠§Â§ÑÈÖçÁΩÆÊà? 16‰Ω? ÂÉèÁ¥†Ê†ºÂºè
 266:Core/Src/spi.c **** 
 267:Core/Src/spi.c **** 	// Êé•‰∏ãÊù•ÂæàÂ§öÈÉΩÊòØÁîµÂéãËÆæÁΩÆÊåá‰ª§ÔºåÁõ¥Êé•‰ΩøÁî®ÂéÇÂÆ∂ÁªôËÆæÂÆöÂ??
 268:Core/Src/spi.c ****  	LCD_WriteCommand(0xB2);			
 269:Core/Src/spi.c **** 	LCD_WriteData_8bit(0x0C);
 270:Core/Src/spi.c **** 	LCD_WriteData_8bit(0x0C); 
 271:Core/Src/spi.c **** 	LCD_WriteData_8bit(0x00); 
 272:Core/Src/spi.c **** 	LCD_WriteData_8bit(0x33); 
 273:Core/Src/spi.c **** 	LCD_WriteData_8bit(0x33); 			
 274:Core/Src/spi.c **** 
 275:Core/Src/spi.c **** 	LCD_WriteCommand(0xB7);		   // Ê†ÖÊûÅÁîµÂéãËÆæÁΩÆÊåá‰ª§	
 276:Core/Src/spi.c **** 	LCD_WriteData_8bit(0x35);     // VGH = 13.26VÔºåVGL = -10.43V
 277:Core/Src/spi.c **** 
 278:Core/Src/spi.c **** 	LCD_WriteCommand(0xBB);			// ÂÖ¨ÂÖ±ÁîµÂéãËÆæÁΩÆÊåá‰ª§
ARM GAS  C:\Users\23612\AppData\Local\Temp\cctfb4zR.s 			page 20


 279:Core/Src/spi.c **** 	LCD_WriteData_8bit(0x19);     // VCOM = 1.35V
 280:Core/Src/spi.c **** 
 281:Core/Src/spi.c **** 	LCD_WriteCommand(0xC0);
 282:Core/Src/spi.c **** 	LCD_WriteData_8bit(0x2C);
 283:Core/Src/spi.c **** 
 284:Core/Src/spi.c **** 	LCD_WriteCommand(0xC2);       // VDV Âí? VRH Êù•Ê∫êËÆæÁΩÆ
 285:Core/Src/spi.c **** 	LCD_WriteData_8bit(0x01);     // VDV Âí? VRH Áî±Áî®Êà∑Ëá™Áî±ÈÖçÁΩ?
 286:Core/Src/spi.c **** 
 287:Core/Src/spi.c **** 	LCD_WriteCommand(0xC3);			// VRHÁîµÂéã ËÆæÁΩÆÊåá‰ª§  
 288:Core/Src/spi.c **** 	LCD_WriteData_8bit(0x12);     // VRHÁîµÂéã = 4.6+( vcom+vcom offset+vdv)
 289:Core/Src/spi.c **** 				
 290:Core/Src/spi.c **** 	LCD_WriteCommand(0xC4);		   // VDVÁîµÂéã ËÆæÁΩÆÊåá‰ª§	
 291:Core/Src/spi.c **** 	LCD_WriteData_8bit(0x20);     // VDVÁîµÂéã = 0v
 292:Core/Src/spi.c **** 
 293:Core/Src/spi.c **** 	LCD_WriteCommand(0xC6); 		// Ê≠£Â∏∏Ê®°ÂºèÁöÑÂ∏ßÁéáÊéßÂà∂Êåá‰ª?
 294:Core/Src/spi.c **** 	LCD_WriteData_8bit(0x0F);   	// ËÆæÁΩÆÂ±èÂπïÊéßÂà∂Âô®ÁöÑÂà∑Êñ∞Â∏ßÁéá‰∏?60Â∏?    
 295:Core/Src/spi.c **** 
 296:Core/Src/spi.c **** 	LCD_WriteCommand(0xD0);			// ÁîµÊ∫êÊéßÂà∂Êåá‰ª§
 297:Core/Src/spi.c **** 	LCD_WriteData_8bit(0xA4);     // Êó†ÊïàÊï∞ÊçÆÔºåÂõ∫ÂÆöÂÜôÂÖ?0xA4
 298:Core/Src/spi.c **** 	LCD_WriteData_8bit(0xA1);     // AVDD = 6.8V ÔºåAVDD = -4.8V ÔºåVDS = 2.3V
 299:Core/Src/spi.c **** 
 300:Core/Src/spi.c **** 	LCD_WriteCommand(0xE0);       // Ê≠£ÊûÅÁîµÂéã‰ºΩÈ©¨ÂÄºËÆæÂÆ?
 301:Core/Src/spi.c **** 	LCD_WriteData_8bit(0xD0);
 302:Core/Src/spi.c **** 	LCD_WriteData_8bit(0x04);
 303:Core/Src/spi.c **** 	LCD_WriteData_8bit(0x0D);
 304:Core/Src/spi.c **** 	LCD_WriteData_8bit(0x11);
 305:Core/Src/spi.c **** 	LCD_WriteData_8bit(0x13);
 306:Core/Src/spi.c **** 	LCD_WriteData_8bit(0x2B);
 307:Core/Src/spi.c **** 	LCD_WriteData_8bit(0x3F);
 308:Core/Src/spi.c **** 	LCD_WriteData_8bit(0x54);
 309:Core/Src/spi.c **** 	LCD_WriteData_8bit(0x4C);
 310:Core/Src/spi.c **** 	LCD_WriteData_8bit(0x18);
 311:Core/Src/spi.c **** 	LCD_WriteData_8bit(0x0D);
 312:Core/Src/spi.c **** 	LCD_WriteData_8bit(0x0B);
 313:Core/Src/spi.c **** 	LCD_WriteData_8bit(0x1F);
 314:Core/Src/spi.c **** 	LCD_WriteData_8bit(0x23);
 315:Core/Src/spi.c **** 
 316:Core/Src/spi.c **** 	LCD_WriteCommand(0xE1);      // Ë¥üÊûÅÁîµÂéã‰ºΩÈ©¨ÂÄºËÆæÂÆ?
 317:Core/Src/spi.c **** 	LCD_WriteData_8bit(0xD0);
 318:Core/Src/spi.c **** 	LCD_WriteData_8bit(0x04);
 319:Core/Src/spi.c **** 	LCD_WriteData_8bit(0x0C);
 320:Core/Src/spi.c **** 	LCD_WriteData_8bit(0x11);
 321:Core/Src/spi.c **** 	LCD_WriteData_8bit(0x13);
 322:Core/Src/spi.c **** 	LCD_WriteData_8bit(0x2C);
 323:Core/Src/spi.c **** 	LCD_WriteData_8bit(0x3F);
 324:Core/Src/spi.c **** 	LCD_WriteData_8bit(0x44);
 325:Core/Src/spi.c **** 	LCD_WriteData_8bit(0x51);
 326:Core/Src/spi.c **** 	LCD_WriteData_8bit(0x2F);
 327:Core/Src/spi.c **** 	LCD_WriteData_8bit(0x1F);
 328:Core/Src/spi.c **** 	LCD_WriteData_8bit(0x1F);
 329:Core/Src/spi.c **** 	LCD_WriteData_8bit(0x20);
 330:Core/Src/spi.c **** 	LCD_WriteData_8bit(0x23);
 331:Core/Src/spi.c **** 
 332:Core/Src/spi.c **** 	LCD_WriteCommand(0x21);       // ÊâìÂºÄÂèçÊòæÔºåÂõ†‰∏∫Èù¢ÊùøÊòØÂ∏∏ÈªëÂûãÔºåÊìç‰ΩúÈú?Ë¶ÅÂèçËøáÊù•
 333:Core/Src/spi.c **** 
 334:Core/Src/spi.c ****  	// ÈÄ?Âá∫‰ºëÁú†Êåá‰ª§ÔºåLCDÊéßÂà∂Âô®Âú®Âàö‰∏äÁîµ„?ÅÂ§ç‰ΩçÊó∂Ôºå‰ºöËá™Âä®ËøõÂÖ•‰ºëÁú†Ê®°Âºè ÔºåÂõ†
 335:Core/Src/spi.c **** 	LCD_WriteCommand(0x11);       // ÈÄ?Âá∫‰ºëÁú? Êåá‰ª§
ARM GAS  C:\Users\23612\AppData\Local\Temp\cctfb4zR.s 			page 21


 336:Core/Src/spi.c ****    	HAL_Delay(120);               // Èú?Ë¶ÅÁ≠âÂæ?120msÔºåËÆ©ÁîµÊ∫êÁîµÂéãÂíåÊó∂ÈíüÁîµË∑ØÁ®≥ÂÆö‰∏ãÊù?
 337:Core/Src/spi.c **** 
 338:Core/Src/spi.c ****  	// ÊâìÂºÄÊòæÁ§∫Êåá‰ª§ÔºåLCDÊéßÂà∂Âô®Âú®Âàö‰∏äÁîµ„?ÅÂ§ç‰ΩçÊó∂Ôºå‰ºöËá™Âä®ÂÖ≥Èó≠ÊòæÁ§∫ 
 339:Core/Src/spi.c **** 	LCD_WriteCommand(0x29);       // ÊâìÂºÄÊòæÁ§∫   	
 340:Core/Src/spi.c **** 	
 341:Core/Src/spi.c **** 	// ‰ª•‰∏ãËøõË°å‰∏?‰∫õÈ©±Âä®ÁöÑÈªòËÆ§ËÆæÁΩÆ
 342:Core/Src/spi.c ****    	LCD_SetDirection(Direction_H);  	      //ËÆæÁΩÆÊòæÁ§∫ÊñπÂêë
 343:Core/Src/spi.c **** 	LCD_SetBackColor(LCD_DISP_BLACK);           // ËÆæÁΩÆËÉåÊôØËâ?
 344:Core/Src/spi.c ****  	LCD_SetColor(LCD_DISP_WHITE);             // ËÆæÁΩÆÁîªÁ¨îËâ?  
 345:Core/Src/spi.c **** 	LCD_Clear();                          	// Ê∏ÖÂ±è
 346:Core/Src/spi.c **** 
 347:Core/Src/spi.c ****    	LCD_SetAsciiFont(&ASCII_Font24);       // ËÆæÁΩÆÈªòËÆ§Â≠ó‰Ωì
 348:Core/Src/spi.c ****    	LCD_ShowNumMode(Fill_Zero);	      	// ËÆæÁΩÆÂèòÈáèÊòæÁ§∫Ê®°ÂºèÔºåÂ§ö‰Ωô‰ΩçÂ°´ÂÖÖÁ©∫Ê†ºËøòÊòØÂ°´
 349:Core/Src/spi.c **** 
 350:Core/Src/spi.c **** 	// ÂÖ®ÈÉ®ËÆæÁΩÆÂÆåÊØï‰πãÂêéÔºåÊâìÂº?ËÉåÂÖâ	
 351:Core/Src/spi.c ****    	LCD_Backlight_ON;  // ÂºïËÑöËæìÂá∫È´òÁîµÂπ≥ÁÇπ‰∫ÆËÉåÂÖ?
 352:Core/Src/spi.c **** }
 353:Core/Src/spi.c **** 
 354:Core/Src/spi.c **** /**************************************************************************************************
 355:Core/Src/spi.c **** *	Âá? Êï? Âê?:	 LCD_SetAddress
 356:Core/Src/spi.c **** *
 357:Core/Src/spi.c **** *	ÂÖ•Âè£ÂèÇÊï∞:	 x1 - Ëµ∑ÂßãÊ∞¥Âπ≥ÂùêÊ†á   y1 - Ëµ∑ÂßãÂûÇÁõ¥ÂùêÊ†á  
 358:Core/Src/spi.c **** *              x2 - ÁªàÁÇπÊ∞¥Âπ≥ÂùêÊ†á   y2 - ÁªàÁÇπÂûÇÁõ¥ÂùêÊ†á	   
 359:Core/Src/spi.c **** *	
 360:Core/Src/spi.c **** *	ÂáΩÊï∞ÂäüËÉΩ:   ËÆæÁΩÆÈú?Ë¶ÅÊòæÁ§∫ÁöÑÂùêÊ†áÂå∫Âüü		 			 
 361:Core/Src/spi.c **** ***************************************************************************************************
 362:Core/Src/spi.c **** void LCD_SetAddress(uint16_t x1,uint16_t y1,uint16_t x2,uint16_t y2)		
 363:Core/Src/spi.c **** {
 720              		.loc 1 363 1 is_stmt 1 view -0
 721              		.cfi_startproc
 722              		@ args = 0, pretend = 0, frame = 0
 723              		@ frame_needed = 0, uses_anonymous_args = 0
 724              		.loc 1 363 1 is_stmt 0 view .LVU198
 725 0000 2DE9F041 		push	{r4, r5, r6, r7, r8, lr}
 726              	.LCFI16:
 727              		.cfi_def_cfa_offset 24
 728              		.cfi_offset 4, -24
 729              		.cfi_offset 5, -20
 730              		.cfi_offset 6, -16
 731              		.cfi_offset 7, -12
 732              		.cfi_offset 8, -8
 733              		.cfi_offset 14, -4
 734 0004 8046     		mov	r8, r0
 735 0006 0E46     		mov	r6, r1
 736 0008 1746     		mov	r7, r2
 737 000a 1D46     		mov	r5, r3
 364:Core/Src/spi.c **** 	LCD_WriteCommand(0x2a);			//	ÂàóÂú∞Âù?ËÆæÁΩÆÔºåÂç≥XÂùêÊ†á
 738              		.loc 1 364 2 is_stmt 1 view .LVU199
 739 000c 2A20     		movs	r0, #42
 740              	.LVL39:
 741              		.loc 1 364 2 is_stmt 0 view .LVU200
 742 000e FFF7FEFF 		bl	LCD_WriteCommand
 743              	.LVL40:
 365:Core/Src/spi.c **** 	LCD_WriteData_16bit(x1+LCD.X_Offset);
 744              		.loc 1 365 2 is_stmt 1 view .LVU201
 745              		.loc 1 365 28 is_stmt 0 view .LVU202
 746 0012 0F4C     		ldr	r4, .L44
ARM GAS  C:\Users\23612\AppData\Local\Temp\cctfb4zR.s 			page 22


 747 0014 A37A     		ldrb	r3, [r4, #10]	@ zero_extendqisi2
 748              		.loc 1 365 2 view .LVU203
 749 0016 03EB0800 		add	r0, r3, r8
 750 001a 80B2     		uxth	r0, r0
 751 001c FFF7FEFF 		bl	LCD_WriteData_16bit
 752              	.LVL41:
 366:Core/Src/spi.c **** 	LCD_WriteData_16bit(x2+LCD.X_Offset);
 753              		.loc 1 366 2 is_stmt 1 view .LVU204
 754              		.loc 1 366 28 is_stmt 0 view .LVU205
 755 0020 A07A     		ldrb	r0, [r4, #10]	@ zero_extendqisi2
 756              		.loc 1 366 2 view .LVU206
 757 0022 3844     		add	r0, r0, r7
 758 0024 80B2     		uxth	r0, r0
 759 0026 FFF7FEFF 		bl	LCD_WriteData_16bit
 760              	.LVL42:
 367:Core/Src/spi.c **** 
 368:Core/Src/spi.c **** 	LCD_WriteCommand(0x2b);			//	Ë°åÂú∞Âù?ËÆæÁΩÆÔºåÂç≥YÂùêÊ†á
 761              		.loc 1 368 2 is_stmt 1 view .LVU207
 762 002a 2B20     		movs	r0, #43
 763 002c FFF7FEFF 		bl	LCD_WriteCommand
 764              	.LVL43:
 369:Core/Src/spi.c **** 	LCD_WriteData_16bit(y1+LCD.Y_Offset);
 765              		.loc 1 369 2 view .LVU208
 766              		.loc 1 369 28 is_stmt 0 view .LVU209
 767 0030 E07A     		ldrb	r0, [r4, #11]	@ zero_extendqisi2
 768              		.loc 1 369 2 view .LVU210
 769 0032 3044     		add	r0, r0, r6
 770 0034 80B2     		uxth	r0, r0
 771 0036 FFF7FEFF 		bl	LCD_WriteData_16bit
 772              	.LVL44:
 370:Core/Src/spi.c **** 	LCD_WriteData_16bit(y2+LCD.Y_Offset);
 773              		.loc 1 370 2 is_stmt 1 view .LVU211
 774              		.loc 1 370 28 is_stmt 0 view .LVU212
 775 003a E07A     		ldrb	r0, [r4, #11]	@ zero_extendqisi2
 776              		.loc 1 370 2 view .LVU213
 777 003c 2844     		add	r0, r0, r5
 778 003e 80B2     		uxth	r0, r0
 779 0040 FFF7FEFF 		bl	LCD_WriteData_16bit
 780              	.LVL45:
 371:Core/Src/spi.c **** 
 372:Core/Src/spi.c **** 	LCD_WriteCommand(0x2c);			//	Âº?ÂßãÂÜôÂÖ•ÊòæÂ≠òÔºåÂç≥Ë¶ÅÊòæÁ§∫ÁöÑÈ¢úËâ≤Êï∞Êç?
 781              		.loc 1 372 2 is_stmt 1 view .LVU214
 782 0044 2C20     		movs	r0, #44
 783 0046 FFF7FEFF 		bl	LCD_WriteCommand
 784              	.LVL46:
 373:Core/Src/spi.c **** }
 785              		.loc 1 373 1 is_stmt 0 view .LVU215
 786 004a BDE8F081 		pop	{r4, r5, r6, r7, r8, pc}
 787              	.L45:
 788 004e 00BF     		.align	2
 789              	.L44:
 790 0050 00000000 		.word	.LANCHOR3
 791              		.cfi_endproc
 792              	.LFE178:
 794              		.section	.text.LCD_SetColor,"ax",%progbits
 795              		.align	1
 796              		.global	LCD_SetColor
ARM GAS  C:\Users\23612\AppData\Local\Temp\cctfb4zR.s 			page 23


 797              		.syntax unified
 798              		.thumb
 799              		.thumb_func
 801              	LCD_SetColor:
 802              	.LVL47:
 803              	.LFB179:
 374:Core/Src/spi.c **** 
 375:Core/Src/spi.c **** /**************************************************************************************************
 376:Core/Src/spi.c **** *	Âá? Êï? Âê?:	LCD_SetColor
 377:Core/Src/spi.c **** *
 378:Core/Src/spi.c **** *	ÂÖ•Âè£ÂèÇÊï∞:	Color - Ë¶ÅÊòæÁ§∫ÁöÑÈ¢úËâ≤ÔºåÁ§∫‰æãÔºö0x0000FF Ë°®Á§∫ËìùËâ≤
 379:Core/Src/spi.c **** *
 380:Core/Src/spi.c **** *	ÂáΩÊï∞ÂäüËÉΩ:	Ê≠§ÂáΩÊï∞Áî®‰∫éËÆæÁΩÆÁîªÁ¨îÁöÑÈ¢úËâ≤Ôºå‰æãÂ¶ÇÊòæÁ§∫Â≠óÁ¨¶„?ÅÁîªÁÇπÁîªÁ∫ø„?ÅÁªòÂõæÁö
 381:Core/Src/spi.c **** *
 382:Core/Src/spi.c **** *	ËØ?    Êò?:	1. ‰∏∫‰∫ÜÊñπ‰æøÁî®Êà∑‰ΩøÁî®Ëá™ÂÆö‰πâÈ¢úËâ≤ÔºåÂÖ•Âè£ÂèÇÊï∞ Color ‰ΩøÁî®24‰Ω? RGB888ÁöÑ
 383:Core/Src/spi.c **** *					2. 24‰ΩçÁöÑÈ¢úËâ≤‰∏≠Ôºå‰ªéÈ´ò‰ΩçÂà∞‰Ωé‰ΩçÂàÜÂà´ÂØπÂ∫î R„ÄÅG„ÄÅB  3‰∏™È¢úËâ≤È?öÈÅì
 384:Core/Src/spi.c **** *
 385:Core/Src/spi.c **** ***************************************************************************************************
 386:Core/Src/spi.c **** void LCD_SetColor(uint16_t Color)
 387:Core/Src/spi.c **** {
 804              		.loc 1 387 1 is_stmt 1 view -0
 805              		.cfi_startproc
 806              		@ args = 0, pretend = 0, frame = 0
 807              		@ frame_needed = 0, uses_anonymous_args = 0
 808              		@ link register save eliminated.
 388:Core/Src/spi.c **** 	LCD.Color = Color;  // Â∞ÜÈ¢úËâ≤ÂÜôÂÖ•ÂÖ®Â±?LCDÂèÇÊï∞		
 809              		.loc 1 388 2 view .LVU217
 810              		.loc 1 388 12 is_stmt 0 view .LVU218
 811 0000 014B     		ldr	r3, .L47
 812 0002 1880     		strh	r0, [r3]	@ movhi
 389:Core/Src/spi.c **** }
 813              		.loc 1 389 1 view .LVU219
 814 0004 7047     		bx	lr
 815              	.L48:
 816 0006 00BF     		.align	2
 817              	.L47:
 818 0008 00000000 		.word	.LANCHOR3
 819              		.cfi_endproc
 820              	.LFE179:
 822              		.section	.text.LCD_SetBackColor,"ax",%progbits
 823              		.align	1
 824              		.global	LCD_SetBackColor
 825              		.syntax unified
 826              		.thumb
 827              		.thumb_func
 829              	LCD_SetBackColor:
 830              	.LVL48:
 831              	.LFB180:
 390:Core/Src/spi.c **** 
 391:Core/Src/spi.c **** /**************************************************************************************************
 392:Core/Src/spi.c **** *	Âá? Êï? Âê?:	LCD_SetBackColor
 393:Core/Src/spi.c **** *
 394:Core/Src/spi.c **** *	ÂÖ•Âè£ÂèÇÊï∞:	Color - Ë¶ÅÊòæÁ§∫ÁöÑÈ¢úËâ≤ÔºåÁ§∫‰æãÔºö0x0000FF Ë°®Á§∫ËìùËâ≤
 395:Core/Src/spi.c **** *
 396:Core/Src/spi.c **** *	ÂáΩÊï∞ÂäüËÉΩ:	ËÆæÁΩÆËÉåÊôØËâ?,Ê≠§ÂáΩÊï∞Áî®‰∫éÊ∏ÖÂ±è‰ª•ÂèäÊòæÁ§∫Â≠óÁ¨¶ÁöÑËÉåÊôØËâ?
 397:Core/Src/spi.c **** *
 398:Core/Src/spi.c **** *	ËØ?    Êò?:	1. ‰∏∫‰∫ÜÊñπ‰æøÁî®Êà∑‰ΩøÁî®Ëá™ÂÆö‰πâÈ¢úËâ≤ÔºåÂÖ•Âè£ÂèÇÊï∞ Color ‰ΩøÁî®24‰Ω? RGB888ÁöÑ
ARM GAS  C:\Users\23612\AppData\Local\Temp\cctfb4zR.s 			page 24


 399:Core/Src/spi.c **** *					2. 24‰ΩçÁöÑÈ¢úËâ≤‰∏≠Ôºå‰ªéÈ´ò‰ΩçÂà∞‰Ωé‰ΩçÂàÜÂà´ÂØπÂ∫î R„ÄÅG„ÄÅB  3‰∏™È¢úËâ≤È?öÈÅì
 400:Core/Src/spi.c **** *
 401:Core/Src/spi.c **** ***************************************************************************************************
 402:Core/Src/spi.c **** void LCD_SetBackColor(uint16_t Color)
 403:Core/Src/spi.c **** {
 832              		.loc 1 403 1 is_stmt 1 view -0
 833              		.cfi_startproc
 834              		@ args = 0, pretend = 0, frame = 0
 835              		@ frame_needed = 0, uses_anonymous_args = 0
 836              		@ link register save eliminated.
 404:Core/Src/spi.c **** 	LCD.BackColor = Color;	// Â∞ÜÈ¢úËâ≤ÂÜôÂÖ•ÂÖ®Â±?LCDÂèÇÊï∞			   	
 837              		.loc 1 404 2 view .LVU221
 838              		.loc 1 404 16 is_stmt 0 view .LVU222
 839 0000 014B     		ldr	r3, .L50
 840 0002 5880     		strh	r0, [r3, #2]	@ movhi
 405:Core/Src/spi.c **** }
 841              		.loc 1 405 1 view .LVU223
 842 0004 7047     		bx	lr
 843              	.L51:
 844 0006 00BF     		.align	2
 845              	.L50:
 846 0008 00000000 		.word	.LANCHOR3
 847              		.cfi_endproc
 848              	.LFE180:
 850              		.section	.text.LCD_SetDirection,"ax",%progbits
 851              		.align	1
 852              		.global	LCD_SetDirection
 853              		.syntax unified
 854              		.thumb
 855              		.thumb_func
 857              	LCD_SetDirection:
 858              	.LVL49:
 859              	.LFB181:
 406:Core/Src/spi.c **** 
 407:Core/Src/spi.c **** /**************************************************************************************************
 408:Core/Src/spi.c **** *	Âá? Êï? Âê?:	LCD_SetDirection
 409:Core/Src/spi.c **** *
 410:Core/Src/spi.c **** *	ÂÖ•Âè£ÂèÇÊï∞:	direction - Ë¶ÅÊòæÁ§∫ÁöÑÊñπÂêë
 411:Core/Src/spi.c **** *
 412:Core/Src/spi.c **** *	ÂáΩÊï∞ÂäüËÉΩ:	ËÆæÁΩÆË¶ÅÊòæÁ§∫ÁöÑÊñπÂêë
 413:Core/Src/spi.c **** *
 414:Core/Src/spi.c **** *	ËØ?    Êò?:   1. ÂèØËæìÂÖ•ÂèÇÊï? Direction_H „ÄÅDirection_V „ÄÅDirection_H_Flip „ÄÅDirection_V_Fl
 415:Core/Src/spi.c **** *              2. ‰ΩøÁî®Á§∫‰æã LCD_DisplayDirection(Direction_H) ÔºåÂç≥ËÆæÁΩÆÂ±èÂπïÊ®™Â±èÊòæÁ§∫
 416:Core/Src/spi.c **** *
 417:Core/Src/spi.c **** ***************************************************************************************************
 418:Core/Src/spi.c **** void LCD_SetDirection(uint8_t direction)
 419:Core/Src/spi.c **** {
 860              		.loc 1 419 1 is_stmt 1 view -0
 861              		.cfi_startproc
 862              		@ args = 0, pretend = 0, frame = 0
 863              		@ frame_needed = 0, uses_anonymous_args = 0
 864              		.loc 1 419 1 is_stmt 0 view .LVU225
 865 0000 08B5     		push	{r3, lr}
 866              	.LCFI17:
 867              		.cfi_def_cfa_offset 8
 868              		.cfi_offset 3, -8
 869              		.cfi_offset 14, -4
ARM GAS  C:\Users\23612\AppData\Local\Temp\cctfb4zR.s 			page 25


 420:Core/Src/spi.c **** 	LCD.Direction = direction;    // ÂÜôÂÖ•ÂÖ®Â±ÄLCDÂèÇÊï∞
 870              		.loc 1 420 2 is_stmt 1 view .LVU226
 871              		.loc 1 420 16 is_stmt 0 view .LVU227
 872 0002 274B     		ldr	r3, .L62
 873 0004 5871     		strb	r0, [r3, #5]
 421:Core/Src/spi.c **** 
 422:Core/Src/spi.c ****    if( direction == Direction_H )   // Ê®™Â±èÊòæÁ§∫
 874              		.loc 1 422 4 is_stmt 1 view .LVU228
 875              		.loc 1 422 6 is_stmt 0 view .LVU229
 876 0006 30B1     		cbz	r0, .L58
 423:Core/Src/spi.c ****    {
 424:Core/Src/spi.c ****       LCD_WriteCommand(0x36);    		// ÊòæÂ≠òËÆøÈóÆÊéßÂà∂ Êåá‰ª§ÔºåÁî®‰∫éËÆæÁΩÆËÆøÈóÆÊòæÂ≠òÁöÑÊñπÂºè
 425:Core/Src/spi.c ****       LCD_WriteData_8bit(0x70);        // Ê®™Â±èÊòæÁ§∫
 426:Core/Src/spi.c ****       LCD.X_Offset   = 20;             // ËÆæÁΩÆÊéßÂà∂Âô®ÂùêÊ†áÂÅèÁßªÈáè
 427:Core/Src/spi.c ****       LCD.Y_Offset   = 0;   
 428:Core/Src/spi.c ****       LCD.Width      = LCD_Height;		// ÈáçÊñ∞ËµãÂ?ºÈïø„ÄÅÂÆΩ
 429:Core/Src/spi.c ****       LCD.Height     = LCD_Width;		
 430:Core/Src/spi.c ****    }
 431:Core/Src/spi.c ****    else if( direction == Direction_V )
 877              		.loc 1 431 9 is_stmt 1 view .LVU230
 878              		.loc 1 431 11 is_stmt 0 view .LVU231
 879 0008 0228     		cmp	r0, #2
 880 000a 15D0     		beq	.L59
 432:Core/Src/spi.c ****    {
 433:Core/Src/spi.c ****       LCD_WriteCommand(0x36);    		// ÊòæÂ≠òËÆøÈóÆÊéßÂà∂ Êåá‰ª§ÔºåÁî®‰∫éËÆæÁΩÆËÆøÈóÆÊòæÂ≠òÁöÑÊñπÂºè
 434:Core/Src/spi.c ****       LCD_WriteData_8bit(0x00);        // ÂûÇÁõ¥ÊòæÁ§∫
 435:Core/Src/spi.c ****       LCD.X_Offset   = 0;              // ËÆæÁΩÆÊéßÂà∂Âô®ÂùêÊ†áÂÅèÁßªÈáè
 436:Core/Src/spi.c ****       LCD.Y_Offset   = 20;     
 437:Core/Src/spi.c ****       LCD.Width      = LCD_Width;		// ÈáçÊñ∞ËµãÂ?ºÈïø„ÄÅÂÆΩ
 438:Core/Src/spi.c ****       LCD.Height     = LCD_Height;						
 439:Core/Src/spi.c ****    }
 440:Core/Src/spi.c ****    else if( direction == Direction_H_Flip )
 881              		.loc 1 440 9 is_stmt 1 view .LVU232
 882              		.loc 1 440 11 is_stmt 0 view .LVU233
 883 000c 0128     		cmp	r0, #1
 884 000e 24D0     		beq	.L60
 441:Core/Src/spi.c ****    {
 442:Core/Src/spi.c ****       LCD_WriteCommand(0x36);   			 // ÊòæÂ≠òËÆøÈóÆÊéßÂà∂ Êåá‰ª§ÔºåÁî®‰∫éËÆæÁΩÆËÆøÈóÆÊòæÂ≠òÁöÑÊñπÂº
 443:Core/Src/spi.c ****       LCD_WriteData_8bit(0xA0);         // Ê®™Â±èÊòæÁ§∫ÔºåÂπ∂‰∏ä‰∏ãÁøªËΩ¨ÔºåRGBÂÉèÁ¥†Ê†ºÂºè
 444:Core/Src/spi.c ****       LCD.X_Offset   = 20;              // ËÆæÁΩÆÊéßÂà∂Âô®ÂùêÊ†áÂÅèÁßªÈáè
 445:Core/Src/spi.c ****       LCD.Y_Offset   = 0;      
 446:Core/Src/spi.c ****       LCD.Width      = LCD_Height;		 // ÈáçÊñ∞ËµãÂ?ºÈïø„ÄÅÂÆΩ
 447:Core/Src/spi.c ****       LCD.Height     = LCD_Width;				
 448:Core/Src/spi.c ****    }
 449:Core/Src/spi.c ****    else if( direction == Direction_V_Flip )
 885              		.loc 1 449 9 is_stmt 1 view .LVU234
 886              		.loc 1 449 11 is_stmt 0 view .LVU235
 887 0010 0328     		cmp	r0, #3
 888 0012 33D0     		beq	.L61
 889              	.LVL50:
 890              	.L52:
 450:Core/Src/spi.c ****    {
 451:Core/Src/spi.c ****       LCD_WriteCommand(0x36);    		// ÊòæÂ≠òËÆøÈóÆÊéßÂà∂ Êåá‰ª§ÔºåÁî®‰∫éËÆæÁΩÆËÆøÈóÆÊòæÂ≠òÁöÑÊñπÂºè
 452:Core/Src/spi.c ****       LCD_WriteData_8bit(0xC0);        // ÂûÇÁõ¥ÊòæÁ§∫ ÔºåÂπ∂‰∏ä‰∏ãÁøªËΩ¨ÔºåRGBÂÉèÁ¥†Ê†ºÂºè
 453:Core/Src/spi.c ****       LCD.X_Offset   = 0;              // ËÆæÁΩÆÊéßÂà∂Âô®ÂùêÊ†áÂÅèÁßªÈáè
 454:Core/Src/spi.c ****       LCD.Y_Offset   = 20;     
 455:Core/Src/spi.c ****       LCD.Width      = LCD_Width;		// ÈáçÊñ∞ËµãÂ?ºÈïø„ÄÅÂÆΩ
ARM GAS  C:\Users\23612\AppData\Local\Temp\cctfb4zR.s 			page 26


 456:Core/Src/spi.c ****       LCD.Height     = LCD_Height;				
 457:Core/Src/spi.c ****    }   
 458:Core/Src/spi.c **** }
 891              		.loc 1 458 1 view .LVU236
 892 0014 08BD     		pop	{r3, pc}
 893              	.LVL51:
 894              	.L58:
 424:Core/Src/spi.c ****       LCD_WriteData_8bit(0x70);        // Ê®™Â±èÊòæÁ§∫
 895              		.loc 1 424 7 is_stmt 1 view .LVU237
 896 0016 3620     		movs	r0, #54
 897              	.LVL52:
 424:Core/Src/spi.c ****       LCD_WriteData_8bit(0x70);        // Ê®™Â±èÊòæÁ§∫
 898              		.loc 1 424 7 is_stmt 0 view .LVU238
 899 0018 FFF7FEFF 		bl	LCD_WriteCommand
 900              	.LVL53:
 425:Core/Src/spi.c ****       LCD.X_Offset   = 20;             // ËÆæÁΩÆÊéßÂà∂Âô®ÂùêÊ†áÂÅèÁßªÈáè
 901              		.loc 1 425 7 is_stmt 1 view .LVU239
 902 001c 7020     		movs	r0, #112
 903 001e FFF7FEFF 		bl	LCD_WriteData_8bit
 904              	.LVL54:
 426:Core/Src/spi.c ****       LCD.Y_Offset   = 0;   
 905              		.loc 1 426 7 view .LVU240
 426:Core/Src/spi.c ****       LCD.Y_Offset   = 0;   
 906              		.loc 1 426 22 is_stmt 0 view .LVU241
 907 0022 1F4B     		ldr	r3, .L62
 908 0024 1422     		movs	r2, #20
 909 0026 9A72     		strb	r2, [r3, #10]
 427:Core/Src/spi.c ****       LCD.Width      = LCD_Height;		// ÈáçÊñ∞ËµãÂ?ºÈïø„ÄÅÂÆΩ
 910              		.loc 1 427 7 is_stmt 1 view .LVU242
 427:Core/Src/spi.c ****       LCD.Width      = LCD_Height;		// ÈáçÊñ∞ËµãÂ?ºÈïø„ÄÅÂÆΩ
 911              		.loc 1 427 22 is_stmt 0 view .LVU243
 912 0028 0022     		movs	r2, #0
 913 002a DA72     		strb	r2, [r3, #11]
 428:Core/Src/spi.c ****       LCD.Height     = LCD_Width;		
 914              		.loc 1 428 7 is_stmt 1 view .LVU244
 428:Core/Src/spi.c ****       LCD.Height     = LCD_Width;		
 915              		.loc 1 428 22 is_stmt 0 view .LVU245
 916 002c 4FF4A072 		mov	r2, #320
 917 0030 DA80     		strh	r2, [r3, #6]	@ movhi
 429:Core/Src/spi.c ****    }
 918              		.loc 1 429 7 is_stmt 1 view .LVU246
 429:Core/Src/spi.c ****    }
 919              		.loc 1 429 22 is_stmt 0 view .LVU247
 920 0032 F022     		movs	r2, #240
 921 0034 1A81     		strh	r2, [r3, #8]	@ movhi
 922 0036 EDE7     		b	.L52
 923              	.LVL55:
 924              	.L59:
 433:Core/Src/spi.c ****       LCD_WriteData_8bit(0x00);        // ÂûÇÁõ¥ÊòæÁ§∫
 925              		.loc 1 433 7 is_stmt 1 view .LVU248
 926 0038 3620     		movs	r0, #54
 927              	.LVL56:
 433:Core/Src/spi.c ****       LCD_WriteData_8bit(0x00);        // ÂûÇÁõ¥ÊòæÁ§∫
 928              		.loc 1 433 7 is_stmt 0 view .LVU249
 929 003a FFF7FEFF 		bl	LCD_WriteCommand
 930              	.LVL57:
 434:Core/Src/spi.c ****       LCD.X_Offset   = 0;              // ËÆæÁΩÆÊéßÂà∂Âô®ÂùêÊ†áÂÅèÁßªÈáè
ARM GAS  C:\Users\23612\AppData\Local\Temp\cctfb4zR.s 			page 27


 931              		.loc 1 434 7 is_stmt 1 view .LVU250
 932 003e 0020     		movs	r0, #0
 933 0040 FFF7FEFF 		bl	LCD_WriteData_8bit
 934              	.LVL58:
 435:Core/Src/spi.c ****       LCD.Y_Offset   = 20;     
 935              		.loc 1 435 7 view .LVU251
 435:Core/Src/spi.c ****       LCD.Y_Offset   = 20;     
 936              		.loc 1 435 22 is_stmt 0 view .LVU252
 937 0044 164B     		ldr	r3, .L62
 938 0046 0022     		movs	r2, #0
 939 0048 9A72     		strb	r2, [r3, #10]
 436:Core/Src/spi.c ****       LCD.Width      = LCD_Width;		// ÈáçÊñ∞ËµãÂ?ºÈïø„ÄÅÂÆΩ
 940              		.loc 1 436 7 is_stmt 1 view .LVU253
 436:Core/Src/spi.c ****       LCD.Width      = LCD_Width;		// ÈáçÊñ∞ËµãÂ?ºÈïø„ÄÅÂÆΩ
 941              		.loc 1 436 22 is_stmt 0 view .LVU254
 942 004a 1422     		movs	r2, #20
 943 004c DA72     		strb	r2, [r3, #11]
 437:Core/Src/spi.c ****       LCD.Height     = LCD_Height;						
 944              		.loc 1 437 7 is_stmt 1 view .LVU255
 437:Core/Src/spi.c ****       LCD.Height     = LCD_Height;						
 945              		.loc 1 437 22 is_stmt 0 view .LVU256
 946 004e F022     		movs	r2, #240
 947 0050 DA80     		strh	r2, [r3, #6]	@ movhi
 438:Core/Src/spi.c ****    }
 948              		.loc 1 438 7 is_stmt 1 view .LVU257
 438:Core/Src/spi.c ****    }
 949              		.loc 1 438 22 is_stmt 0 view .LVU258
 950 0052 4FF4A072 		mov	r2, #320
 951 0056 1A81     		strh	r2, [r3, #8]	@ movhi
 952 0058 DCE7     		b	.L52
 953              	.LVL59:
 954              	.L60:
 442:Core/Src/spi.c ****       LCD_WriteData_8bit(0xA0);         // Ê®™Â±èÊòæÁ§∫ÔºåÂπ∂‰∏ä‰∏ãÁøªËΩ¨ÔºåRGBÂÉèÁ¥†Ê†ºÂºè
 955              		.loc 1 442 7 is_stmt 1 view .LVU259
 956 005a 3620     		movs	r0, #54
 957              	.LVL60:
 442:Core/Src/spi.c ****       LCD_WriteData_8bit(0xA0);         // Ê®™Â±èÊòæÁ§∫ÔºåÂπ∂‰∏ä‰∏ãÁøªËΩ¨ÔºåRGBÂÉèÁ¥†Ê†ºÂºè
 958              		.loc 1 442 7 is_stmt 0 view .LVU260
 959 005c FFF7FEFF 		bl	LCD_WriteCommand
 960              	.LVL61:
 443:Core/Src/spi.c ****       LCD.X_Offset   = 20;              // ËÆæÁΩÆÊéßÂà∂Âô®ÂùêÊ†áÂÅèÁßªÈáè
 961              		.loc 1 443 7 is_stmt 1 view .LVU261
 962 0060 A020     		movs	r0, #160
 963 0062 FFF7FEFF 		bl	LCD_WriteData_8bit
 964              	.LVL62:
 444:Core/Src/spi.c ****       LCD.Y_Offset   = 0;      
 965              		.loc 1 444 7 view .LVU262
 444:Core/Src/spi.c ****       LCD.Y_Offset   = 0;      
 966              		.loc 1 444 22 is_stmt 0 view .LVU263
 967 0066 0E4B     		ldr	r3, .L62
 968 0068 1422     		movs	r2, #20
 969 006a 9A72     		strb	r2, [r3, #10]
 445:Core/Src/spi.c ****       LCD.Width      = LCD_Height;		 // ÈáçÊñ∞ËµãÂ?ºÈïø„ÄÅÂÆΩ
 970              		.loc 1 445 7 is_stmt 1 view .LVU264
 445:Core/Src/spi.c ****       LCD.Width      = LCD_Height;		 // ÈáçÊñ∞ËµãÂ?ºÈïø„ÄÅÂÆΩ
 971              		.loc 1 445 22 is_stmt 0 view .LVU265
 972 006c 0022     		movs	r2, #0
ARM GAS  C:\Users\23612\AppData\Local\Temp\cctfb4zR.s 			page 28


 973 006e DA72     		strb	r2, [r3, #11]
 446:Core/Src/spi.c ****       LCD.Height     = LCD_Width;				
 974              		.loc 1 446 7 is_stmt 1 view .LVU266
 446:Core/Src/spi.c ****       LCD.Height     = LCD_Width;				
 975              		.loc 1 446 22 is_stmt 0 view .LVU267
 976 0070 4FF4A072 		mov	r2, #320
 977 0074 DA80     		strh	r2, [r3, #6]	@ movhi
 447:Core/Src/spi.c ****    }
 978              		.loc 1 447 7 is_stmt 1 view .LVU268
 447:Core/Src/spi.c ****    }
 979              		.loc 1 447 22 is_stmt 0 view .LVU269
 980 0076 F022     		movs	r2, #240
 981 0078 1A81     		strh	r2, [r3, #8]	@ movhi
 982 007a CBE7     		b	.L52
 983              	.LVL63:
 984              	.L61:
 451:Core/Src/spi.c ****       LCD_WriteData_8bit(0xC0);        // ÂûÇÁõ¥ÊòæÁ§∫ ÔºåÂπ∂‰∏ä‰∏ãÁøªËΩ¨ÔºåRGBÂÉèÁ¥†Ê†ºÂºè
 985              		.loc 1 451 7 is_stmt 1 view .LVU270
 986 007c 3620     		movs	r0, #54
 987              	.LVL64:
 451:Core/Src/spi.c ****       LCD_WriteData_8bit(0xC0);        // ÂûÇÁõ¥ÊòæÁ§∫ ÔºåÂπ∂‰∏ä‰∏ãÁøªËΩ¨ÔºåRGBÂÉèÁ¥†Ê†ºÂºè
 988              		.loc 1 451 7 is_stmt 0 view .LVU271
 989 007e FFF7FEFF 		bl	LCD_WriteCommand
 990              	.LVL65:
 452:Core/Src/spi.c ****       LCD.X_Offset   = 0;              // ËÆæÁΩÆÊéßÂà∂Âô®ÂùêÊ†áÂÅèÁßªÈáè
 991              		.loc 1 452 7 is_stmt 1 view .LVU272
 992 0082 C020     		movs	r0, #192
 993 0084 FFF7FEFF 		bl	LCD_WriteData_8bit
 994              	.LVL66:
 453:Core/Src/spi.c ****       LCD.Y_Offset   = 20;     
 995              		.loc 1 453 7 view .LVU273
 453:Core/Src/spi.c ****       LCD.Y_Offset   = 20;     
 996              		.loc 1 453 22 is_stmt 0 view .LVU274
 997 0088 054B     		ldr	r3, .L62
 998 008a 0022     		movs	r2, #0
 999 008c 9A72     		strb	r2, [r3, #10]
 454:Core/Src/spi.c ****       LCD.Width      = LCD_Width;		// ÈáçÊñ∞ËµãÂ?ºÈïø„ÄÅÂÆΩ
 1000              		.loc 1 454 7 is_stmt 1 view .LVU275
 454:Core/Src/spi.c ****       LCD.Width      = LCD_Width;		// ÈáçÊñ∞ËµãÂ?ºÈïø„ÄÅÂÆΩ
 1001              		.loc 1 454 22 is_stmt 0 view .LVU276
 1002 008e 1422     		movs	r2, #20
 1003 0090 DA72     		strb	r2, [r3, #11]
 455:Core/Src/spi.c ****       LCD.Height     = LCD_Height;				
 1004              		.loc 1 455 7 is_stmt 1 view .LVU277
 455:Core/Src/spi.c ****       LCD.Height     = LCD_Height;				
 1005              		.loc 1 455 22 is_stmt 0 view .LVU278
 1006 0092 F022     		movs	r2, #240
 1007 0094 DA80     		strh	r2, [r3, #6]	@ movhi
 456:Core/Src/spi.c ****    }   
 1008              		.loc 1 456 7 is_stmt 1 view .LVU279
 456:Core/Src/spi.c ****    }   
 1009              		.loc 1 456 22 is_stmt 0 view .LVU280
 1010 0096 4FF4A072 		mov	r2, #320
 1011 009a 1A81     		strh	r2, [r3, #8]	@ movhi
 1012              		.loc 1 458 1 view .LVU281
 1013 009c BAE7     		b	.L52
 1014              	.L63:
ARM GAS  C:\Users\23612\AppData\Local\Temp\cctfb4zR.s 			page 29


 1015 009e 00BF     		.align	2
 1016              	.L62:
 1017 00a0 00000000 		.word	.LANCHOR3
 1018              		.cfi_endproc
 1019              	.LFE181:
 1021              		.section	.text.LCD_SetAsciiFont,"ax",%progbits
 1022              		.align	1
 1023              		.global	LCD_SetAsciiFont
 1024              		.syntax unified
 1025              		.thumb
 1026              		.thumb_func
 1028              	LCD_SetAsciiFont:
 1029              	.LVL67:
 1030              	.LFB182:
 459:Core/Src/spi.c **** 
 460:Core/Src/spi.c **** /**************************************************************************************************
 461:Core/Src/spi.c **** *	Âá? Êï? Âê?:	LCD_SetAsciiFont
 462:Core/Src/spi.c **** *
 463:Core/Src/spi.c **** *	ÂÖ•Âè£ÂèÇÊï∞:	*fonts - Ë¶ÅËÆæÁΩÆÁöÑASCIIÂ≠ó‰Ωì
 464:Core/Src/spi.c **** *
 465:Core/Src/spi.c **** *	ÂáΩÊï∞ÂäüËÉΩ:	ËÆæÁΩÆASCIIÂ≠ó‰ΩìÔºåÂèØÈÄâÊã©‰ΩøÁî® 3216/2412/2010/1608/1206 ‰∫îÁßçÂ§ßÂ∞èÁöÑÂ≠ó‰Ω?
 466:Core/Src/spi.c **** *
 467:Core/Src/spi.c **** *	ËØ?    Êò?:	1. ‰ΩøÁî®Á§∫‰æã LCD_SetAsciiFont(&ASCII_Font24) ÔºåÂç≥ËÆæÁΩÆ 2412Áö? ASCIIÂ≠ó‰Ωì
 468:Core/Src/spi.c **** *					2. Áõ∏ÂÖ≥Â≠óÊ®°Â≠òÊîæÂú? lcd_fonts.c 			
 469:Core/Src/spi.c **** *
 470:Core/Src/spi.c **** ***************************************************************************************************
 471:Core/Src/spi.c **** void LCD_SetAsciiFont(pFONT *Asciifonts)
 472:Core/Src/spi.c **** {
 1031              		.loc 1 472 1 is_stmt 1 view -0
 1032              		.cfi_startproc
 1033              		@ args = 0, pretend = 0, frame = 0
 1034              		@ frame_needed = 0, uses_anonymous_args = 0
 1035              		@ link register save eliminated.
 473:Core/Src/spi.c ****   LCD_AsciiFonts = Asciifonts;
 1036              		.loc 1 473 3 view .LVU283
 1037              		.loc 1 473 18 is_stmt 0 view .LVU284
 1038 0000 014B     		ldr	r3, .L65
 1039 0002 1860     		str	r0, [r3]
 474:Core/Src/spi.c **** }
 1040              		.loc 1 474 1 view .LVU285
 1041 0004 7047     		bx	lr
 1042              	.L66:
 1043 0006 00BF     		.align	2
 1044              	.L65:
 1045 0008 00000000 		.word	.LANCHOR4
 1046              		.cfi_endproc
 1047              	.LFE182:
 1049              		.section	.text.LCD_Clear,"ax",%progbits
 1050              		.align	1
 1051              		.global	LCD_Clear
 1052              		.syntax unified
 1053              		.thumb
 1054              		.thumb_func
 1056              	LCD_Clear:
 1057              	.LFB183:
 475:Core/Src/spi.c **** 
 476:Core/Src/spi.c **** /**************************************************************************************************
ARM GAS  C:\Users\23612\AppData\Local\Temp\cctfb4zR.s 			page 30


 477:Core/Src/spi.c **** *	Âá? Êï? Âê?:	LCD_Clear
 478:Core/Src/spi.c **** *
 479:Core/Src/spi.c **** *	ÂáΩÊï∞ÂäüËÉΩ:	Ê∏ÖÂ±èÂáΩÊï∞ÔºåÂ∞ÜLCDÊ∏ÖÈô§‰∏? LCD.BackColor ÁöÑÈ¢úËâ?
 480:Core/Src/spi.c **** *
 481:Core/Src/spi.c **** *	ËØ?    Êò?:	ÂÖàÁî® LCD_SetBackColor() ËÆæÁΩÆË¶ÅÊ∏ÖÈô§ÁöÑËÉåÊôØËâ≤ÔºåÂÜçË∞ÉÁî®ËØ•ÂáΩÊï∞Ê∏ÖÂ±èÂç≥Âè
 482:Core/Src/spi.c **** *
 483:Core/Src/spi.c **** ***************************************************************************************************
 484:Core/Src/spi.c **** void LCD_Clear(void)
 485:Core/Src/spi.c **** {
 1058              		.loc 1 485 1 is_stmt 1 view -0
 1059              		.cfi_startproc
 1060              		@ args = 0, pretend = 0, frame = 0
 1061              		@ frame_needed = 0, uses_anonymous_args = 0
 1062 0000 10B5     		push	{r4, lr}
 1063              	.LCFI18:
 1064              		.cfi_def_cfa_offset 8
 1065              		.cfi_offset 4, -8
 1066              		.cfi_offset 14, -4
 486:Core/Src/spi.c **** 	for(int i=0; i<DMA_SPI_BUF_SIZE; i++)
 1067              		.loc 1 486 2 view .LVU287
 1068              	.LBB7:
 1069              		.loc 1 486 6 view .LVU288
 1070              	.LVL68:
 1071              		.loc 1 486 10 is_stmt 0 view .LVU289
 1072 0002 0023     		movs	r3, #0
 1073              		.loc 1 486 2 view .LVU290
 1074 0004 05E0     		b	.L68
 1075              	.LVL69:
 1076              	.L69:
 487:Core/Src/spi.c **** 	{
 488:Core/Src/spi.c **** 		LCD_Buff[i] = LCD.BackColor;	// ‰ΩøÁî®ËÉåÊôØËâ≤Â°´ÂÖÖÊòæÂ≠?
 1077              		.loc 1 488 3 is_stmt 1 discriminator 3 view .LVU291
 1078              		.loc 1 488 20 is_stmt 0 discriminator 3 view .LVU292
 1079 0006 164A     		ldr	r2, .L74
 1080 0008 5188     		ldrh	r1, [r2, #2]
 1081              		.loc 1 488 15 discriminator 3 view .LVU293
 1082 000a 164A     		ldr	r2, .L74+4
 1083 000c 22F81310 		strh	r1, [r2, r3, lsl #1]	@ movhi
 486:Core/Src/spi.c **** 	for(int i=0; i<DMA_SPI_BUF_SIZE; i++)
 1084              		.loc 1 486 35 is_stmt 1 discriminator 3 view .LVU294
 486:Core/Src/spi.c **** 	for(int i=0; i<DMA_SPI_BUF_SIZE; i++)
 1085              		.loc 1 486 36 is_stmt 0 discriminator 3 view .LVU295
 1086 0010 0133     		adds	r3, r3, #1
 1087              	.LVL70:
 1088              	.L68:
 486:Core/Src/spi.c **** 	for(int i=0; i<DMA_SPI_BUF_SIZE; i++)
 1089              		.loc 1 486 15 is_stmt 1 discriminator 1 view .LVU296
 486:Core/Src/spi.c **** 	for(int i=0; i<DMA_SPI_BUF_SIZE; i++)
 1090              		.loc 1 486 2 is_stmt 0 discriminator 1 view .LVU297
 1091 0012 B3F5806F 		cmp	r3, #1024
 1092 0016 F6DB     		blt	.L69
 1093              	.LBE7:
 489:Core/Src/spi.c **** 	}
 490:Core/Src/spi.c ****   	LCD_SetAddress(0,0,LCD.Width-1,LCD.Height-1);	// ËÆæÁΩÆÂùêÊ†á
 1094              		.loc 1 490 4 is_stmt 1 view .LVU298
 1095              		.loc 1 490 26 is_stmt 0 view .LVU299
 1096 0018 114B     		ldr	r3, .L74
ARM GAS  C:\Users\23612\AppData\Local\Temp\cctfb4zR.s 			page 31


 1097              	.LVL71:
 1098              		.loc 1 490 26 view .LVU300
 1099 001a DA88     		ldrh	r2, [r3, #6]
 1100              		.loc 1 490 38 view .LVU301
 1101 001c 1B89     		ldrh	r3, [r3, #8]
 1102              		.loc 1 490 4 view .LVU302
 1103 001e 013B     		subs	r3, r3, #1
 1104 0020 013A     		subs	r2, r2, #1
 1105 0022 9BB2     		uxth	r3, r3
 1106 0024 92B2     		uxth	r2, r2
 1107 0026 0021     		movs	r1, #0
 1108 0028 0846     		mov	r0, r1
 1109 002a FFF7FEFF 		bl	LCD_SetAddress
 1110              	.LVL72:
 491:Core/Src/spi.c **** 	LCD_DC_Data;     // Êï∞ÊçÆÊåá‰ª§ÈÄâÊã© ÂºïËÑöËæìÂá∫È´òÁîµÂπ≥Ôºå‰ª£Ë°®Êú¨Ê¨°‰º†Ëæì Êï∞ÊçÆ			
 1111              		.loc 1 491 2 is_stmt 1 view .LVU303
 1112 002e 0122     		movs	r2, #1
 1113 0030 1021     		movs	r1, #16
 1114 0032 0D48     		ldr	r0, .L74+8
 1115 0034 FFF7FEFF 		bl	HAL_GPIO_WritePin
 1116              	.LVL73:
 1117              		.loc 1 491 13 view .LVU304
 492:Core/Src/spi.c **** 	for(int j=0; j<75; j++)
 1118              		.loc 1 492 2 view .LVU305
 1119              	.LBB8:
 1120              		.loc 1 492 6 view .LVU306
 1121              		.loc 1 492 10 is_stmt 0 view .LVU307
 1122 0038 0024     		movs	r4, #0
 1123              		.loc 1 492 2 view .LVU308
 1124 003a 0DE0     		b	.L70
 1125              	.LVL74:
 1126              	.L72:
 493:Core/Src/spi.c **** 	{
 494:Core/Src/spi.c **** 		HAL_SPI_Transmit_DMA(&LCD_SPI, (uint8_t *)LCD_Buff, DMA_SPI_BUF_SIZE*2);	// ÂêØÂä®SPI‰º†Ëæì
 1127              		.loc 1 494 3 is_stmt 1 view .LVU309
 1128 003c 4FF40062 		mov	r2, #2048
 1129 0040 0849     		ldr	r1, .L74+4
 1130 0042 0A48     		ldr	r0, .L74+12
 1131 0044 FFF7FEFF 		bl	HAL_SPI_Transmit_DMA
 1132              	.LVL75:
 495:Core/Src/spi.c **** 		WaitSendOver();
 1133              		.loc 1 495 3 view .LVU310
 1134              	.L71:
 1135              		.loc 1 495 3 discriminator 1 view .LVU311
 1136              		.loc 1 495 3 discriminator 1 view .LVU312
 1137 0048 094B     		ldr	r3, .L74+16
 1138 004a 1B78     		ldrb	r3, [r3]	@ zero_extendqisi2
 1139 004c 002B     		cmp	r3, #0
 1140 004e FBD0     		beq	.L71
 1141              		.loc 1 495 3 discriminator 2 view .LVU313
 1142 0050 074B     		ldr	r3, .L74+16
 1143 0052 0022     		movs	r2, #0
 1144 0054 1A70     		strb	r2, [r3]
 1145              		.loc 1 495 17 discriminator 2 view .LVU314
 492:Core/Src/spi.c **** 	for(int j=0; j<75; j++)
 1146              		.loc 1 492 21 discriminator 2 view .LVU315
 492:Core/Src/spi.c **** 	for(int j=0; j<75; j++)
ARM GAS  C:\Users\23612\AppData\Local\Temp\cctfb4zR.s 			page 32


 1147              		.loc 1 492 22 is_stmt 0 discriminator 2 view .LVU316
 1148 0056 0134     		adds	r4, r4, #1
 1149              	.LVL76:
 1150              	.L70:
 492:Core/Src/spi.c **** 	for(int j=0; j<75; j++)
 1151              		.loc 1 492 15 is_stmt 1 discriminator 2 view .LVU317
 492:Core/Src/spi.c **** 	for(int j=0; j<75; j++)
 1152              		.loc 1 492 2 is_stmt 0 discriminator 2 view .LVU318
 1153 0058 4A2C     		cmp	r4, #74
 1154 005a EFDD     		ble	.L72
 1155              	.LBE8:
 496:Core/Src/spi.c **** 	}
 497:Core/Src/spi.c **** }
 1156              		.loc 1 497 1 view .LVU319
 1157 005c 10BD     		pop	{r4, pc}
 1158              	.LVL77:
 1159              	.L75:
 1160              		.loc 1 497 1 view .LVU320
 1161 005e 00BF     		.align	2
 1162              	.L74:
 1163 0060 00000000 		.word	.LANCHOR3
 1164 0064 00000000 		.word	.LANCHOR5
 1165 0068 00100240 		.word	1073876992
 1166 006c 00000000 		.word	.LANCHOR0
 1167 0070 00000000 		.word	.LANCHOR2
 1168              		.cfi_endproc
 1169              	.LFE183:
 1171              		.section	.text.LCD_ClearRect,"ax",%progbits
 1172              		.align	1
 1173              		.global	LCD_ClearRect
 1174              		.syntax unified
 1175              		.thumb
 1176              		.thumb_func
 1178              	LCD_ClearRect:
 1179              	.LVL78:
 1180              	.LFB184:
 498:Core/Src/spi.c **** 
 499:Core/Src/spi.c **** /**************************************************************************************************
 500:Core/Src/spi.c **** *	Âá? Êï? Âê?:	LCD_ClearRect
 501:Core/Src/spi.c **** *
 502:Core/Src/spi.c **** *	ÂÖ•Âè£ÂèÇÊï∞:	x - Ëµ∑ÂßãÊ∞¥Âπ≥ÂùêÊ†á
 503:Core/Src/spi.c **** *					y - Ëµ∑ÂßãÂûÇÁõ¥ÂùêÊ†á
 504:Core/Src/spi.c **** *					width  - Ë¶ÅÊ∏ÖÈô§Âå∫ÂüüÁöÑÊ®™ÂêëÈïøÂ∫¶
 505:Core/Src/spi.c **** *					height - Ë¶ÅÊ∏ÖÈô§Âå∫ÂüüÁöÑÁ∫µÂêëÂÆΩÂ∫¶
 506:Core/Src/spi.c **** *
 507:Core/Src/spi.c **** *	ÂáΩÊï∞ÂäüËÉΩ:	Â±?ÈÉ®Ê∏ÖÂ±èÂáΩÊï∞ÔºåÂ∞ÜÊåáÂÆö‰ΩçÁΩÆÂØπÂ∫îÁöÑÂå∫ÂüüÊ∏ÖÈô§‰∏? LCD.BackColor ÁöÑÈ¢úËâ
 508:Core/Src/spi.c **** *
 509:Core/Src/spi.c **** *	ËØ?    Êò?:	1. ÂÖàÁî® LCD_SetBackColor() ËÆæÁΩÆË¶ÅÊ∏ÖÈô§ÁöÑËÉåÊôØËâ≤ÔºåÂÜçË∞ÉÁî®ËØ•ÂáΩÊï∞Ê∏ÖÂ±èÂç
 510:Core/Src/spi.c **** *				   2. ‰ΩøÁî®Á§∫‰æã LCD_ClearRect( 10, 10, 100, 50) ÔºåÊ∏ÖÈô§ÂùêÊ†?(10,10)Âº?ÂßãÁöÑÈï?100ÂÆ?50Á
 511:Core/Src/spi.c **** *
 512:Core/Src/spi.c **** ***************************************************************************************************
 513:Core/Src/spi.c **** void LCD_ClearRect(uint16_t x, uint16_t y, uint16_t width, uint16_t height)
 514:Core/Src/spi.c **** {
 1181              		.loc 1 514 1 is_stmt 1 view -0
 1182              		.cfi_startproc
 1183              		@ args = 0, pretend = 0, frame = 0
 1184              		@ frame_needed = 0, uses_anonymous_args = 0
ARM GAS  C:\Users\23612\AppData\Local\Temp\cctfb4zR.s 			page 33


 1185              		.loc 1 514 1 is_stmt 0 view .LVU322
 1186 0000 08B5     		push	{r3, lr}
 1187              	.LCFI19:
 1188              		.cfi_def_cfa_offset 8
 1189              		.cfi_offset 3, -8
 1190              		.cfi_offset 14, -4
 515:Core/Src/spi.c ****    LCD_SetAddress( x, y, x+width-1, y+height-1);	// ËÆæÁΩÆÂùêÊ†á	
 1191              		.loc 1 515 4 is_stmt 1 view .LVU323
 1192              		.loc 1 515 27 is_stmt 0 view .LVU324
 1193 0002 0244     		add	r2, r2, r0
 1194              	.LVL79:
 1195              		.loc 1 515 27 view .LVU325
 1196 0004 92B2     		uxth	r2, r2
 1197              		.loc 1 515 38 view .LVU326
 1198 0006 0B44     		add	r3, r3, r1
 1199              	.LVL80:
 1200              		.loc 1 515 38 view .LVU327
 1201 0008 9BB2     		uxth	r3, r3
 1202              		.loc 1 515 4 view .LVU328
 1203 000a 013B     		subs	r3, r3, #1
 1204 000c 013A     		subs	r2, r2, #1
 1205 000e 9BB2     		uxth	r3, r3
 1206 0010 92B2     		uxth	r2, r2
 1207 0012 FFF7FEFF 		bl	LCD_SetAddress
 1208              	.LVL81:
 516:Core/Src/spi.c **** 	
 517:Core/Src/spi.c **** 	LCD_DC_Data;     // Êï∞ÊçÆÊåá‰ª§ÈÄâÊã© ÂºïËÑöËæìÂá∫È´òÁîµÂπ≥Ôºå‰ª£Ë°®Êú¨Ê¨°‰º†Ëæì Êï∞ÊçÆ		
 1209              		.loc 1 517 2 is_stmt 1 view .LVU329
 1210 0016 0122     		movs	r2, #1
 1211 0018 1021     		movs	r1, #16
 1212 001a 0B48     		ldr	r0, .L79
 1213 001c FFF7FEFF 		bl	HAL_GPIO_WritePin
 1214              	.LVL82:
 1215              		.loc 1 517 13 view .LVU330
 518:Core/Src/spi.c **** 	
 519:Core/Src/spi.c **** 	HAL_SPI_Transmit_DMA(&LCD_SPI, (uint8_t *)LCD.BackColor, LCD.Width*LCD.Height*2);	// ÂêØÂä®SPI‰º†Ë
 1216              		.loc 1 519 2 view .LVU331
 1217              		.loc 1 519 47 is_stmt 0 view .LVU332
 1218 0020 0A4B     		ldr	r3, .L79+4
 1219              		.loc 1 519 62 view .LVU333
 1220 0022 DA88     		ldrh	r2, [r3, #6]
 1221              		.loc 1 519 72 view .LVU334
 1222 0024 1989     		ldrh	r1, [r3, #8]
 1223              		.loc 1 519 2 view .LVU335
 1224 0026 12FB01F2 		smulbb	r2, r2, r1
 1225 002a 5200     		lsls	r2, r2, #1
 1226 002c 92B2     		uxth	r2, r2
 1227 002e 5988     		ldrh	r1, [r3, #2]
 1228 0030 0748     		ldr	r0, .L79+8
 1229 0032 FFF7FEFF 		bl	HAL_SPI_Transmit_DMA
 1230              	.LVL83:
 520:Core/Src/spi.c **** 	WaitSendOver();
 1231              		.loc 1 520 2 is_stmt 1 view .LVU336
 1232              	.L77:
 1233              		.loc 1 520 2 discriminator 1 view .LVU337
 1234              		.loc 1 520 2 discriminator 1 view .LVU338
 1235 0036 074B     		ldr	r3, .L79+12
ARM GAS  C:\Users\23612\AppData\Local\Temp\cctfb4zR.s 			page 34


 1236 0038 1B78     		ldrb	r3, [r3]	@ zero_extendqisi2
 1237 003a 002B     		cmp	r3, #0
 1238 003c FBD0     		beq	.L77
 1239              		.loc 1 520 2 discriminator 2 view .LVU339
 1240 003e 054B     		ldr	r3, .L79+12
 1241 0040 0022     		movs	r2, #0
 1242 0042 1A70     		strb	r2, [r3]
 1243              		.loc 1 520 16 discriminator 2 view .LVU340
 521:Core/Src/spi.c **** }
 1244              		.loc 1 521 1 is_stmt 0 discriminator 2 view .LVU341
 1245 0044 08BD     		pop	{r3, pc}
 1246              	.L80:
 1247 0046 00BF     		.align	2
 1248              	.L79:
 1249 0048 00100240 		.word	1073876992
 1250 004c 00000000 		.word	.LANCHOR3
 1251 0050 00000000 		.word	.LANCHOR0
 1252 0054 00000000 		.word	.LANCHOR2
 1253              		.cfi_endproc
 1254              	.LFE184:
 1256              		.section	.text.LCD_DrawPoint,"ax",%progbits
 1257              		.align	1
 1258              		.global	LCD_DrawPoint
 1259              		.syntax unified
 1260              		.thumb
 1261              		.thumb_func
 1263              	LCD_DrawPoint:
 1264              	.LVL84:
 1265              	.LFB185:
 522:Core/Src/spi.c **** 
 523:Core/Src/spi.c **** /**************************************************************************************************
 524:Core/Src/spi.c **** *	Âá? Êï? Âê?:	LCD_DrawPoint
 525:Core/Src/spi.c **** *
 526:Core/Src/spi.c **** *	ÂÖ•Âè£ÂèÇÊï∞:	x - Ëµ∑ÂßãÊ∞¥Âπ≥ÂùêÊ†á
 527:Core/Src/spi.c **** *					y - Ëµ∑ÂßãÂûÇÁõ¥ÂùêÊ†á
 528:Core/Src/spi.c **** *					color  - Ë¶ÅÁªòÂà∂ÁöÑÈ¢úËâ≤Ôºå‰ΩøÁî? 24‰Ω? RGB888 ÁöÑÈ¢úËâ≤Ê†ºÂºèÔºåÁî®Êà∑Êó†ÈúÄÂÖ≥ÂøÉÈ¢úËâ≤Ê
 529:Core/Src/spi.c **** *
 530:Core/Src/spi.c **** *	ÂáΩÊï∞ÂäüËÉΩ:	Âú®ÊåáÂÆöÂùêÊ†áÁªòÂà∂ÊåáÂÆöÈ¢úËâ≤ÁöÑÁÇ?
 531:Core/Src/spi.c **** *
 532:Core/Src/spi.c **** *	ËØ?    Êò?:	‰ΩøÁî®Á§∫‰æã LCD_DrawPoint( 10, 10, 0x0000FF) ÔºåÂú®ÂùêÊ†á(10,10)ÁªòÂà∂ËìùËâ≤ÁöÑÁÇπ
 533:Core/Src/spi.c **** *
 534:Core/Src/spi.c **** ***************************************************************************************************
 535:Core/Src/spi.c **** void LCD_DrawPoint(uint16_t x,uint16_t y,uint16_t color)
 536:Core/Src/spi.c **** {
 1266              		.loc 1 536 1 is_stmt 1 view -0
 1267              		.cfi_startproc
 1268              		@ args = 0, pretend = 0, frame = 0
 1269              		@ frame_needed = 0, uses_anonymous_args = 0
 1270              		.loc 1 536 1 is_stmt 0 view .LVU343
 1271 0000 10B5     		push	{r4, lr}
 1272              	.LCFI20:
 1273              		.cfi_def_cfa_offset 8
 1274              		.cfi_offset 4, -8
 1275              		.cfi_offset 14, -4
 1276 0002 0B46     		mov	r3, r1
 1277 0004 1446     		mov	r4, r2
 537:Core/Src/spi.c **** 	LCD_SetAddress(x,y,x,y);	//	ËÆæÁΩÆÂùêÊ†á 
ARM GAS  C:\Users\23612\AppData\Local\Temp\cctfb4zR.s 			page 35


 1278              		.loc 1 537 2 is_stmt 1 view .LVU344
 1279 0006 0246     		mov	r2, r0
 1280              	.LVL85:
 1281              		.loc 1 537 2 is_stmt 0 view .LVU345
 1282 0008 FFF7FEFF 		bl	LCD_SetAddress
 1283              	.LVL86:
 538:Core/Src/spi.c **** 
 539:Core/Src/spi.c **** 	LCD_WriteData_16bit(color)	;
 1284              		.loc 1 539 2 is_stmt 1 view .LVU346
 1285 000c 2046     		mov	r0, r4
 1286 000e FFF7FEFF 		bl	LCD_WriteData_16bit
 1287              	.LVL87:
 540:Core/Src/spi.c **** }
 1288              		.loc 1 540 1 is_stmt 0 view .LVU347
 1289 0012 10BD     		pop	{r4, pc}
 1290              		.cfi_endproc
 1291              	.LFE185:
 1293              		.section	.text.LCD_DisplayChar,"ax",%progbits
 1294              		.align	1
 1295              		.global	LCD_DisplayChar
 1296              		.syntax unified
 1297              		.thumb
 1298              		.thumb_func
 1300              	LCD_DisplayChar:
 1301              	.LVL88:
 1302              	.LFB186:
 541:Core/Src/spi.c **** 
 542:Core/Src/spi.c **** /**************************************************************************************************
 543:Core/Src/spi.c **** *	Âá? Êï? Âê?:	LCD_DisplayChar
 544:Core/Src/spi.c **** *
 545:Core/Src/spi.c **** *	ÂÖ•Âè£ÂèÇÊï∞:	x - Ëµ∑ÂßãÊ∞¥Âπ≥ÂùêÊ†á
 546:Core/Src/spi.c **** *					y - Ëµ∑ÂßãÂûÇÁõ¥ÂùêÊ†á
 547:Core/Src/spi.c **** *					c  - ASCIIÂ≠óÁ¨¶
 548:Core/Src/spi.c **** *
 549:Core/Src/spi.c **** *	ÂáΩÊï∞ÂäüËÉΩ:	Âú®ÊåáÂÆöÂùêÊ†áÊòæÁ§∫ÊåáÂÆöÁöÑÂ≠óÁ¨¶
 550:Core/Src/spi.c **** *
 551:Core/Src/spi.c **** *	ËØ?    Êò?:	1. ÂèØËÆæÁΩÆË¶ÅÊòæÁ§∫ÁöÑÂ≠ó‰ΩìÔºå‰æãÂ¶Ç‰ΩøÁî® LCD_SetAsciiFont(&ASCII_Font24) ËÆæÁΩÆ‰
 552:Core/Src/spi.c **** *					2.	ÂèØËÆæÁΩÆË¶ÅÊòæÁ§∫ÁöÑÈ¢úËâ≤Ôºå‰æãÂ¶Ç‰ΩøÁî® LCD_SetColor(0xff0000FF) ËÆæÁΩÆ‰∏∫ËìùËâ?
 553:Core/Src/spi.c **** *					3. ÂèØËÆæÁΩÆÂØπÂ∫îÁöÑËÉåÊôØËâ≤Ôºå‰æãÂ¶Ç‰ΩøÁî® LCD_SetBackColor(0x000000) ËÆæÁΩÆ‰∏∫ÈªëËâ≤ÁöÑËÉ
 554:Core/Src/spi.c **** *					4. ‰ΩøÁî®Á§∫‰æã LCD_DisplayChar( 10, 10, 'a') ÔºåÂú®ÂùêÊ†á(10,10)ÊòæÁ§∫Â≠óÁ¨¶ 'a'
 555:Core/Src/spi.c **** *
 556:Core/Src/spi.c **** ***************************************************************************************************
 557:Core/Src/spi.c **** void LCD_DisplayChar(uint16_t x, uint16_t y,uint8_t c)
 558:Core/Src/spi.c **** {
 1303              		.loc 1 558 1 is_stmt 1 view -0
 1304              		.cfi_startproc
 1305              		@ args = 0, pretend = 0, frame = 0
 1306              		@ frame_needed = 0, uses_anonymous_args = 0
 1307              		.loc 1 558 1 is_stmt 0 view .LVU349
 1308 0000 2DE9F041 		push	{r4, r5, r6, r7, r8, lr}
 1309              	.LCFI21:
 1310              		.cfi_def_cfa_offset 24
 1311              		.cfi_offset 4, -24
 1312              		.cfi_offset 5, -20
 1313              		.cfi_offset 6, -16
 1314              		.cfi_offset 7, -12
 1315              		.cfi_offset 8, -8
ARM GAS  C:\Users\23612\AppData\Local\Temp\cctfb4zR.s 			page 36


 1316              		.cfi_offset 14, -4
 559:Core/Src/spi.c **** 	uint16_t  index = 0, counter = 0 ,i = 0, w = 0;		// ËÆ°Êï∞ÂèòÈáè
 1317              		.loc 1 559 2 is_stmt 1 view .LVU350
 1318              	.LVL89:
 560:Core/Src/spi.c ****    	uint8_t   disChar;		//Â≠òÂÇ®Â≠óÁ¨¶ÁöÑÂú∞Âù?
 1319              		.loc 1 560 5 view .LVU351
 561:Core/Src/spi.c **** 
 562:Core/Src/spi.c **** 	c = c - 32; 	// ËÆ°ÁÆóASCIIÂ≠óÁ¨¶ÁöÑÂÅèÁß?
 1320              		.loc 1 562 2 view .LVU352
 1321              		.loc 1 562 4 is_stmt 0 view .LVU353
 1322 0004 A2F12007 		sub	r7, r2, #32
 1323 0008 FFB2     		uxtb	r7, r7
 1324              	.LVL90:
 563:Core/Src/spi.c **** 
 564:Core/Src/spi.c **** 	for(index = 0; index < LCD_AsciiFonts->Sizes; index++)	
 1325              		.loc 1 564 2 is_stmt 1 view .LVU354
 559:Core/Src/spi.c ****    	uint8_t   disChar;		//Â≠òÂÇ®Â≠óÁ¨¶ÁöÑÂú∞Âù?
 1326              		.loc 1 559 43 is_stmt 0 view .LVU355
 1327 000a 0023     		movs	r3, #0
 559:Core/Src/spi.c ****    	uint8_t   disChar;		//Â≠òÂÇ®Â≠óÁ¨¶ÁöÑÂú∞Âù?
 1328              		.loc 1 559 36 view .LVU356
 1329 000c 9E46     		mov	lr, r3
 1330              		.loc 1 564 12 view .LVU357
 1331 000e 1E46     		mov	r6, r3
 1332              		.loc 1 564 2 view .LVU358
 1333 0010 23E0     		b	.L84
 1334              	.LVL91:
 1335              	.L86:
 565:Core/Src/spi.c **** 	{
 566:Core/Src/spi.c **** 		disChar = LCD_AsciiFonts->pTable[c*LCD_AsciiFonts->Sizes + index]; //Ëé∑ÂèñÂ≠óÁ¨¶ÁöÑÊ®°ÂÄ?
 567:Core/Src/spi.c **** 		for(counter = 0; counter < 8; counter++)
 568:Core/Src/spi.c **** 		{ 
 569:Core/Src/spi.c **** 			if(disChar & 0x01)	
 570:Core/Src/spi.c **** 			{		
 571:Core/Src/spi.c ****             LCD_Buff[i] =  LCD.Color;			// ÂΩìÂâçÊ®°Â?º‰∏ç‰∏?0Êó∂Ôºå‰ΩøÁî®ÁîªÁ¨îËâ≤ÁªòÁÇ?
 572:Core/Src/spi.c **** 			}
 573:Core/Src/spi.c **** 			else		
 574:Core/Src/spi.c **** 			{		
 575:Core/Src/spi.c ****             LCD_Buff[i] = LCD.BackColor;		//Âê¶Âàô‰ΩøÁî®ËÉåÊôØËâ≤ÁªòÂà∂ÁÇπ
 1336              		.loc 1 575 13 is_stmt 1 view .LVU359
 1337              		.loc 1 575 30 is_stmt 0 view .LVU360
 1338 0012 244A     		ldr	r2, .L94
 1339 0014 B2F80280 		ldrh	r8, [r2, #2]
 1340              		.loc 1 575 25 view .LVU361
 1341 0018 234A     		ldr	r2, .L94+4
 1342 001a 22F81E80 		strh	r8, [r2, lr, lsl #1]	@ movhi
 1343              	.L87:
 576:Core/Src/spi.c **** 			}
 577:Core/Src/spi.c **** 			disChar >>= 1;
 1344              		.loc 1 577 4 is_stmt 1 view .LVU362
 1345              		.loc 1 577 12 is_stmt 0 view .LVU363
 1346 001e 6408     		lsrs	r4, r4, #1
 1347              	.LVL92:
 578:Core/Src/spi.c **** 			i++;
 1348              		.loc 1 578 4 is_stmt 1 view .LVU364
 1349              		.loc 1 578 5 is_stmt 0 view .LVU365
 1350 0020 0EF1010E 		add	lr, lr, #1
ARM GAS  C:\Users\23612\AppData\Local\Temp\cctfb4zR.s 			page 37


 1351              	.LVL93:
 1352              		.loc 1 578 5 view .LVU366
 1353 0024 1FFA8EFE 		uxth	lr, lr
 1354              	.LVL94:
 579:Core/Src/spi.c ****          	w++;
 1355              		.loc 1 579 11 is_stmt 1 view .LVU367
 1356              		.loc 1 579 12 is_stmt 0 view .LVU368
 1357 0028 0133     		adds	r3, r3, #1
 1358              	.LVL95:
 1359              		.loc 1 579 12 view .LVU369
 1360 002a 9BB2     		uxth	r3, r3
 1361              	.LVL96:
 580:Core/Src/spi.c ****  			if( w == LCD_AsciiFonts->Width ) // Â¶ÇÊûúÂÜôÂÖ•ÁöÑÊï∞ÊçÆËææÂà∞‰∫ÜÂ≠óÁ¨¶ÂÆΩÂ∫¶ÔºåÂàôÈÄ?Âá∫ÂΩìÂâ
 1362              		.loc 1 580 5 is_stmt 1 view .LVU370
 1363              		.loc 1 580 28 is_stmt 0 view .LVU371
 1364 002c AA88     		ldrh	r2, [r5, #4]
 1365              		.loc 1 580 7 view .LVU372
 1366 002e 9A42     		cmp	r2, r3
 1367 0030 10D0     		beq	.L91
 567:Core/Src/spi.c **** 		{ 
 1368              		.loc 1 567 33 is_stmt 1 discriminator 2 view .LVU373
 567:Core/Src/spi.c **** 		{ 
 1369              		.loc 1 567 40 is_stmt 0 discriminator 2 view .LVU374
 1370 0032 0CF1010C 		add	ip, ip, #1
 1371              	.LVL97:
 567:Core/Src/spi.c **** 		{ 
 1372              		.loc 1 567 40 discriminator 2 view .LVU375
 1373 0036 1FFA8CFC 		uxth	ip, ip
 1374              	.LVL98:
 1375              	.L85:
 567:Core/Src/spi.c **** 		{ 
 1376              		.loc 1 567 20 is_stmt 1 discriminator 1 view .LVU376
 567:Core/Src/spi.c **** 		{ 
 1377              		.loc 1 567 3 is_stmt 0 discriminator 1 view .LVU377
 1378 003a BCF1070F 		cmp	ip, #7
 1379 003e 0AD8     		bhi	.L88
 569:Core/Src/spi.c **** 			{		
 1380              		.loc 1 569 4 is_stmt 1 view .LVU378
 569:Core/Src/spi.c **** 			{		
 1381              		.loc 1 569 6 is_stmt 0 view .LVU379
 1382 0040 14F0010F 		tst	r4, #1
 1383 0044 E5D0     		beq	.L86
 571:Core/Src/spi.c **** 			}
 1384              		.loc 1 571 13 is_stmt 1 view .LVU380
 571:Core/Src/spi.c **** 			}
 1385              		.loc 1 571 31 is_stmt 0 view .LVU381
 1386 0046 174A     		ldr	r2, .L94
 1387 0048 B2F80080 		ldrh	r8, [r2]
 571:Core/Src/spi.c **** 			}
 1388              		.loc 1 571 25 view .LVU382
 1389 004c 164A     		ldr	r2, .L94+4
 1390 004e 22F81E80 		strh	r8, [r2, lr, lsl #1]	@ movhi
 1391 0052 E4E7     		b	.L87
 1392              	.L91:
 581:Core/Src/spi.c **** 			{								   // ËøõÂÖ•‰∏ã‰∏ÄÂ≠óÁ¨¶ÁöÑÂÜôÂÖ•ÁöÑÁªòÂà∂
 582:Core/Src/spi.c **** 				w = 0;
 1393              		.loc 1 582 7 view .LVU383
ARM GAS  C:\Users\23612\AppData\Local\Temp\cctfb4zR.s 			page 38


 1394 0054 0023     		movs	r3, #0
 1395              	.LVL99:
 1396              	.L88:
 564:Core/Src/spi.c **** 	{
 1397              		.loc 1 564 48 is_stmt 1 discriminator 2 view .LVU384
 564:Core/Src/spi.c **** 	{
 1398              		.loc 1 564 53 is_stmt 0 discriminator 2 view .LVU385
 1399 0056 0136     		adds	r6, r6, #1
 1400              	.LVL100:
 564:Core/Src/spi.c **** 	{
 1401              		.loc 1 564 53 discriminator 2 view .LVU386
 1402 0058 B6B2     		uxth	r6, r6
 1403              	.LVL101:
 1404              	.L84:
 564:Core/Src/spi.c **** 	{
 1405              		.loc 1 564 17 is_stmt 1 discriminator 1 view .LVU387
 564:Core/Src/spi.c **** 	{
 1406              		.loc 1 564 39 is_stmt 0 discriminator 1 view .LVU388
 1407 005a 144A     		ldr	r2, .L94+8
 1408 005c 1568     		ldr	r5, [r2]
 1409 005e 2C89     		ldrh	r4, [r5, #8]
 564:Core/Src/spi.c **** 	{
 1410              		.loc 1 564 2 discriminator 1 view .LVU389
 1411 0060 B442     		cmp	r4, r6
 1412 0062 06D9     		bls	.L93
 566:Core/Src/spi.c **** 		for(counter = 0; counter < 8; counter++)
 1413              		.loc 1 566 3 is_stmt 1 view .LVU390
 566:Core/Src/spi.c **** 		for(counter = 0; counter < 8; counter++)
 1414              		.loc 1 566 27 is_stmt 0 view .LVU391
 1415 0064 2A68     		ldr	r2, [r5]
 566:Core/Src/spi.c **** 		for(counter = 0; counter < 8; counter++)
 1416              		.loc 1 566 60 view .LVU392
 1417 0066 04FB0764 		mla	r4, r4, r7, r6
 566:Core/Src/spi.c **** 		for(counter = 0; counter < 8; counter++)
 1418              		.loc 1 566 11 view .LVU393
 1419 006a 145D     		ldrb	r4, [r2, r4]	@ zero_extendqisi2
 1420              	.LVL102:
 567:Core/Src/spi.c **** 		{ 
 1421              		.loc 1 567 3 is_stmt 1 view .LVU394
 567:Core/Src/spi.c **** 		{ 
 1422              		.loc 1 567 15 is_stmt 0 view .LVU395
 1423 006c 4FF0000C 		mov	ip, #0
 567:Core/Src/spi.c **** 		{ 
 1424              		.loc 1 567 3 view .LVU396
 1425 0070 E3E7     		b	.L85
 1426              	.LVL103:
 1427              	.L93:
 583:Core/Src/spi.c **** 				break;
 584:Core/Src/spi.c **** 			}        
 585:Core/Src/spi.c **** 		}	
 586:Core/Src/spi.c **** 	}		
 587:Core/Src/spi.c ****    LCD_SetAddress( x, y, x+LCD_AsciiFonts->Width-1, y+LCD_AsciiFonts->Height-1);	   // ËÆæÁΩÆÂùêÊ†á
 1428              		.loc 1 587 4 is_stmt 1 view .LVU397
 1429              		.loc 1 587 42 is_stmt 0 view .LVU398
 1430 0072 AA88     		ldrh	r2, [r5, #4]
 1431              		.loc 1 587 27 view .LVU399
 1432 0074 0244     		add	r2, r2, r0
ARM GAS  C:\Users\23612\AppData\Local\Temp\cctfb4zR.s 			page 39


 1433 0076 92B2     		uxth	r2, r2
 1434              		.loc 1 587 69 view .LVU400
 1435 0078 EB88     		ldrh	r3, [r5, #6]
 1436              	.LVL104:
 1437              		.loc 1 587 54 view .LVU401
 1438 007a 0B44     		add	r3, r3, r1
 1439 007c 9BB2     		uxth	r3, r3
 1440              		.loc 1 587 4 view .LVU402
 1441 007e 013B     		subs	r3, r3, #1
 1442 0080 013A     		subs	r2, r2, #1
 1443 0082 9BB2     		uxth	r3, r3
 1444 0084 92B2     		uxth	r2, r2
 1445 0086 FFF7FEFF 		bl	LCD_SetAddress
 1446              	.LVL105:
 588:Core/Src/spi.c ****    LCD_WriteBuff(LCD_Buff,LCD_AsciiFonts->Width*LCD_AsciiFonts->Height);          // ÂÜôÂÖ•ÊòæÂ≠ò
 1447              		.loc 1 588 4 is_stmt 1 view .LVU403
 1448              		.loc 1 588 41 is_stmt 0 view .LVU404
 1449 008a 084B     		ldr	r3, .L94+8
 1450 008c 1B68     		ldr	r3, [r3]
 1451 008e 9988     		ldrh	r1, [r3, #4]
 1452              		.loc 1 588 63 view .LVU405
 1453 0090 DB88     		ldrh	r3, [r3, #6]
 1454              		.loc 1 588 4 view .LVU406
 1455 0092 11FB03F1 		smulbb	r1, r1, r3
 1456 0096 89B2     		uxth	r1, r1
 1457 0098 0348     		ldr	r0, .L94+4
 1458 009a FFF7FEFF 		bl	LCD_WriteBuff
 1459              	.LVL106:
 589:Core/Src/spi.c **** }
 1460              		.loc 1 589 1 view .LVU407
 1461 009e BDE8F081 		pop	{r4, r5, r6, r7, r8, pc}
 1462              	.LVL107:
 1463              	.L95:
 1464              		.loc 1 589 1 view .LVU408
 1465 00a2 00BF     		.align	2
 1466              	.L94:
 1467 00a4 00000000 		.word	.LANCHOR3
 1468 00a8 00000000 		.word	.LANCHOR5
 1469 00ac 00000000 		.word	.LANCHOR4
 1470              		.cfi_endproc
 1471              	.LFE186:
 1473              		.section	.text.LCD_DisplayString,"ax",%progbits
 1474              		.align	1
 1475              		.global	LCD_DisplayString
 1476              		.syntax unified
 1477              		.thumb
 1478              		.thumb_func
 1480              	LCD_DisplayString:
 1481              	.LVL108:
 1482              	.LFB187:
 590:Core/Src/spi.c **** 
 591:Core/Src/spi.c **** /**************************************************************************************************
 592:Core/Src/spi.c **** *	Âá? Êï? Âê?:	LCD_DisplayString
 593:Core/Src/spi.c **** *
 594:Core/Src/spi.c **** *	ÂÖ•Âè£ÂèÇÊï∞:	x - Ëµ∑ÂßãÊ∞¥Âπ≥ÂùêÊ†á
 595:Core/Src/spi.c **** *					y - Ëµ∑ÂßãÂûÇÁõ¥ÂùêÊ†á
 596:Core/Src/spi.c **** *					p - ASCIIÂ≠óÁ¨¶‰∏≤ÁöÑÈ¶ñÂú∞Âù?
ARM GAS  C:\Users\23612\AppData\Local\Temp\cctfb4zR.s 			page 40


 597:Core/Src/spi.c **** *
 598:Core/Src/spi.c **** *	ÂáΩÊï∞ÂäüËÉΩ:	Âú®ÊåáÂÆöÂùêÊ†áÊòæÁ§∫ÊåáÂÆöÁöÑÂ≠óÁ¨¶‰∏?
 599:Core/Src/spi.c **** *
 600:Core/Src/spi.c **** *	ËØ?    Êò?:	1. ÂèØËÆæÁΩÆË¶ÅÊòæÁ§∫ÁöÑÂ≠ó‰ΩìÔºå‰æãÂ¶Ç‰ΩøÁî® LCD_SetAsciiFont(&ASCII_Font24) ËÆæÁΩÆ‰
 601:Core/Src/spi.c **** *					2.	ÂèØËÆæÁΩÆË¶ÅÊòæÁ§∫ÁöÑÈ¢úËâ≤Ôºå‰æãÂ¶Ç‰ΩøÁî® LCD_SetColor(0x0000FF) ËÆæÁΩÆ‰∏∫ËìùËâ?
 602:Core/Src/spi.c **** *					3. ÂèØËÆæÁΩÆÂØπÂ∫îÁöÑËÉåÊôØËâ≤Ôºå‰æãÂ¶Ç‰ΩøÁî® LCD_SetBackColor(0x000000) ËÆæÁΩÆ‰∏∫ÈªëËâ≤ÁöÑËÉ
 603:Core/Src/spi.c **** *					4. ‰ΩøÁî®Á§∫‰æã LCD_DisplayString( 10, 10, "FANKE") ÔºåÂú®Ëµ∑ÂßãÂùêÊ†á‰∏?(10,10)ÁöÑÂú∞ÊñπÊòæÁ
 604:Core/Src/spi.c **** *
 605:Core/Src/spi.c **** ***************************************************************************************************
 606:Core/Src/spi.c **** void LCD_DisplayString( uint16_t x, uint16_t y, char *p) 
 607:Core/Src/spi.c **** {  
 1483              		.loc 1 607 1 is_stmt 1 view -0
 1484              		.cfi_startproc
 1485              		@ args = 0, pretend = 0, frame = 0
 1486              		@ frame_needed = 0, uses_anonymous_args = 0
 1487              		.loc 1 607 1 is_stmt 0 view .LVU410
 1488 0000 70B5     		push	{r4, r5, r6, lr}
 1489              	.LCFI22:
 1490              		.cfi_def_cfa_offset 16
 1491              		.cfi_offset 4, -16
 1492              		.cfi_offset 5, -12
 1493              		.cfi_offset 6, -8
 1494              		.cfi_offset 14, -4
 1495 0002 0446     		mov	r4, r0
 1496 0004 0E46     		mov	r6, r1
 1497 0006 1546     		mov	r5, r2
 608:Core/Src/spi.c **** 	while ((x < LCD.Width) && (*p != 0))	//Âà§Êñ≠ÊòæÁ§∫ÂùêÊ†áÊòØÂê¶Ë∂ÖÂá∫ÊòæÁ§∫Âå∫ÂüüÂπ∂‰∏îÂ≠óÁ¨¶ÊòØÂê
 1498              		.loc 1 608 2 is_stmt 1 view .LVU411
 1499              		.loc 1 608 8 is_stmt 0 view .LVU412
 1500 0008 09E0     		b	.L97
 1501              	.LVL109:
 1502              	.L99:
 609:Core/Src/spi.c **** 	{
 610:Core/Src/spi.c **** 		 LCD_DisplayChar( x,y,*p);
 1503              		.loc 1 610 4 is_stmt 1 view .LVU413
 1504 000a 3146     		mov	r1, r6
 1505 000c 2046     		mov	r0, r4
 1506 000e FFF7FEFF 		bl	LCD_DisplayChar
 1507              	.LVL110:
 611:Core/Src/spi.c **** 		 x += LCD_AsciiFonts->Width; //ÊòæÁ§∫‰∏ã‰∏Ä‰∏™Â≠óÁ¨?
 1508              		.loc 1 611 4 view .LVU414
 1509              		.loc 1 611 23 is_stmt 0 view .LVU415
 1510 0012 074B     		ldr	r3, .L101
 1511 0014 1B68     		ldr	r3, [r3]
 1512 0016 9888     		ldrh	r0, [r3, #4]
 1513              		.loc 1 611 6 view .LVU416
 1514 0018 0444     		add	r4, r4, r0
 1515              	.LVL111:
 1516              		.loc 1 611 6 view .LVU417
 1517 001a A4B2     		uxth	r4, r4
 1518              	.LVL112:
 612:Core/Src/spi.c **** 		 p++;	//Âèñ‰∏ã‰∏?‰∏™Â≠óÁ¨¶Âú∞Âù?
 1519              		.loc 1 612 4 is_stmt 1 view .LVU418
 1520              		.loc 1 612 5 is_stmt 0 view .LVU419
 1521 001c 0135     		adds	r5, r5, #1
 1522              	.LVL113:
 1523              	.L97:
ARM GAS  C:\Users\23612\AppData\Local\Temp\cctfb4zR.s 			page 41


 608:Core/Src/spi.c **** 	{
 1524              		.loc 1 608 8 is_stmt 1 view .LVU420
 608:Core/Src/spi.c **** 	{
 1525              		.loc 1 608 17 is_stmt 0 view .LVU421
 1526 001e 054B     		ldr	r3, .L101+4
 1527 0020 DB88     		ldrh	r3, [r3, #6]
 608:Core/Src/spi.c **** 	{
 1528              		.loc 1 608 8 view .LVU422
 1529 0022 A342     		cmp	r3, r4
 1530 0024 02D9     		bls	.L96
 608:Core/Src/spi.c **** 	{
 1531              		.loc 1 608 29 discriminator 1 view .LVU423
 1532 0026 2A78     		ldrb	r2, [r5]	@ zero_extendqisi2
 608:Core/Src/spi.c **** 	{
 1533              		.loc 1 608 25 discriminator 1 view .LVU424
 1534 0028 002A     		cmp	r2, #0
 1535 002a EED1     		bne	.L99
 1536              	.L96:
 613:Core/Src/spi.c **** 	}
 614:Core/Src/spi.c **** }
 1537              		.loc 1 614 1 view .LVU425
 1538 002c 70BD     		pop	{r4, r5, r6, pc}
 1539              	.LVL114:
 1540              	.L102:
 1541              		.loc 1 614 1 view .LVU426
 1542 002e 00BF     		.align	2
 1543              	.L101:
 1544 0030 00000000 		.word	.LANCHOR4
 1545 0034 00000000 		.word	.LANCHOR3
 1546              		.cfi_endproc
 1547              	.LFE187:
 1549              		.section	.text.LCD_ShowNumMode,"ax",%progbits
 1550              		.align	1
 1551              		.global	LCD_ShowNumMode
 1552              		.syntax unified
 1553              		.thumb
 1554              		.thumb_func
 1556              	LCD_ShowNumMode:
 1557              	.LVL115:
 1558              	.LFB188:
 615:Core/Src/spi.c **** 
 616:Core/Src/spi.c **** /**************************************************************************************************
 617:Core/Src/spi.c **** *	Âá? Êï? Âê?:	LCD_ShowNumMode
 618:Core/Src/spi.c **** *
 619:Core/Src/spi.c **** *	ÂÖ•Âè£ÂèÇÊï∞:	mode - ËÆæÁΩÆÂèòÈáèÁöÑÊòæÁ§∫Ê®°Âº?
 620:Core/Src/spi.c **** *
 621:Core/Src/spi.c **** *	ÂáΩÊï∞ÂäüËÉΩ:	ËÆæÁΩÆÂèòÈáèÊòæÁ§∫Êó∂Â§ö‰Ωô‰ΩçË°?0ËøòÊòØË°•Á©∫Ê†ºÔºåÂèØËæìÂÖ•ÂèÇÊï? Fill_Space Â°´Â
 622:Core/Src/spi.c **** *
 623:Core/Src/spi.c **** *	ËØ?    Êò?:   1. Âè™Êúâ LCD_DisplayNumber() ÊòæÁ§∫Êï¥Êï∞ Âí? LCD_DisplayDecimals()ÊòæÁ§∫Â∞èÊï∞ Ëø
 624:Core/Src/spi.c **** *					2. ‰ΩøÁî®Á§∫‰æã LCD_ShowNumMode(Fill_Zero) ËÆæÁΩÆÂ§ö‰Ωô‰ΩçÂ°´ÂÖ?0Ôºå‰æãÂ¶? 123 ÂèØ‰ª•ÊòæÁ§∫‰∏
 625:Core/Src/spi.c **** *
 626:Core/Src/spi.c **** ***************************************************************************************************
 627:Core/Src/spi.c **** void LCD_ShowNumMode(uint8_t mode)
 628:Core/Src/spi.c **** {
 1559              		.loc 1 628 1 is_stmt 1 view -0
 1560              		.cfi_startproc
 1561              		@ args = 0, pretend = 0, frame = 0
ARM GAS  C:\Users\23612\AppData\Local\Temp\cctfb4zR.s 			page 42


 1562              		@ frame_needed = 0, uses_anonymous_args = 0
 1563              		@ link register save eliminated.
 629:Core/Src/spi.c **** 	LCD.ShowNum_Mode = mode;
 1564              		.loc 1 629 2 view .LVU428
 1565              		.loc 1 629 19 is_stmt 0 view .LVU429
 1566 0000 014B     		ldr	r3, .L104
 1567 0002 1871     		strb	r0, [r3, #4]
 630:Core/Src/spi.c **** }
 1568              		.loc 1 630 1 view .LVU430
 1569 0004 7047     		bx	lr
 1570              	.L105:
 1571 0006 00BF     		.align	2
 1572              	.L104:
 1573 0008 00000000 		.word	.LANCHOR3
 1574              		.cfi_endproc
 1575              	.LFE188:
 1577              		.section	.text.SPI_LCD_Init,"ax",%progbits
 1578              		.align	1
 1579              		.global	SPI_LCD_Init
 1580              		.syntax unified
 1581              		.thumb
 1582              		.thumb_func
 1584              	SPI_LCD_Init:
 1585              	.LFB177:
 257:Core/Src/spi.c ****    	MX_SPI3_Init();               // ÂàùÂßãÂåñSPIÂíåÊéßÂà∂ÂºïËÑ?
 1586              		.loc 1 257 1 is_stmt 1 view -0
 1587              		.cfi_startproc
 1588              		@ args = 0, pretend = 0, frame = 0
 1589              		@ frame_needed = 0, uses_anonymous_args = 0
 1590 0000 08B5     		push	{r3, lr}
 1591              	.LCFI23:
 1592              		.cfi_def_cfa_offset 8
 1593              		.cfi_offset 3, -8
 1594              		.cfi_offset 14, -4
 258:Core/Src/spi.c ****     HAL_Delay(10);               // Â±èÂπïÂàöÂÆåÊàêÂ§ç‰ΩçÊó∂ÔºàÂåÖÊã¨‰∏äÁîµÂ§ç‰ΩçÔºâÔºåÈúÄË¶ÅÁ≠âÂæ?
 1595              		.loc 1 258 5 view .LVU432
 1596 0002 FFF7FEFF 		bl	MX_SPI3_Init
 1597              	.LVL116:
 259:Core/Src/spi.c **** 
 1598              		.loc 1 259 5 view .LVU433
 1599 0006 0A20     		movs	r0, #10
 1600 0008 FFF7FEFF 		bl	HAL_Delay
 1601              	.LVL117:
 261:Core/Src/spi.c **** 	LCD_WriteData_8bit(0x00);     // ÈÖçÁΩÆÊà? ‰ªé‰∏äÂà∞‰∏ã„ÄÅ‰ªéÂ∑¶Âà∞Âè≥ÔºåRGBÂÉèÁ¥†Ê†ºÂºè
 1602              		.loc 1 261 3 view .LVU434
 1603 000c 3620     		movs	r0, #54
 1604 000e FFF7FEFF 		bl	LCD_WriteCommand
 1605              	.LVL118:
 262:Core/Src/spi.c **** 
 1606              		.loc 1 262 2 view .LVU435
 1607 0012 0020     		movs	r0, #0
 1608 0014 FFF7FEFF 		bl	LCD_WriteData_8bit
 1609              	.LVL119:
 264:Core/Src/spi.c **** 	LCD_WriteData_8bit(0x05);     // Ê≠§Â§ÑÈÖçÁΩÆÊà? 16‰Ω? ÂÉèÁ¥†Ê†ºÂºè
 1610              		.loc 1 264 2 view .LVU436
 1611 0018 3A20     		movs	r0, #58
 1612 001a FFF7FEFF 		bl	LCD_WriteCommand
ARM GAS  C:\Users\23612\AppData\Local\Temp\cctfb4zR.s 			page 43


 1613              	.LVL120:
 265:Core/Src/spi.c **** 
 1614              		.loc 1 265 2 view .LVU437
 1615 001e 0520     		movs	r0, #5
 1616 0020 FFF7FEFF 		bl	LCD_WriteData_8bit
 1617              	.LVL121:
 268:Core/Src/spi.c **** 	LCD_WriteData_8bit(0x0C);
 1618              		.loc 1 268 3 view .LVU438
 1619 0024 B220     		movs	r0, #178
 1620 0026 FFF7FEFF 		bl	LCD_WriteCommand
 1621              	.LVL122:
 269:Core/Src/spi.c **** 	LCD_WriteData_8bit(0x0C); 
 1622              		.loc 1 269 2 view .LVU439
 1623 002a 0C20     		movs	r0, #12
 1624 002c FFF7FEFF 		bl	LCD_WriteData_8bit
 1625              	.LVL123:
 270:Core/Src/spi.c **** 	LCD_WriteData_8bit(0x00); 
 1626              		.loc 1 270 2 view .LVU440
 1627 0030 0C20     		movs	r0, #12
 1628 0032 FFF7FEFF 		bl	LCD_WriteData_8bit
 1629              	.LVL124:
 271:Core/Src/spi.c **** 	LCD_WriteData_8bit(0x33); 
 1630              		.loc 1 271 2 view .LVU441
 1631 0036 0020     		movs	r0, #0
 1632 0038 FFF7FEFF 		bl	LCD_WriteData_8bit
 1633              	.LVL125:
 272:Core/Src/spi.c **** 	LCD_WriteData_8bit(0x33); 			
 1634              		.loc 1 272 2 view .LVU442
 1635 003c 3320     		movs	r0, #51
 1636 003e FFF7FEFF 		bl	LCD_WriteData_8bit
 1637              	.LVL126:
 273:Core/Src/spi.c **** 
 1638              		.loc 1 273 2 view .LVU443
 1639 0042 3320     		movs	r0, #51
 1640 0044 FFF7FEFF 		bl	LCD_WriteData_8bit
 1641              	.LVL127:
 275:Core/Src/spi.c **** 	LCD_WriteData_8bit(0x35);     // VGH = 13.26VÔºåVGL = -10.43V
 1642              		.loc 1 275 2 view .LVU444
 1643 0048 B720     		movs	r0, #183
 1644 004a FFF7FEFF 		bl	LCD_WriteCommand
 1645              	.LVL128:
 276:Core/Src/spi.c **** 
 1646              		.loc 1 276 2 view .LVU445
 1647 004e 3520     		movs	r0, #53
 1648 0050 FFF7FEFF 		bl	LCD_WriteData_8bit
 1649              	.LVL129:
 278:Core/Src/spi.c **** 	LCD_WriteData_8bit(0x19);     // VCOM = 1.35V
 1650              		.loc 1 278 2 view .LVU446
 1651 0054 BB20     		movs	r0, #187
 1652 0056 FFF7FEFF 		bl	LCD_WriteCommand
 1653              	.LVL130:
 279:Core/Src/spi.c **** 
 1654              		.loc 1 279 2 view .LVU447
 1655 005a 1920     		movs	r0, #25
 1656 005c FFF7FEFF 		bl	LCD_WriteData_8bit
 1657              	.LVL131:
 281:Core/Src/spi.c **** 	LCD_WriteData_8bit(0x2C);
ARM GAS  C:\Users\23612\AppData\Local\Temp\cctfb4zR.s 			page 44


 1658              		.loc 1 281 2 view .LVU448
 1659 0060 C020     		movs	r0, #192
 1660 0062 FFF7FEFF 		bl	LCD_WriteCommand
 1661              	.LVL132:
 282:Core/Src/spi.c **** 
 1662              		.loc 1 282 2 view .LVU449
 1663 0066 2C20     		movs	r0, #44
 1664 0068 FFF7FEFF 		bl	LCD_WriteData_8bit
 1665              	.LVL133:
 284:Core/Src/spi.c **** 	LCD_WriteData_8bit(0x01);     // VDV Âí? VRH Áî±Áî®Êà∑Ëá™Áî±ÈÖçÁΩ?
 1666              		.loc 1 284 2 view .LVU450
 1667 006c C220     		movs	r0, #194
 1668 006e FFF7FEFF 		bl	LCD_WriteCommand
 1669              	.LVL134:
 285:Core/Src/spi.c **** 
 1670              		.loc 1 285 2 view .LVU451
 1671 0072 0120     		movs	r0, #1
 1672 0074 FFF7FEFF 		bl	LCD_WriteData_8bit
 1673              	.LVL135:
 287:Core/Src/spi.c **** 	LCD_WriteData_8bit(0x12);     // VRHÁîµÂéã = 4.6+( vcom+vcom offset+vdv)
 1674              		.loc 1 287 2 view .LVU452
 1675 0078 C320     		movs	r0, #195
 1676 007a FFF7FEFF 		bl	LCD_WriteCommand
 1677              	.LVL136:
 288:Core/Src/spi.c **** 				
 1678              		.loc 1 288 2 view .LVU453
 1679 007e 1220     		movs	r0, #18
 1680 0080 FFF7FEFF 		bl	LCD_WriteData_8bit
 1681              	.LVL137:
 290:Core/Src/spi.c **** 	LCD_WriteData_8bit(0x20);     // VDVÁîµÂéã = 0v
 1682              		.loc 1 290 2 view .LVU454
 1683 0084 C420     		movs	r0, #196
 1684 0086 FFF7FEFF 		bl	LCD_WriteCommand
 1685              	.LVL138:
 291:Core/Src/spi.c **** 
 1686              		.loc 1 291 2 view .LVU455
 1687 008a 2020     		movs	r0, #32
 1688 008c FFF7FEFF 		bl	LCD_WriteData_8bit
 1689              	.LVL139:
 293:Core/Src/spi.c **** 	LCD_WriteData_8bit(0x0F);   	// ËÆæÁΩÆÂ±èÂπïÊéßÂà∂Âô®ÁöÑÂà∑Êñ∞Â∏ßÁéá‰∏?60Â∏?    
 1690              		.loc 1 293 2 view .LVU456
 1691 0090 C620     		movs	r0, #198
 1692 0092 FFF7FEFF 		bl	LCD_WriteCommand
 1693              	.LVL140:
 294:Core/Src/spi.c **** 
 1694              		.loc 1 294 2 view .LVU457
 1695 0096 0F20     		movs	r0, #15
 1696 0098 FFF7FEFF 		bl	LCD_WriteData_8bit
 1697              	.LVL141:
 296:Core/Src/spi.c **** 	LCD_WriteData_8bit(0xA4);     // Êó†ÊïàÊï∞ÊçÆÔºåÂõ∫ÂÆöÂÜôÂÖ?0xA4
 1698              		.loc 1 296 2 view .LVU458
 1699 009c D020     		movs	r0, #208
 1700 009e FFF7FEFF 		bl	LCD_WriteCommand
 1701              	.LVL142:
 297:Core/Src/spi.c **** 	LCD_WriteData_8bit(0xA1);     // AVDD = 6.8V ÔºåAVDD = -4.8V ÔºåVDS = 2.3V
 1702              		.loc 1 297 2 view .LVU459
 1703 00a2 A420     		movs	r0, #164
ARM GAS  C:\Users\23612\AppData\Local\Temp\cctfb4zR.s 			page 45


 1704 00a4 FFF7FEFF 		bl	LCD_WriteData_8bit
 1705              	.LVL143:
 298:Core/Src/spi.c **** 
 1706              		.loc 1 298 2 view .LVU460
 1707 00a8 A120     		movs	r0, #161
 1708 00aa FFF7FEFF 		bl	LCD_WriteData_8bit
 1709              	.LVL144:
 300:Core/Src/spi.c **** 	LCD_WriteData_8bit(0xD0);
 1710              		.loc 1 300 2 view .LVU461
 1711 00ae E020     		movs	r0, #224
 1712 00b0 FFF7FEFF 		bl	LCD_WriteCommand
 1713              	.LVL145:
 301:Core/Src/spi.c **** 	LCD_WriteData_8bit(0x04);
 1714              		.loc 1 301 2 view .LVU462
 1715 00b4 D020     		movs	r0, #208
 1716 00b6 FFF7FEFF 		bl	LCD_WriteData_8bit
 1717              	.LVL146:
 302:Core/Src/spi.c **** 	LCD_WriteData_8bit(0x0D);
 1718              		.loc 1 302 2 view .LVU463
 1719 00ba 0420     		movs	r0, #4
 1720 00bc FFF7FEFF 		bl	LCD_WriteData_8bit
 1721              	.LVL147:
 303:Core/Src/spi.c **** 	LCD_WriteData_8bit(0x11);
 1722              		.loc 1 303 2 view .LVU464
 1723 00c0 0D20     		movs	r0, #13
 1724 00c2 FFF7FEFF 		bl	LCD_WriteData_8bit
 1725              	.LVL148:
 304:Core/Src/spi.c **** 	LCD_WriteData_8bit(0x13);
 1726              		.loc 1 304 2 view .LVU465
 1727 00c6 1120     		movs	r0, #17
 1728 00c8 FFF7FEFF 		bl	LCD_WriteData_8bit
 1729              	.LVL149:
 305:Core/Src/spi.c **** 	LCD_WriteData_8bit(0x2B);
 1730              		.loc 1 305 2 view .LVU466
 1731 00cc 1320     		movs	r0, #19
 1732 00ce FFF7FEFF 		bl	LCD_WriteData_8bit
 1733              	.LVL150:
 306:Core/Src/spi.c **** 	LCD_WriteData_8bit(0x3F);
 1734              		.loc 1 306 2 view .LVU467
 1735 00d2 2B20     		movs	r0, #43
 1736 00d4 FFF7FEFF 		bl	LCD_WriteData_8bit
 1737              	.LVL151:
 307:Core/Src/spi.c **** 	LCD_WriteData_8bit(0x54);
 1738              		.loc 1 307 2 view .LVU468
 1739 00d8 3F20     		movs	r0, #63
 1740 00da FFF7FEFF 		bl	LCD_WriteData_8bit
 1741              	.LVL152:
 308:Core/Src/spi.c **** 	LCD_WriteData_8bit(0x4C);
 1742              		.loc 1 308 2 view .LVU469
 1743 00de 5420     		movs	r0, #84
 1744 00e0 FFF7FEFF 		bl	LCD_WriteData_8bit
 1745              	.LVL153:
 309:Core/Src/spi.c **** 	LCD_WriteData_8bit(0x18);
 1746              		.loc 1 309 2 view .LVU470
 1747 00e4 4C20     		movs	r0, #76
 1748 00e6 FFF7FEFF 		bl	LCD_WriteData_8bit
 1749              	.LVL154:
ARM GAS  C:\Users\23612\AppData\Local\Temp\cctfb4zR.s 			page 46


 310:Core/Src/spi.c **** 	LCD_WriteData_8bit(0x0D);
 1750              		.loc 1 310 2 view .LVU471
 1751 00ea 1820     		movs	r0, #24
 1752 00ec FFF7FEFF 		bl	LCD_WriteData_8bit
 1753              	.LVL155:
 311:Core/Src/spi.c **** 	LCD_WriteData_8bit(0x0B);
 1754              		.loc 1 311 2 view .LVU472
 1755 00f0 0D20     		movs	r0, #13
 1756 00f2 FFF7FEFF 		bl	LCD_WriteData_8bit
 1757              	.LVL156:
 312:Core/Src/spi.c **** 	LCD_WriteData_8bit(0x1F);
 1758              		.loc 1 312 2 view .LVU473
 1759 00f6 0B20     		movs	r0, #11
 1760 00f8 FFF7FEFF 		bl	LCD_WriteData_8bit
 1761              	.LVL157:
 313:Core/Src/spi.c **** 	LCD_WriteData_8bit(0x23);
 1762              		.loc 1 313 2 view .LVU474
 1763 00fc 1F20     		movs	r0, #31
 1764 00fe FFF7FEFF 		bl	LCD_WriteData_8bit
 1765              	.LVL158:
 314:Core/Src/spi.c **** 
 1766              		.loc 1 314 2 view .LVU475
 1767 0102 2320     		movs	r0, #35
 1768 0104 FFF7FEFF 		bl	LCD_WriteData_8bit
 1769              	.LVL159:
 316:Core/Src/spi.c **** 	LCD_WriteData_8bit(0xD0);
 1770              		.loc 1 316 2 view .LVU476
 1771 0108 E120     		movs	r0, #225
 1772 010a FFF7FEFF 		bl	LCD_WriteCommand
 1773              	.LVL160:
 317:Core/Src/spi.c **** 	LCD_WriteData_8bit(0x04);
 1774              		.loc 1 317 2 view .LVU477
 1775 010e D020     		movs	r0, #208
 1776 0110 FFF7FEFF 		bl	LCD_WriteData_8bit
 1777              	.LVL161:
 318:Core/Src/spi.c **** 	LCD_WriteData_8bit(0x0C);
 1778              		.loc 1 318 2 view .LVU478
 1779 0114 0420     		movs	r0, #4
 1780 0116 FFF7FEFF 		bl	LCD_WriteData_8bit
 1781              	.LVL162:
 319:Core/Src/spi.c **** 	LCD_WriteData_8bit(0x11);
 1782              		.loc 1 319 2 view .LVU479
 1783 011a 0C20     		movs	r0, #12
 1784 011c FFF7FEFF 		bl	LCD_WriteData_8bit
 1785              	.LVL163:
 320:Core/Src/spi.c **** 	LCD_WriteData_8bit(0x13);
 1786              		.loc 1 320 2 view .LVU480
 1787 0120 1120     		movs	r0, #17
 1788 0122 FFF7FEFF 		bl	LCD_WriteData_8bit
 1789              	.LVL164:
 321:Core/Src/spi.c **** 	LCD_WriteData_8bit(0x2C);
 1790              		.loc 1 321 2 view .LVU481
 1791 0126 1320     		movs	r0, #19
 1792 0128 FFF7FEFF 		bl	LCD_WriteData_8bit
 1793              	.LVL165:
 322:Core/Src/spi.c **** 	LCD_WriteData_8bit(0x3F);
 1794              		.loc 1 322 2 view .LVU482
ARM GAS  C:\Users\23612\AppData\Local\Temp\cctfb4zR.s 			page 47


 1795 012c 2C20     		movs	r0, #44
 1796 012e FFF7FEFF 		bl	LCD_WriteData_8bit
 1797              	.LVL166:
 323:Core/Src/spi.c **** 	LCD_WriteData_8bit(0x44);
 1798              		.loc 1 323 2 view .LVU483
 1799 0132 3F20     		movs	r0, #63
 1800 0134 FFF7FEFF 		bl	LCD_WriteData_8bit
 1801              	.LVL167:
 324:Core/Src/spi.c **** 	LCD_WriteData_8bit(0x51);
 1802              		.loc 1 324 2 view .LVU484
 1803 0138 4420     		movs	r0, #68
 1804 013a FFF7FEFF 		bl	LCD_WriteData_8bit
 1805              	.LVL168:
 325:Core/Src/spi.c **** 	LCD_WriteData_8bit(0x2F);
 1806              		.loc 1 325 2 view .LVU485
 1807 013e 5120     		movs	r0, #81
 1808 0140 FFF7FEFF 		bl	LCD_WriteData_8bit
 1809              	.LVL169:
 326:Core/Src/spi.c **** 	LCD_WriteData_8bit(0x1F);
 1810              		.loc 1 326 2 view .LVU486
 1811 0144 2F20     		movs	r0, #47
 1812 0146 FFF7FEFF 		bl	LCD_WriteData_8bit
 1813              	.LVL170:
 327:Core/Src/spi.c **** 	LCD_WriteData_8bit(0x1F);
 1814              		.loc 1 327 2 view .LVU487
 1815 014a 1F20     		movs	r0, #31
 1816 014c FFF7FEFF 		bl	LCD_WriteData_8bit
 1817              	.LVL171:
 328:Core/Src/spi.c **** 	LCD_WriteData_8bit(0x20);
 1818              		.loc 1 328 2 view .LVU488
 1819 0150 1F20     		movs	r0, #31
 1820 0152 FFF7FEFF 		bl	LCD_WriteData_8bit
 1821              	.LVL172:
 329:Core/Src/spi.c **** 	LCD_WriteData_8bit(0x23);
 1822              		.loc 1 329 2 view .LVU489
 1823 0156 2020     		movs	r0, #32
 1824 0158 FFF7FEFF 		bl	LCD_WriteData_8bit
 1825              	.LVL173:
 330:Core/Src/spi.c **** 
 1826              		.loc 1 330 2 view .LVU490
 1827 015c 2320     		movs	r0, #35
 1828 015e FFF7FEFF 		bl	LCD_WriteData_8bit
 1829              	.LVL174:
 332:Core/Src/spi.c **** 
 1830              		.loc 1 332 2 view .LVU491
 1831 0162 2120     		movs	r0, #33
 1832 0164 FFF7FEFF 		bl	LCD_WriteCommand
 1833              	.LVL175:
 335:Core/Src/spi.c ****    	HAL_Delay(120);               // Èú?Ë¶ÅÁ≠âÂæ?120msÔºåËÆ©ÁîµÊ∫êÁîµÂéãÂíåÊó∂ÈíüÁîµË∑ØÁ®≥ÂÆö‰∏ãÊù?
 1834              		.loc 1 335 2 view .LVU492
 1835 0168 1120     		movs	r0, #17
 1836 016a FFF7FEFF 		bl	LCD_WriteCommand
 1837              	.LVL176:
 336:Core/Src/spi.c **** 
 1838              		.loc 1 336 5 view .LVU493
 1839 016e 7820     		movs	r0, #120
 1840 0170 FFF7FEFF 		bl	HAL_Delay
ARM GAS  C:\Users\23612\AppData\Local\Temp\cctfb4zR.s 			page 48


 1841              	.LVL177:
 339:Core/Src/spi.c **** 	
 1842              		.loc 1 339 2 view .LVU494
 1843 0174 2920     		movs	r0, #41
 1844 0176 FFF7FEFF 		bl	LCD_WriteCommand
 1845              	.LVL178:
 342:Core/Src/spi.c **** 	LCD_SetBackColor(LCD_DISP_BLACK);           // ËÆæÁΩÆËÉåÊôØËâ?
 1846              		.loc 1 342 5 view .LVU495
 1847 017a 0020     		movs	r0, #0
 1848 017c FFF7FEFF 		bl	LCD_SetDirection
 1849              	.LVL179:
 343:Core/Src/spi.c ****  	LCD_SetColor(LCD_DISP_WHITE);             // ËÆæÁΩÆÁîªÁ¨îËâ?  
 1850              		.loc 1 343 2 view .LVU496
 1851 0180 0020     		movs	r0, #0
 1852 0182 FFF7FEFF 		bl	LCD_SetBackColor
 1853              	.LVL180:
 344:Core/Src/spi.c **** 	LCD_Clear();                          	// Ê∏ÖÂ±è
 1854              		.loc 1 344 3 view .LVU497
 1855 0186 4FF6FF70 		movw	r0, #65535
 1856 018a FFF7FEFF 		bl	LCD_SetColor
 1857              	.LVL181:
 345:Core/Src/spi.c **** 
 1858              		.loc 1 345 2 view .LVU498
 1859 018e FFF7FEFF 		bl	LCD_Clear
 1860              	.LVL182:
 347:Core/Src/spi.c ****    	LCD_ShowNumMode(Fill_Zero);	      	// ËÆæÁΩÆÂèòÈáèÊòæÁ§∫Ê®°ÂºèÔºåÂ§ö‰Ωô‰ΩçÂ°´ÂÖÖÁ©∫Ê†ºËøòÊòØÂ°´
 1861              		.loc 1 347 5 view .LVU499
 1862 0192 0648     		ldr	r0, .L108
 1863 0194 FFF7FEFF 		bl	LCD_SetAsciiFont
 1864              	.LVL183:
 348:Core/Src/spi.c **** 
 1865              		.loc 1 348 5 view .LVU500
 1866 0198 0020     		movs	r0, #0
 1867 019a FFF7FEFF 		bl	LCD_ShowNumMode
 1868              	.LVL184:
 351:Core/Src/spi.c **** }
 1869              		.loc 1 351 5 view .LVU501
 1870 019e 0122     		movs	r2, #1
 1871 01a0 0821     		movs	r1, #8
 1872 01a2 0348     		ldr	r0, .L108+4
 1873 01a4 FFF7FEFF 		bl	HAL_GPIO_WritePin
 1874              	.LVL185:
 351:Core/Src/spi.c **** }
 1875              		.loc 1 351 21 view .LVU502
 352:Core/Src/spi.c **** 
 1876              		.loc 1 352 1 is_stmt 0 view .LVU503
 1877 01a8 08BD     		pop	{r3, pc}
 1878              	.L109:
 1879 01aa 00BF     		.align	2
 1880              	.L108:
 1881 01ac 00000000 		.word	ASCII_Font24
 1882 01b0 00100240 		.word	1073876992
 1883              		.cfi_endproc
 1884              	.LFE177:
 1886              		.section	.rodata.LCD_DisplayNumber.str1.4,"aMS",%progbits,1
 1887              		.align	2
 1888              	.LC0:
ARM GAS  C:\Users\23612\AppData\Local\Temp\cctfb4zR.s 			page 49


 1889 0000 25302E2A 		.ascii	"%0.*d\000"
 1889      6400
 1890 0006 0000     		.align	2
 1891              	.LC1:
 1892 0008 252A6400 		.ascii	"%*d\000"
 1893              		.section	.text.LCD_DisplayNumber,"ax",%progbits
 1894              		.align	1
 1895              		.global	LCD_DisplayNumber
 1896              		.syntax unified
 1897              		.thumb
 1898              		.thumb_func
 1900              	LCD_DisplayNumber:
 1901              	.LVL186:
 1902              	.LFB189:
 631:Core/Src/spi.c **** 
 632:Core/Src/spi.c **** /**************************************************************************************************
 633:Core/Src/spi.c **** *	Âá? Êï? Âê?:	LCD_DisplayNumber
 634:Core/Src/spi.c **** *
 635:Core/Src/spi.c **** *	ÂÖ•Âè£ÂèÇÊï∞:	x - Ëµ∑ÂßãÊ∞¥Âπ≥ÂùêÊ†á
 636:Core/Src/spi.c **** *					y - Ëµ∑ÂßãÂûÇÁõ¥ÂùêÊ†á
 637:Core/Src/spi.c **** *					number - Ë¶ÅÊòæÁ§∫ÁöÑÊï∞Â≠ó,ËåÉÂõ¥Âú? -2147483648~2147483647 ‰πãÈó¥
 638:Core/Src/spi.c **** *					len - Êï∞Â≠óÁöÑ‰ΩçÊï∞ÔºåÂ¶ÇÊûú‰ΩçÊï∞Ë∂ÖËøálenÔºåÂ∞ÜÊåâÂÖ∂ÂÆûÈôÖÈïøÂ∫¶ËæìÂá∫ÔºåÂ¶ÇÊûúÈúÄË¶ÅÊòæ
 639:Core/Src/spi.c **** *
 640:Core/Src/spi.c **** *	ÂáΩÊï∞ÂäüËÉΩ:	Âú®ÊåáÂÆöÂùêÊ†áÊòæÁ§∫ÊåáÂÆöÁöÑÊï¥Êï∞ÂèòÈáè
 641:Core/Src/spi.c **** *
 642:Core/Src/spi.c **** *	ËØ?    Êò?:	1. ÂèØËÆæÁΩÆË¶ÅÊòæÁ§∫ÁöÑÂ≠ó‰ΩìÔºå‰æãÂ¶Ç‰ΩøÁî® LCD_SetAsciiFont(&ASCII_Font24) ËÆæÁΩÆ‰
 643:Core/Src/spi.c **** *					2.	ÂèØËÆæÁΩÆË¶ÅÊòæÁ§∫ÁöÑÈ¢úËâ≤Ôºå‰æãÂ¶Ç‰ΩøÁî® LCD_SetColor(0x0000FF) ËÆæÁΩÆ‰∏∫ËìùËâ?
 644:Core/Src/spi.c **** *					3. ÂèØËÆæÁΩÆÂØπÂ∫îÁöÑËÉåÊôØËâ≤Ôºå‰æãÂ¶Ç‰ΩøÁî® LCD_SetBackColor(0x000000) ËÆæÁΩÆ‰∏∫ÈªëËâ≤ÁöÑËÉ
 645:Core/Src/spi.c **** *					4. ‰ΩøÁî®Á§∫‰æã LCD_DisplayNumber( 10, 10, a, 5) ÔºåÂú®ÂùêÊ†á(10,10)ÊòæÁ§∫ÊåáÂÆöÂèòÈáèa,ÊÄªÂÖ
 646:Core/Src/spi.c **** *						‰æãÂ¶Ç a=123 Êó∂Ôºå‰ºöÊ†πÊç? LCD_ShowNumMode()ÁöÑËÆæÁΩÆÊù•ÊòæÁ§∫  123(ÂâçÈù¢‰∏§‰∏™Á©∫Ê†º‰Ω?)
 647:Core/Src/spi.c **** *						
 648:Core/Src/spi.c **** ***************************************************************************************************
 649:Core/Src/spi.c **** void  LCD_DisplayNumber( uint16_t x, uint16_t y, int32_t number, uint8_t len) 
 650:Core/Src/spi.c **** {  
 1903              		.loc 1 650 1 is_stmt 1 view -0
 1904              		.cfi_startproc
 1905              		@ args = 0, pretend = 0, frame = 16
 1906              		@ frame_needed = 0, uses_anonymous_args = 0
 1907              		.loc 1 650 1 is_stmt 0 view .LVU505
 1908 0000 30B5     		push	{r4, r5, lr}
 1909              	.LCFI24:
 1910              		.cfi_def_cfa_offset 12
 1911              		.cfi_offset 4, -12
 1912              		.cfi_offset 5, -8
 1913              		.cfi_offset 14, -4
 1914 0002 85B0     		sub	sp, sp, #20
 1915              	.LCFI25:
 1916              		.cfi_def_cfa_offset 32
 1917 0004 0446     		mov	r4, r0
 1918 0006 0D46     		mov	r5, r1
 1919 0008 1146     		mov	r1, r2
 1920              	.LVL187:
 1921              		.loc 1 650 1 view .LVU506
 1922 000a 1A46     		mov	r2, r3
 1923              	.LVL188:
 651:Core/Src/spi.c **** 	char   Number_Buffer[15];				// Áî®‰∫éÂ≠òÂÇ®ËΩ¨Êç¢ÂêéÁöÑÂ≠óÁ¨¶‰∏?
 1924              		.loc 1 651 2 is_stmt 1 view .LVU507
ARM GAS  C:\Users\23612\AppData\Local\Temp\cctfb4zR.s 			page 50


 652:Core/Src/spi.c **** 
 653:Core/Src/spi.c **** 	if( LCD.ShowNum_Mode == Fill_Zero)	// Â§ö‰Ωô‰ΩçË°•0
 1925              		.loc 1 653 2 view .LVU508
 1926              		.loc 1 653 9 is_stmt 0 view .LVU509
 1927 000c 0A4B     		ldr	r3, .L114
 1928              	.LVL189:
 1929              		.loc 1 653 9 view .LVU510
 1930 000e 1B79     		ldrb	r3, [r3, #4]	@ zero_extendqisi2
 1931              		.loc 1 653 4 view .LVU511
 1932 0010 5BB9     		cbnz	r3, .L111
 654:Core/Src/spi.c **** 	{
 655:Core/Src/spi.c **** 		sprintf( Number_Buffer , "%0.*d",len, number );	// Â∞? number ËΩ¨Êç¢ÊàêÂ≠óÁ¨¶‰∏≤Ôºå‰æø‰∫éÊòæÁ§?		
 1933              		.loc 1 655 3 is_stmt 1 view .LVU512
 1934 0012 0B46     		mov	r3, r1
 1935 0014 0949     		ldr	r1, .L114+4
 1936              	.LVL190:
 1937              		.loc 1 655 3 is_stmt 0 view .LVU513
 1938 0016 6846     		mov	r0, sp
 1939              	.LVL191:
 1940              		.loc 1 655 3 view .LVU514
 1941 0018 FFF7FEFF 		bl	sprintf
 1942              	.LVL192:
 1943              	.L112:
 656:Core/Src/spi.c **** 	}
 657:Core/Src/spi.c **** 	else			// Â§ö‰Ωô‰ΩçË°•Á©∫Ê†º
 658:Core/Src/spi.c **** 	{	
 659:Core/Src/spi.c **** 		sprintf( Number_Buffer , "%*d",len, number );	// Â∞? number ËΩ¨Êç¢ÊàêÂ≠óÁ¨¶‰∏≤Ôºå‰æø‰∫éÊòæÁ§?		
 660:Core/Src/spi.c **** 	}
 661:Core/Src/spi.c **** 	
 662:Core/Src/spi.c **** 	LCD_DisplayString( x, y,(char *)Number_Buffer) ;  // Â∞ÜËΩ¨Êç¢ÂæóÂà∞ÁöÑÂ≠óÁ¨¶‰∏≤ÊòæÁ§∫Âá∫Êù?
 1944              		.loc 1 662 2 is_stmt 1 view .LVU515
 1945 001c 6A46     		mov	r2, sp
 1946 001e 2946     		mov	r1, r5
 1947 0020 2046     		mov	r0, r4
 1948 0022 FFF7FEFF 		bl	LCD_DisplayString
 1949              	.LVL193:
 663:Core/Src/spi.c **** 	
 664:Core/Src/spi.c **** }
 1950              		.loc 1 664 1 is_stmt 0 view .LVU516
 1951 0026 05B0     		add	sp, sp, #20
 1952              	.LCFI26:
 1953              		.cfi_remember_state
 1954              		.cfi_def_cfa_offset 12
 1955              		@ sp needed
 1956 0028 30BD     		pop	{r4, r5, pc}
 1957              	.LVL194:
 1958              	.L111:
 1959              	.LCFI27:
 1960              		.cfi_restore_state
 659:Core/Src/spi.c **** 	}
 1961              		.loc 1 659 3 is_stmt 1 view .LVU517
 1962 002a 0B46     		mov	r3, r1
 1963 002c 0449     		ldr	r1, .L114+8
 1964              	.LVL195:
 659:Core/Src/spi.c **** 	}
 1965              		.loc 1 659 3 is_stmt 0 view .LVU518
 1966 002e 6846     		mov	r0, sp
ARM GAS  C:\Users\23612\AppData\Local\Temp\cctfb4zR.s 			page 51


 1967              	.LVL196:
 659:Core/Src/spi.c **** 	}
 1968              		.loc 1 659 3 view .LVU519
 1969 0030 FFF7FEFF 		bl	sprintf
 1970              	.LVL197:
 659:Core/Src/spi.c **** 	}
 1971              		.loc 1 659 3 view .LVU520
 1972 0034 F2E7     		b	.L112
 1973              	.L115:
 1974 0036 00BF     		.align	2
 1975              	.L114:
 1976 0038 00000000 		.word	.LANCHOR3
 1977 003c 00000000 		.word	.LC0
 1978 0040 08000000 		.word	.LC1
 1979              		.cfi_endproc
 1980              	.LFE189:
 1982              		.global	__aeabi_f2d
 1983              		.global	__aeabi_dmul
 1984              		.global	__aeabi_d2iz
 1985              		.section	.rodata.LCD_DisplayDecimals.str1.4,"aMS",%progbits,1
 1986              		.align	2
 1987              	.LC2:
 1988 0000 256400   		.ascii	"%d\000"
 1989 0003 00       		.align	2
 1990              	.LC3:
 1991 0004 25302A64 		.ascii	"%0*d\000"
 1991      00
 1992 0009 000000   		.align	2
 1993              	.LC4:
 1994 000c 25732E25 		.ascii	"%s.%s\000"
 1994      7300
 1995 0012 0000     		.align	2
 1996              	.LC5:
 1997 0014 25732573 		.ascii	"%s%s\000"
 1997      00
 1998              		.section	.text.LCD_DisplayDecimals,"ax",%progbits
 1999              		.align	1
 2000              		.global	LCD_DisplayDecimals
 2001              		.syntax unified
 2002              		.thumb
 2003              		.thumb_func
 2005              	LCD_DisplayDecimals:
 2006              	.LVL198:
 2007              	.LFB190:
 665:Core/Src/spi.c **** 
 666:Core/Src/spi.c **** /**************************************************************************************************
 667:Core/Src/spi.c **** *	Âá? Êï? Âê?:	LCD_DisplayDecimals
 668:Core/Src/spi.c **** *
 669:Core/Src/spi.c **** *	ÂÖ•Âè£ÂèÇÊï∞:	x - Ëµ∑ÂßãÊ∞¥Âπ≥ÂùêÊ†á
 670:Core/Src/spi.c **** *					y - Ëµ∑ÂßãÂûÇÁõ¥ÂùêÊ†á
 671:Core/Src/spi.c **** *					decimals - Ë¶ÅÊòæÁ§∫ÁöÑÊï∞Â≠ó, doubleÂûãÂèñÂÄ?1.7 x 10^Ôº?-308Ôºâ~ 1.7 x 10^Ôº?+308ÔºâÔºå‰ΩÜÊ
 672:Core/Src/spi.c **** *
 673:Core/Src/spi.c **** *       			len - Êï¥‰∏™ÂèòÈáèÁöÑÊ?ª‰ΩçÊï∞ÔºàÂåÖÊã¨Â∞èÊï∞ÁÇπÂíåË¥üÂè∑ÔºâÔºåËã•ÂÆûÈôÖÁöÑÊÄª‰ΩçÊï∞Ë∂ÖË
 674:Core/Src/spi.c **** *							Á§∫‰æã1ÔºöÂ∞èÊï? -123.123 ÔºåÊåáÂÆ? len <=8 ÁöÑËØùÔºåÂàôÂÆûÈôÖÁÖßÂ∏∏ËæìÂá∫ -123.123
 675:Core/Src/spi.c **** *							Á§∫‰æã2ÔºöÂ∞èÊï? -123.123 ÔºåÊåáÂÆ? len =10 ÁöÑËØùÔºåÂàôÂÆûÈôÖËæìÂá∫   -123.123(Ë¥üÂè∑ÂâçÈù
 676:Core/Src/spi.c **** *							Á§∫‰æã3ÔºöÂ∞èÊï? -123.123 ÔºåÊåáÂÆ? len =10 ÁöÑËØùÔºåÂΩìË∞ÉÁî®ÂáΩÊï∞ LCD_ShowNumMode() ËÆæÁ
 677:Core/Src/spi.c **** *
ARM GAS  C:\Users\23612\AppData\Local\Temp\cctfb4zR.s 			page 52


 678:Core/Src/spi.c **** *					decs - Ë¶Å‰øùÁïôÁöÑÂ∞èÊï∞‰ΩçÊï∞ÔºåËã•Â∞èÊï∞ÁöÑÂÆûÈôÖ‰ΩçÊï∞Ë∂ÖËøá‰∫ÜÊåáÂÆöÁöÑÂ∞èÊï∞‰ΩçÔºåÂàôÊå
 679:Core/Src/spi.c **** *							 Á§∫‰æãÔº?1.12345 ÔºåÊåáÂÆ? decs ‰∏?4‰ΩçÁöÑËØùÔºåÂàôËæìÂá∫ÁªìÊûú‰∏∫1.1235
 680:Core/Src/spi.c **** *
 681:Core/Src/spi.c **** *	ÂáΩÊï∞ÂäüËÉΩ:	Âú®ÊåáÂÆöÂùêÊ†áÊòæÁ§∫ÊåáÂÆöÁöÑÂèòÈáèÔºåÂåÖÊã¨Â∞èÊï?
 682:Core/Src/spi.c **** *
 683:Core/Src/spi.c **** *	ËØ?    Êò?:	1. ÂèØËÆæÁΩÆË¶ÅÊòæÁ§∫ÁöÑÂ≠ó‰ΩìÔºå‰æãÂ¶Ç‰ΩøÁî® LCD_SetAsciiFont(&ASCII_Font24) ËÆæÁΩÆ‰
 684:Core/Src/spi.c **** *					2.	ÂèØËÆæÁΩÆË¶ÅÊòæÁ§∫ÁöÑÈ¢úËâ≤Ôºå‰æãÂ¶Ç‰ΩøÁî® LCD_SetColor(0x0000FF) ËÆæÁΩÆ‰∏∫ËìùËâ?
 685:Core/Src/spi.c **** *					3. ÂèØËÆæÁΩÆÂØπÂ∫îÁöÑËÉåÊôØËâ≤Ôºå‰æãÂ¶Ç‰ΩøÁî® LCD_SetBackColor(0x000000) ËÆæÁΩÆ‰∏∫ÈªëËâ≤ÁöÑËÉ
 686:Core/Src/spi.c **** *					4. ‰ΩøÁî®Á§∫‰æã LCD_DisplayDecimals( 10, 10, a, 5, 3) ÔºåÂú®ÂùêÊ†á(10,10)ÊòæÁ§∫Â≠óÂèòÈáèa,ÊÄª
 687:Core/Src/spi.c **** *						
 688:Core/Src/spi.c **** ***************************************************************************************************
 689:Core/Src/spi.c **** void  LCD_DisplayDecimals( uint16_t x, uint16_t y, float decimals, uint8_t len, uint8_t decs) 
 690:Core/Src/spi.c **** {  
 2008              		.loc 1 690 1 is_stmt 1 view -0
 2009              		.cfi_startproc
 2010              		@ args = 0, pretend = 0, frame = 160
 2011              		@ frame_needed = 0, uses_anonymous_args = 0
 2012              		.loc 1 690 1 is_stmt 0 view .LVU522
 2013 0000 2DE9F041 		push	{r4, r5, r6, r7, r8, lr}
 2014              	.LCFI28:
 2015              		.cfi_def_cfa_offset 24
 2016              		.cfi_offset 4, -24
 2017              		.cfi_offset 5, -20
 2018              		.cfi_offset 6, -16
 2019              		.cfi_offset 7, -12
 2020              		.cfi_offset 8, -8
 2021              		.cfi_offset 14, -4
 2022 0004 2DED028B 		vpush.64	{d8}
 2023              	.LCFI29:
 2024              		.cfi_def_cfa_offset 32
 2025              		.cfi_offset 80, -32
 2026              		.cfi_offset 81, -28
 2027 0008 A8B0     		sub	sp, sp, #160
 2028              	.LCFI30:
 2029              		.cfi_def_cfa_offset 192
 2030 000a 0746     		mov	r7, r0
 2031 000c 8846     		mov	r8, r1
 2032 000e B0EE408A 		vmov.f32	s16, s0
 2033 0012 1646     		mov	r6, r2
 2034 0014 1D46     		mov	r5, r3
 691:Core/Src/spi.c **** 	char  Number_Buffer[40];				// Áî®‰∫éÂ≠òÂÇ®ËΩ¨Êç¢ÂêéÁöÑÂ≠óÁ¨¶‰∏?
 2035              		.loc 1 691 2 is_stmt 1 view .LVU523
 692:Core/Src/spi.c **** 	char  buffer[40];
 2036              		.loc 1 692 2 view .LVU524
 693:Core/Src/spi.c **** 	// Ê∏ÖÁ©∫ÁºìÂÜ≤Âå?
 694:Core/Src/spi.c ****     for (uint8_t i = 0; i < 20; i++) 
 2037              		.loc 1 694 5 view .LVU525
 2038              	.LBB9:
 2039              		.loc 1 694 10 view .LVU526
 2040              	.LVL199:
 2041              		.loc 1 694 18 is_stmt 0 view .LVU527
 2042 0016 4FF0000C 		mov	ip, #0
 2043              		.loc 1 694 5 view .LVU528
 2044 001a 0AE0     		b	.L117
 2045              	.LVL200:
 2046              	.L118:
 695:Core/Src/spi.c **** 	{
ARM GAS  C:\Users\23612\AppData\Local\Temp\cctfb4zR.s 			page 53


 696:Core/Src/spi.c ****         Number_Buffer[i] = ' ';
 2047              		.loc 1 696 9 is_stmt 1 discriminator 3 view .LVU529
 2048              		.loc 1 696 26 is_stmt 0 discriminator 3 view .LVU530
 2049 001c 0CF1A003 		add	r3, ip, #160
 2050 0020 0DEB0304 		add	r4, sp, r3
 2051 0024 2023     		movs	r3, #32
 2052 0026 04F8283C 		strb	r3, [r4, #-40]
 694:Core/Src/spi.c **** 	{
 2053              		.loc 1 694 33 is_stmt 1 discriminator 3 view .LVU531
 694:Core/Src/spi.c **** 	{
 2054              		.loc 1 694 34 is_stmt 0 discriminator 3 view .LVU532
 2055 002a 0CF1010C 		add	ip, ip, #1
 2056              	.LVL201:
 694:Core/Src/spi.c **** 	{
 2057              		.loc 1 694 34 discriminator 3 view .LVU533
 2058 002e 5FFA8CFC 		uxtb	ip, ip
 2059              	.LVL202:
 2060              	.L117:
 694:Core/Src/spi.c **** 	{
 2061              		.loc 1 694 25 is_stmt 1 discriminator 1 view .LVU534
 694:Core/Src/spi.c **** 	{
 2062              		.loc 1 694 5 is_stmt 0 discriminator 1 view .LVU535
 2063 0032 BCF1130F 		cmp	ip, #19
 2064 0036 F1D9     		bls	.L118
 2065              	.LBE9:
 697:Core/Src/spi.c ****     }
 698:Core/Src/spi.c ****     Number_Buffer[20] = '\0';
 2066              		.loc 1 698 5 is_stmt 1 view .LVU536
 2067              		.loc 1 698 23 is_stmt 0 view .LVU537
 2068 0038 0023     		movs	r3, #0
 2069 003a 8DF88C30 		strb	r3, [sp, #140]
 699:Core/Src/spi.c **** 
 700:Core/Src/spi.c **** 	// Â§ÑÁêÜË¥üÊï∞
 701:Core/Src/spi.c ****     int negative = decimals < 0;
 2070              		.loc 1 701 5 is_stmt 1 view .LVU538
 2071              	.LVL203:
 702:Core/Src/spi.c ****     if (negative) 
 2072              		.loc 1 702 5 view .LVU539
 2073              		.loc 1 702 8 is_stmt 0 view .LVU540
 2074 003e B5EEC08A 		vcmpe.f32	s16, #0
 2075 0042 F1EE10FA 		vmrs	APSR_nzcv, FPSCR
 2076 0046 0DD4     		bmi	.L145
 2077 0048 F0EE487A 		vmov.f32	s15, s16
 2078              	.LVL204:
 2079              	.L119:
 703:Core/Src/spi.c **** 	{
 704:Core/Src/spi.c ****         decimals = -decimals;
 705:Core/Src/spi.c ****     }
 706:Core/Src/spi.c **** 	// ÊèêÂèñÊï¥Êï∞ÈÉ®ÂàÜÂíåÂ∞èÊï∞ÈÉ®Âà?
 707:Core/Src/spi.c ****     int int_part = (int)decimals;
 2080              		.loc 1 707 5 is_stmt 1 view .LVU541
 2081              		.loc 1 707 9 is_stmt 0 view .LVU542
 2082 004c FDEEE78A 		vcvt.s32.f32	s17, s15
 2083              	.LVL205:
 708:Core/Src/spi.c ****     double dec_part = decimals - int_part;
 2084              		.loc 1 708 5 is_stmt 1 view .LVU543
 2085              		.loc 1 708 32 is_stmt 0 view .LVU544
ARM GAS  C:\Users\23612\AppData\Local\Temp\cctfb4zR.s 			page 54


 2086 0050 B8EEE87A 		vcvt.f32.s32	s14, s17
 2087              		.loc 1 708 12 view .LVU545
 2088 0054 77EEC77A 		vsub.f32	s15, s15, s14
 2089              	.LVL206:
 2090              		.loc 1 708 12 view .LVU546
 2091 0058 17EE900A 		vmov	r0, s15
 2092              	.LVL207:
 2093              		.loc 1 708 12 view .LVU547
 2094 005c FFF7FEFF 		bl	__aeabi_f2d
 2095              	.LVL208:
 709:Core/Src/spi.c ****     // Â§ÑÁêÜÂ∞èÊï∞ÈÉ®ÂàÜÂπ∂ÂõõËàç‰∫îÂÖ?
 710:Core/Src/spi.c ****     for (uint8_t i = 0; i < decs; i++) 
 2096              		.loc 1 710 5 is_stmt 1 view .LVU548
 2097              	.LBB10:
 2098              		.loc 1 710 10 view .LVU549
 2099              		.loc 1 710 18 is_stmt 0 view .LVU550
 2100 0060 0024     		movs	r4, #0
 2101              		.loc 1 710 5 view .LVU551
 2102 0062 08E0     		b	.L121
 2103              	.LVL209:
 2104              	.L145:
 2105              		.loc 1 710 5 view .LVU552
 2106              	.LBE10:
 704:Core/Src/spi.c ****     }
 2107              		.loc 1 704 9 is_stmt 1 view .LVU553
 704:Core/Src/spi.c ****     }
 2108              		.loc 1 704 18 is_stmt 0 view .LVU554
 2109 0064 F1EE487A 		vneg.f32	s15, s16
 2110              	.LVL210:
 704:Core/Src/spi.c ****     }
 2111              		.loc 1 704 18 view .LVU555
 2112 0068 F0E7     		b	.L119
 2113              	.LVL211:
 2114              	.L122:
 2115              	.LBB11:
 711:Core/Src/spi.c **** 	{
 712:Core/Src/spi.c ****         dec_part *= 10;
 2116              		.loc 1 712 9 is_stmt 1 discriminator 3 view .LVU556
 2117              		.loc 1 712 18 is_stmt 0 discriminator 3 view .LVU557
 2118 006a 0022     		movs	r2, #0
 2119 006c 4E4B     		ldr	r3, .L147
 2120 006e FFF7FEFF 		bl	__aeabi_dmul
 2121              	.LVL212:
 710:Core/Src/spi.c **** 	{
 2122              		.loc 1 710 35 is_stmt 1 discriminator 3 view .LVU558
 710:Core/Src/spi.c **** 	{
 2123              		.loc 1 710 36 is_stmt 0 discriminator 3 view .LVU559
 2124 0072 0134     		adds	r4, r4, #1
 2125              	.LVL213:
 710:Core/Src/spi.c **** 	{
 2126              		.loc 1 710 36 discriminator 3 view .LVU560
 2127 0074 E4B2     		uxtb	r4, r4
 2128              	.LVL214:
 2129              	.L121:
 710:Core/Src/spi.c **** 	{
 2130              		.loc 1 710 25 is_stmt 1 discriminator 1 view .LVU561
 710:Core/Src/spi.c **** 	{
ARM GAS  C:\Users\23612\AppData\Local\Temp\cctfb4zR.s 			page 55


 2131              		.loc 1 710 5 is_stmt 0 discriminator 1 view .LVU562
 2132 0076 AC42     		cmp	r4, r5
 2133 0078 F7D3     		bcc	.L122
 710:Core/Src/spi.c **** 	{
 2134              		.loc 1 710 5 discriminator 1 view .LVU563
 2135              	.LBE11:
 713:Core/Src/spi.c ****     }
 714:Core/Src/spi.c ****     dec_part = round(dec_part);
 2136              		.loc 1 714 5 is_stmt 1 view .LVU564
 2137              		.loc 1 714 16 is_stmt 0 view .LVU565
 2138 007a 41EC100B 		vmov	d0, r0, r1
 2139 007e FFF7FEFF 		bl	round
 2140              	.LVL215:
 2141              		.loc 1 714 16 view .LVU566
 2142 0082 51EC100B 		vmov	r0, r1, d0
 2143              	.LVL216:
 715:Core/Src/spi.c ****     // ÈáçÊñ∞ËÆ°ÁÆóÊï¥Êï∞ÈÉ®ÂàÜÂíåÂ∞èÊï∞ÈÉ®ÂàÜÔºåÂ§ÑÁêÜËøõ‰Ωç
 716:Core/Src/spi.c ****     int_part = (int)decimals;
 2144              		.loc 1 716 5 is_stmt 1 view .LVU567
 717:Core/Src/spi.c ****     int dec_part_int = (int)dec_part;
 2145              		.loc 1 717 5 view .LVU568
 2146              		.loc 1 717 9 is_stmt 0 view .LVU569
 2147 0086 FFF7FEFF 		bl	__aeabi_d2iz
 2148              	.LVL217:
 2149              		.loc 1 717 9 view .LVU570
 2150 008a 0446     		mov	r4, r0
 2151              	.LVL218:
 718:Core/Src/spi.c ****     // ÂáÜÂ§áÊï¥Êï∞ÈÉ®ÂàÜÂ≠óÁ¨¶‰∏?
 719:Core/Src/spi.c ****     char int_buffer[20];
 2152              		.loc 1 719 5 is_stmt 1 view .LVU571
 720:Core/Src/spi.c ****     sprintf(int_buffer, "%d", int_part);
 2153              		.loc 1 720 5 view .LVU572
 2154 008c 18EE902A 		vmov	r2, s17	@ int
 2155 0090 4649     		ldr	r1, .L147+4
 2156 0092 0FA8     		add	r0, sp, #60
 2157              	.LVL219:
 2158              		.loc 1 720 5 is_stmt 0 view .LVU573
 2159 0094 FFF7FEFF 		bl	sprintf
 2160              	.LVL220:
 721:Core/Src/spi.c ****     // ÂáÜÂ§áÂ∞èÊï∞ÈÉ®ÂàÜÂ≠óÁ¨¶‰∏?
 722:Core/Src/spi.c ****     char dec_buffer[20];
 2161              		.loc 1 722 5 is_stmt 1 view .LVU574
 723:Core/Src/spi.c ****     sprintf(dec_buffer, "%0*d", decs, dec_part_int);
 2162              		.loc 1 723 5 view .LVU575
 2163 0098 2346     		mov	r3, r4
 2164 009a 2A46     		mov	r2, r5
 2165 009c 4449     		ldr	r1, .L147+8
 2166 009e 0AA8     		add	r0, sp, #40
 2167 00a0 FFF7FEFF 		bl	sprintf
 2168              	.LVL221:
 724:Core/Src/spi.c **** 	// ÁªÑÂêàÊï¥Êï∞ÈÉ®ÂàÜÂíåÂ∞èÊï∞ÈÉ®Âà?
 725:Core/Src/spi.c ****     char combined[40];
 2169              		.loc 1 725 5 view .LVU576
 726:Core/Src/spi.c ****     if (decs > 0) 
 2170              		.loc 1 726 5 view .LVU577
 2171              		.loc 1 726 8 is_stmt 0 view .LVU578
 2172 00a4 CDB1     		cbz	r5, .L123
ARM GAS  C:\Users\23612\AppData\Local\Temp\cctfb4zR.s 			page 56


 727:Core/Src/spi.c **** 	{
 728:Core/Src/spi.c ****         sprintf(combined, "%s.%s", int_buffer, dec_buffer);
 2173              		.loc 1 728 9 is_stmt 1 view .LVU579
 2174 00a6 0AAB     		add	r3, sp, #40
 2175 00a8 0FAA     		add	r2, sp, #60
 2176 00aa 4249     		ldr	r1, .L147+12
 2177 00ac 6846     		mov	r0, sp
 2178 00ae FFF7FEFF 		bl	sprintf
 2179              	.LVL222:
 2180              	.L124:
 729:Core/Src/spi.c ****     } 
 730:Core/Src/spi.c **** 	else 
 731:Core/Src/spi.c **** 	{
 732:Core/Src/spi.c ****         sprintf(combined, "%s", int_buffer);
 733:Core/Src/spi.c ****     }
 734:Core/Src/spi.c **** 	
 735:Core/Src/spi.c **** 	if( LCD.ShowNum_Mode == Fill_Zero)	// Â§ö‰Ωô‰ΩçÂ°´ÂÖ?0Ê®°Âºè
 2181              		.loc 1 735 2 view .LVU580
 2182              		.loc 1 735 9 is_stmt 0 view .LVU581
 2183 00b2 414B     		ldr	r3, .L147+16
 2184 00b4 1C79     		ldrb	r4, [r3, #4]	@ zero_extendqisi2
 2185              	.LVL223:
 2186              		.loc 1 735 4 view .LVU582
 2187 00b6 002C     		cmp	r4, #0
 2188 00b8 40D1     		bne	.L125
 2189              	.LBB12:
 736:Core/Src/spi.c **** 	{
 737:Core/Src/spi.c **** 		uint8_t combined_len = (uint8_t)strlen(combined);
 2190              		.loc 1 737 3 is_stmt 1 view .LVU583
 2191              		.loc 1 737 35 is_stmt 0 view .LVU584
 2192 00ba 6846     		mov	r0, sp
 2193 00bc FFF7FEFF 		bl	strlen
 2194              	.LVL224:
 738:Core/Src/spi.c **** 		if (negative)
 2195              		.loc 1 738 3 is_stmt 1 view .LVU585
 2196              		.loc 1 738 6 is_stmt 0 view .LVU586
 2197 00c0 B5EEC08A 		vcmpe.f32	s16, #0
 2198 00c4 F1EE10FA 		vmrs	APSR_nzcv, FPSCR
 2199 00c8 25D5     		bpl	.L126
 739:Core/Src/spi.c **** 		{
 740:Core/Src/spi.c **** 			buffer[len - combined_len] = '-';
 2200              		.loc 1 740 4 is_stmt 1 view .LVU587
 2201              		.loc 1 740 15 is_stmt 0 view .LVU588
 2202 00ca 301A     		subs	r0, r6, r0
 2203              	.LVL225:
 2204              		.loc 1 740 31 view .LVU589
 2205 00cc 00F1A003 		add	r3, r0, #160
 2206 00d0 6B44     		add	r3, sp, r3
 2207 00d2 2D22     		movs	r2, #45
 2208 00d4 03F8502C 		strb	r2, [r3, #-80]
 741:Core/Src/spi.c ****             for (uint8_t i = 0; i < len - combined_len; i++) 
 2209              		.loc 1 741 13 is_stmt 1 view .LVU590
 2210              	.LBB13:
 2211              		.loc 1 741 18 view .LVU591
 2212              	.LVL226:
 2213              		.loc 1 741 13 is_stmt 0 view .LVU592
 2214 00d8 0CE0     		b	.L128
ARM GAS  C:\Users\23612\AppData\Local\Temp\cctfb4zR.s 			page 57


 2215              	.LVL227:
 2216              	.L123:
 2217              		.loc 1 741 13 view .LVU593
 2218              	.LBE13:
 2219              	.LBE12:
 732:Core/Src/spi.c ****     }
 2220              		.loc 1 732 9 is_stmt 1 view .LVU594
 2221 00da 0FA9     		add	r1, sp, #60
 2222 00dc 6846     		mov	r0, sp
 2223 00de FFF7FEFF 		bl	strcpy
 2224              	.LVL228:
 2225 00e2 E6E7     		b	.L124
 2226              	.LVL229:
 2227              	.L129:
 2228              	.LBB16:
 2229              	.LBB14:
 742:Core/Src/spi.c **** 			{
 743:Core/Src/spi.c ****                 buffer[i] = '0';
 2230              		.loc 1 743 17 discriminator 3 view .LVU595
 2231              		.loc 1 743 27 is_stmt 0 discriminator 3 view .LVU596
 2232 00e4 04F1A003 		add	r3, r4, #160
 2233 00e8 6B44     		add	r3, sp, r3
 2234 00ea 3022     		movs	r2, #48
 2235 00ec 03F8502C 		strb	r2, [r3, #-80]
 741:Core/Src/spi.c **** 			{
 2236              		.loc 1 741 57 is_stmt 1 discriminator 3 view .LVU597
 741:Core/Src/spi.c **** 			{
 2237              		.loc 1 741 58 is_stmt 0 discriminator 3 view .LVU598
 2238 00f0 0134     		adds	r4, r4, #1
 2239              	.LVL230:
 741:Core/Src/spi.c **** 			{
 2240              		.loc 1 741 58 discriminator 3 view .LVU599
 2241 00f2 E4B2     		uxtb	r4, r4
 2242              	.LVL231:
 2243              	.L128:
 741:Core/Src/spi.c **** 			{
 2244              		.loc 1 741 33 is_stmt 1 discriminator 1 view .LVU600
 741:Core/Src/spi.c **** 			{
 2245              		.loc 1 741 13 is_stmt 0 discriminator 1 view .LVU601
 2246 00f4 A042     		cmp	r0, r4
 2247 00f6 F5DC     		bgt	.L129
 2248              	.LBE14:
 744:Core/Src/spi.c ****             }
 745:Core/Src/spi.c **** 			sprintf(Number_Buffer, "%s%s", buffer, combined);
 2249              		.loc 1 745 4 is_stmt 1 view .LVU602
 2250 00f8 6B46     		mov	r3, sp
 2251 00fa 14AA     		add	r2, sp, #80
 2252 00fc 2F49     		ldr	r1, .L147+20
 2253 00fe 1EA8     		add	r0, sp, #120
 2254 0100 FFF7FEFF 		bl	sprintf
 2255              	.LVL232:
 2256 0104 10E0     		b	.L130
 2257              	.LVL233:
 2258              	.L131:
 2259              	.LBB15:
 746:Core/Src/spi.c **** 		}
 747:Core/Src/spi.c **** 		else
ARM GAS  C:\Users\23612\AppData\Local\Temp\cctfb4zR.s 			page 58


 748:Core/Src/spi.c **** 		{
 749:Core/Src/spi.c **** 			for (uint8_t i = 0; i < len - combined_len; i++) 
 750:Core/Src/spi.c **** 			{
 751:Core/Src/spi.c **** 				buffer[i] = '0';
 2260              		.loc 1 751 5 discriminator 3 view .LVU603
 2261              		.loc 1 751 15 is_stmt 0 discriminator 3 view .LVU604
 2262 0106 04F1A003 		add	r3, r4, #160
 2263 010a 6B44     		add	r3, sp, r3
 2264 010c 3022     		movs	r2, #48
 2265 010e 03F8502C 		strb	r2, [r3, #-80]
 749:Core/Src/spi.c **** 			{
 2266              		.loc 1 749 48 is_stmt 1 discriminator 3 view .LVU605
 749:Core/Src/spi.c **** 			{
 2267              		.loc 1 749 49 is_stmt 0 discriminator 3 view .LVU606
 2268 0112 0134     		adds	r4, r4, #1
 2269              	.LVL234:
 749:Core/Src/spi.c **** 			{
 2270              		.loc 1 749 49 discriminator 3 view .LVU607
 2271 0114 E4B2     		uxtb	r4, r4
 2272              	.LVL235:
 2273              	.L126:
 749:Core/Src/spi.c **** 			{
 2274              		.loc 1 749 24 is_stmt 1 discriminator 1 view .LVU608
 749:Core/Src/spi.c **** 			{
 2275              		.loc 1 749 32 is_stmt 0 discriminator 1 view .LVU609
 2276 0116 331A     		subs	r3, r6, r0
 749:Core/Src/spi.c **** 			{
 2277              		.loc 1 749 4 discriminator 1 view .LVU610
 2278 0118 9C42     		cmp	r4, r3
 2279 011a F4DB     		blt	.L131
 2280              	.LBE15:
 752:Core/Src/spi.c **** 			}
 753:Core/Src/spi.c **** 			sprintf(Number_Buffer, "%s%s", buffer, combined);
 2281              		.loc 1 753 4 is_stmt 1 view .LVU611
 2282 011c 6B46     		mov	r3, sp
 2283 011e 14AA     		add	r2, sp, #80
 2284 0120 2649     		ldr	r1, .L147+20
 2285 0122 1EA8     		add	r0, sp, #120
 2286              	.LVL236:
 2287              		.loc 1 753 4 is_stmt 0 view .LVU612
 2288 0124 FFF7FEFF 		bl	sprintf
 2289              	.LVL237:
 2290              	.L130:
 2291              		.loc 1 753 4 view .LVU613
 2292              	.LBE16:
 754:Core/Src/spi.c **** 		}
 755:Core/Src/spi.c **** 		
 756:Core/Src/spi.c **** 	}
 757:Core/Src/spi.c **** 	else		// Â§ö‰Ωô‰ΩçÂ°´ÂÖÖÁ©∫Ê†?
 758:Core/Src/spi.c **** 	{
 759:Core/Src/spi.c **** 		uint8_t combined_len = (uint8_t)strlen(combined);
 760:Core/Src/spi.c **** 		if (negative)
 761:Core/Src/spi.c **** 		{
 762:Core/Src/spi.c **** 			buffer[len - combined_len] = '-';
 763:Core/Src/spi.c **** 			for (uint8_t i = 0; i < len - combined_len; i++) 
 764:Core/Src/spi.c **** 			{
 765:Core/Src/spi.c **** 				buffer[i] = ' ';
ARM GAS  C:\Users\23612\AppData\Local\Temp\cctfb4zR.s 			page 59


 766:Core/Src/spi.c **** 			}
 767:Core/Src/spi.c **** 			sprintf(Number_Buffer, "%s%s", buffer, combined);
 768:Core/Src/spi.c **** 		}
 769:Core/Src/spi.c **** 		else
 770:Core/Src/spi.c **** 		{
 771:Core/Src/spi.c **** 			for (uint8_t i = 0; i < len - combined_len; i++) 
 772:Core/Src/spi.c **** 			{
 773:Core/Src/spi.c **** 				buffer[i] = ' ';
 774:Core/Src/spi.c **** 			}
 775:Core/Src/spi.c **** 			sprintf(Number_Buffer, "%s%s", buffer, combined);
 776:Core/Src/spi.c **** 		}	
 777:Core/Src/spi.c **** 	}
 778:Core/Src/spi.c **** 	LCD_DisplayString( x, y, (char *)Number_Buffer) ;	// Â∞ÜËΩ¨Êç¢ÂæóÂà∞ÁöÑÂ≠óÁ¨¶‰∏≤ÊòæÁ§∫Âá∫Êù?
 2293              		.loc 1 778 2 is_stmt 1 view .LVU614
 2294 0128 1EAA     		add	r2, sp, #120
 2295 012a 4146     		mov	r1, r8
 2296 012c 3846     		mov	r0, r7
 2297 012e FFF7FEFF 		bl	LCD_DisplayString
 2298              	.LVL238:
 779:Core/Src/spi.c **** }
 2299              		.loc 1 779 1 is_stmt 0 view .LVU615
 2300 0132 28B0     		add	sp, sp, #160
 2301              	.LCFI31:
 2302              		.cfi_remember_state
 2303              		.cfi_def_cfa_offset 32
 2304              		@ sp needed
 2305 0134 BDEC028B 		vldm	sp!, {d8}
 2306              	.LCFI32:
 2307              		.cfi_restore 80
 2308              		.cfi_restore 81
 2309              		.cfi_def_cfa_offset 24
 2310              	.LVL239:
 2311              		.loc 1 779 1 view .LVU616
 2312 0138 BDE8F081 		pop	{r4, r5, r6, r7, r8, pc}
 2313              	.LVL240:
 2314              	.L125:
 2315              	.LCFI33:
 2316              		.cfi_restore_state
 2317              	.LBB17:
 759:Core/Src/spi.c **** 		if (negative)
 2318              		.loc 1 759 3 is_stmt 1 view .LVU617
 759:Core/Src/spi.c **** 		if (negative)
 2319              		.loc 1 759 35 is_stmt 0 view .LVU618
 2320 013c 6846     		mov	r0, sp
 2321 013e FFF7FEFF 		bl	strlen
 2322              	.LVL241:
 760:Core/Src/spi.c **** 		{
 2323              		.loc 1 760 3 is_stmt 1 view .LVU619
 760:Core/Src/spi.c **** 		{
 2324              		.loc 1 760 6 is_stmt 0 view .LVU620
 2325 0142 B5EEC08A 		vcmpe.f32	s16, #0
 2326 0146 F1EE10FA 		vmrs	APSR_nzcv, FPSCR
 2327 014a 01D4     		bmi	.L146
 2328              	.LBB18:
 771:Core/Src/spi.c **** 			{
 2329              		.loc 1 771 17 view .LVU621
 2330 014c 0023     		movs	r3, #0
ARM GAS  C:\Users\23612\AppData\Local\Temp\cctfb4zR.s 			page 60


 2331 014e 21E0     		b	.L132
 2332              	.L146:
 2333              	.LBE18:
 762:Core/Src/spi.c **** 			for (uint8_t i = 0; i < len - combined_len; i++) 
 2334              		.loc 1 762 4 is_stmt 1 view .LVU622
 762:Core/Src/spi.c **** 			for (uint8_t i = 0; i < len - combined_len; i++) 
 2335              		.loc 1 762 15 is_stmt 0 view .LVU623
 2336 0150 301A     		subs	r0, r6, r0
 2337              	.LVL242:
 762:Core/Src/spi.c **** 			for (uint8_t i = 0; i < len - combined_len; i++) 
 2338              		.loc 1 762 31 view .LVU624
 2339 0152 00F1A003 		add	r3, r0, #160
 2340 0156 6B44     		add	r3, sp, r3
 2341 0158 2D22     		movs	r2, #45
 2342 015a 03F8502C 		strb	r2, [r3, #-80]
 763:Core/Src/spi.c **** 			{
 2343              		.loc 1 763 4 is_stmt 1 view .LVU625
 2344              	.LBB19:
 763:Core/Src/spi.c **** 			{
 2345              		.loc 1 763 9 view .LVU626
 2346              	.LVL243:
 763:Core/Src/spi.c **** 			{
 2347              		.loc 1 763 17 is_stmt 0 view .LVU627
 2348 015e 0023     		movs	r3, #0
 763:Core/Src/spi.c **** 			{
 2349              		.loc 1 763 4 view .LVU628
 2350 0160 07E0     		b	.L134
 2351              	.LVL244:
 2352              	.L135:
 765:Core/Src/spi.c **** 			}
 2353              		.loc 1 765 5 is_stmt 1 discriminator 3 view .LVU629
 765:Core/Src/spi.c **** 			}
 2354              		.loc 1 765 15 is_stmt 0 discriminator 3 view .LVU630
 2355 0162 03F1A002 		add	r2, r3, #160
 2356 0166 6A44     		add	r2, sp, r2
 2357 0168 2021     		movs	r1, #32
 2358 016a 02F8501C 		strb	r1, [r2, #-80]
 763:Core/Src/spi.c **** 			{
 2359              		.loc 1 763 48 is_stmt 1 discriminator 3 view .LVU631
 763:Core/Src/spi.c **** 			{
 2360              		.loc 1 763 49 is_stmt 0 discriminator 3 view .LVU632
 2361 016e 0133     		adds	r3, r3, #1
 2362              	.LVL245:
 763:Core/Src/spi.c **** 			{
 2363              		.loc 1 763 49 discriminator 3 view .LVU633
 2364 0170 DBB2     		uxtb	r3, r3
 2365              	.LVL246:
 2366              	.L134:
 763:Core/Src/spi.c **** 			{
 2367              		.loc 1 763 24 is_stmt 1 discriminator 1 view .LVU634
 763:Core/Src/spi.c **** 			{
 2368              		.loc 1 763 4 is_stmt 0 discriminator 1 view .LVU635
 2369 0172 9842     		cmp	r0, r3
 2370 0174 F5DC     		bgt	.L135
 2371              	.LBE19:
 767:Core/Src/spi.c **** 		}
 2372              		.loc 1 767 4 is_stmt 1 view .LVU636
ARM GAS  C:\Users\23612\AppData\Local\Temp\cctfb4zR.s 			page 61


 2373 0176 6B46     		mov	r3, sp
 2374              	.LVL247:
 767:Core/Src/spi.c **** 		}
 2375              		.loc 1 767 4 is_stmt 0 view .LVU637
 2376 0178 14AA     		add	r2, sp, #80
 2377 017a 1049     		ldr	r1, .L147+20
 2378 017c 1EA8     		add	r0, sp, #120
 2379 017e FFF7FEFF 		bl	sprintf
 2380              	.LVL248:
 2381 0182 D1E7     		b	.L130
 2382              	.LVL249:
 2383              	.L136:
 2384              	.LBB20:
 773:Core/Src/spi.c **** 			}
 2385              		.loc 1 773 5 is_stmt 1 discriminator 3 view .LVU638
 773:Core/Src/spi.c **** 			}
 2386              		.loc 1 773 15 is_stmt 0 discriminator 3 view .LVU639
 2387 0184 03F1A002 		add	r2, r3, #160
 2388 0188 6A44     		add	r2, sp, r2
 2389 018a 2021     		movs	r1, #32
 2390 018c 02F8501C 		strb	r1, [r2, #-80]
 771:Core/Src/spi.c **** 			{
 2391              		.loc 1 771 48 is_stmt 1 discriminator 3 view .LVU640
 771:Core/Src/spi.c **** 			{
 2392              		.loc 1 771 49 is_stmt 0 discriminator 3 view .LVU641
 2393 0190 0133     		adds	r3, r3, #1
 2394              	.LVL250:
 771:Core/Src/spi.c **** 			{
 2395              		.loc 1 771 49 discriminator 3 view .LVU642
 2396 0192 DBB2     		uxtb	r3, r3
 2397              	.LVL251:
 2398              	.L132:
 771:Core/Src/spi.c **** 			{
 2399              		.loc 1 771 24 is_stmt 1 discriminator 1 view .LVU643
 771:Core/Src/spi.c **** 			{
 2400              		.loc 1 771 32 is_stmt 0 discriminator 1 view .LVU644
 2401 0194 321A     		subs	r2, r6, r0
 771:Core/Src/spi.c **** 			{
 2402              		.loc 1 771 4 discriminator 1 view .LVU645
 2403 0196 9342     		cmp	r3, r2
 2404 0198 F4DB     		blt	.L136
 2405              	.LBE20:
 775:Core/Src/spi.c **** 		}	
 2406              		.loc 1 775 4 is_stmt 1 view .LVU646
 2407 019a 6B46     		mov	r3, sp
 2408              	.LVL252:
 775:Core/Src/spi.c **** 		}	
 2409              		.loc 1 775 4 is_stmt 0 view .LVU647
 2410 019c 14AA     		add	r2, sp, #80
 2411 019e 0749     		ldr	r1, .L147+20
 2412 01a0 1EA8     		add	r0, sp, #120
 2413              	.LVL253:
 775:Core/Src/spi.c **** 		}	
 2414              		.loc 1 775 4 view .LVU648
 2415 01a2 FFF7FEFF 		bl	sprintf
 2416              	.LVL254:
 2417 01a6 BFE7     		b	.L130
ARM GAS  C:\Users\23612\AppData\Local\Temp\cctfb4zR.s 			page 62


 2418              	.L148:
 2419              		.align	2
 2420              	.L147:
 2421 01a8 00002440 		.word	1076101120
 2422 01ac 00000000 		.word	.LC2
 2423 01b0 04000000 		.word	.LC3
 2424 01b4 0C000000 		.word	.LC4
 2425 01b8 00000000 		.word	.LANCHOR3
 2426 01bc 14000000 		.word	.LC5
 2427              	.LBE17:
 2428              		.cfi_endproc
 2429              	.LFE190:
 2431              		.global	hdma_spi3_tx
 2432              		.global	hspi3
 2433              		.global	sendFlg
 2434              		.global	LCD
 2435              		.global	LCD_Buff
 2436              		.section	.bss.LCD,"aw",%nobits
 2437              		.align	2
 2438              		.set	.LANCHOR3,. + 0
 2441              	LCD:
 2442 0000 00000000 		.space	12
 2442      00000000 
 2442      00000000 
 2443              		.section	.bss.LCD_AsciiFonts,"aw",%nobits
 2444              		.align	2
 2445              		.set	.LANCHOR4,. + 0
 2448              	LCD_AsciiFonts:
 2449 0000 00000000 		.space	4
 2450              		.section	.bss.LCD_Buff,"aw",%nobits
 2451              		.align	2
 2452              		.set	.LANCHOR5,. + 0
 2455              	LCD_Buff:
 2456 0000 00000000 		.space	2048
 2456      00000000 
 2456      00000000 
 2456      00000000 
 2456      00000000 
 2457              		.section	.bss.hdma_spi3_tx,"aw",%nobits
 2458              		.align	2
 2459              		.set	.LANCHOR1,. + 0
 2462              	hdma_spi3_tx:
 2463 0000 00000000 		.space	96
 2463      00000000 
 2463      00000000 
 2463      00000000 
 2463      00000000 
 2464              		.section	.bss.hspi3,"aw",%nobits
 2465              		.align	2
 2466              		.set	.LANCHOR0,. + 0
 2469              	hspi3:
 2470 0000 00000000 		.space	88
 2470      00000000 
 2470      00000000 
 2470      00000000 
 2470      00000000 
 2471              		.section	.bss.sendFlg,"aw",%nobits
ARM GAS  C:\Users\23612\AppData\Local\Temp\cctfb4zR.s 			page 63


 2472              		.set	.LANCHOR2,. + 0
 2475              	sendFlg:
 2476 0000 00       		.space	1
 2477              		.text
 2478              	.Letext0:
 2479              		.file 2 "d:\\gcc-arm-none-eabi-10.3-2021.10\\arm-none-eabi\\include\\machine\\_default_types.h"
 2480              		.file 3 "d:\\gcc-arm-none-eabi-10.3-2021.10\\arm-none-eabi\\include\\sys\\_stdint.h"
 2481              		.file 4 "Drivers/CMSIS/Device/ST/STM32F4xx/Include/stm32f429xx.h"
 2482              		.file 5 "Drivers/STM32F4xx_HAL_Driver/Inc/stm32f4xx_hal_def.h"
 2483              		.file 6 "Drivers/STM32F4xx_HAL_Driver/Inc/stm32f4xx_hal_gpio.h"
 2484              		.file 7 "Drivers/STM32F4xx_HAL_Driver/Inc/stm32f4xx_hal_dma.h"
 2485              		.file 8 "Drivers/STM32F4xx_HAL_Driver/Inc/stm32f4xx_hal_spi.h"
 2486              		.file 9 "Core/Inc/lcd_fonts.h"
 2487              		.file 10 "Core/Inc/spi.h"
 2488              		.file 11 "d:\\gcc-arm-none-eabi-10.3-2021.10\\arm-none-eabi\\include\\string.h"
 2489              		.file 12 "d:\\gcc-arm-none-eabi-10.3-2021.10\\arm-none-eabi\\include\\stdio.h"
 2490              		.file 13 "d:\\gcc-arm-none-eabi-10.3-2021.10\\arm-none-eabi\\include\\math.h"
 2491              		.file 14 "Drivers/STM32F4xx_HAL_Driver/Inc/stm32f4xx_hal.h"
 2492              		.file 15 "Core/Inc/main.h"
 2493              		.file 16 "<built-in>"
ARM GAS  C:\Users\23612\AppData\Local\Temp\cctfb4zR.s 			page 64

